
ADAS_BlackPill.elf:     file format elf32-littlearm

Sections:
Idx Name          Size      VMA       LMA       File off  Algn
  0 .isr_vector   00000198  08000000  08000000  00001000  2**0
                  CONTENTS, ALLOC, LOAD, READONLY, DATA
  1 .text         00006954  080001a0  080001a0  000011a0  2**4
                  CONTENTS, ALLOC, LOAD, READONLY, CODE
  2 .rodata       00000b08  08006af4  08006af4  00007af4  2**2
                  CONTENTS, ALLOC, LOAD, READONLY, DATA
  3 .ARM.extab    00000000  080075fc  080075fc  00009308  2**0
                  CONTENTS
  4 .ARM          00000008  080075fc  080075fc  000085fc  2**2
                  CONTENTS, ALLOC, LOAD, READONLY, DATA
  5 .preinit_array 00000000  08007604  08007604  00009308  2**0
                  CONTENTS, ALLOC, LOAD, DATA
  6 .init_array   00000004  08007604  08007604  00008604  2**2
                  CONTENTS, ALLOC, LOAD, DATA
  7 .fini_array   00000004  08007608  08007608  00008608  2**2
                  CONTENTS, ALLOC, LOAD, DATA
  8 .data         00000308  20000000  0800760c  00009000  2**3
                  CONTENTS, ALLOC, LOAD, DATA
  9 .bss          00005b74  20000308  08007914  00009308  2**3
                  ALLOC
 10 ._user_heap_stack 00000604  20005e7c  08007914  00009e7c  2**0
                  ALLOC
 11 .ARM.attributes 00000030  00000000  00000000  00009308  2**0
                  CONTENTS, READONLY
 12 .comment      00000043  00000000  00000000  00009338  2**0
                  CONTENTS, READONLY
 13 .debug_frame  000002cc  00000000  00000000  0000937c  2**2
                  CONTENTS, READONLY, DEBUGGING, OCTETS

Disassembly of section .text:

080001a0 <__do_global_dtors_aux>:
 80001a0:	b510      	push	{r4, lr}
 80001a2:	4c05      	ldr	r4, [pc, #20]	@ (80001b8 <__do_global_dtors_aux+0x18>)
 80001a4:	7823      	ldrb	r3, [r4, #0]
 80001a6:	b933      	cbnz	r3, 80001b6 <__do_global_dtors_aux+0x16>
 80001a8:	4b04      	ldr	r3, [pc, #16]	@ (80001bc <__do_global_dtors_aux+0x1c>)
 80001aa:	b113      	cbz	r3, 80001b2 <__do_global_dtors_aux+0x12>
 80001ac:	4804      	ldr	r0, [pc, #16]	@ (80001c0 <__do_global_dtors_aux+0x20>)
 80001ae:	f3af 8000 	nop.w
 80001b2:	2301      	movs	r3, #1
 80001b4:	7023      	strb	r3, [r4, #0]
 80001b6:	bd10      	pop	{r4, pc}
 80001b8:	20000308 	.word	0x20000308
 80001bc:	00000000 	.word	0x00000000
 80001c0:	08006adc 	.word	0x08006adc

080001c4 <frame_dummy>:
 80001c4:	b508      	push	{r3, lr}
 80001c6:	4b03      	ldr	r3, [pc, #12]	@ (80001d4 <frame_dummy+0x10>)
 80001c8:	b11b      	cbz	r3, 80001d2 <frame_dummy+0xe>
 80001ca:	4903      	ldr	r1, [pc, #12]	@ (80001d8 <frame_dummy+0x14>)
 80001cc:	4803      	ldr	r0, [pc, #12]	@ (80001dc <frame_dummy+0x18>)
 80001ce:	f3af 8000 	nop.w
 80001d2:	bd08      	pop	{r3, pc}
 80001d4:	00000000 	.word	0x00000000
 80001d8:	2000030c 	.word	0x2000030c
 80001dc:	08006adc 	.word	0x08006adc

080001e0 <__aeabi_uldivmod>:
 80001e0:	b953      	cbnz	r3, 80001f8 <__aeabi_uldivmod+0x18>
 80001e2:	b94a      	cbnz	r2, 80001f8 <__aeabi_uldivmod+0x18>
 80001e4:	2900      	cmp	r1, #0
 80001e6:	bf08      	it	eq
 80001e8:	2800      	cmpeq	r0, #0
 80001ea:	bf1c      	itt	ne
 80001ec:	f04f 31ff 	movne.w	r1, #4294967295
 80001f0:	f04f 30ff 	movne.w	r0, #4294967295
 80001f4:	f000 b96a 	b.w	80004cc <__aeabi_idiv0>
 80001f8:	f1ad 0c08 	sub.w	ip, sp, #8
 80001fc:	e96d ce04 	strd	ip, lr, [sp, #-16]!
 8000200:	f000 f806 	bl	8000210 <__udivmoddi4>
 8000204:	f8dd e004 	ldr.w	lr, [sp, #4]
 8000208:	e9dd 2302 	ldrd	r2, r3, [sp, #8]
 800020c:	b004      	add	sp, #16
 800020e:	4770      	bx	lr

08000210 <__udivmoddi4>:
 8000210:	e92d 47f0 	stmdb	sp!, {r4, r5, r6, r7, r8, r9, sl, lr}
 8000214:	9d08      	ldr	r5, [sp, #32]
 8000216:	460c      	mov	r4, r1
 8000218:	2b00      	cmp	r3, #0
 800021a:	d14e      	bne.n	80002ba <__udivmoddi4+0xaa>
 800021c:	4694      	mov	ip, r2
 800021e:	458c      	cmp	ip, r1
 8000220:	4686      	mov	lr, r0
 8000222:	fab2 f282 	clz	r2, r2
 8000226:	d962      	bls.n	80002ee <__udivmoddi4+0xde>
 8000228:	b14a      	cbz	r2, 800023e <__udivmoddi4+0x2e>
 800022a:	f1c2 0320 	rsb	r3, r2, #32
 800022e:	4091      	lsls	r1, r2
 8000230:	fa20 f303 	lsr.w	r3, r0, r3
 8000234:	fa0c fc02 	lsl.w	ip, ip, r2
 8000238:	4319      	orrs	r1, r3
 800023a:	fa00 fe02 	lsl.w	lr, r0, r2
 800023e:	ea4f 471c 	mov.w	r7, ip, lsr #16
 8000242:	fa1f f68c 	uxth.w	r6, ip
 8000246:	fbb1 f4f7 	udiv	r4, r1, r7
 800024a:	ea4f 431e 	mov.w	r3, lr, lsr #16
 800024e:	fb07 1114 	mls	r1, r7, r4, r1
 8000252:	ea43 4301 	orr.w	r3, r3, r1, lsl #16
 8000256:	fb04 f106 	mul.w	r1, r4, r6
 800025a:	4299      	cmp	r1, r3
 800025c:	d90a      	bls.n	8000274 <__udivmoddi4+0x64>
 800025e:	eb1c 0303 	adds.w	r3, ip, r3
 8000262:	f104 30ff 	add.w	r0, r4, #4294967295
 8000266:	f080 8112 	bcs.w	800048e <__udivmoddi4+0x27e>
 800026a:	4299      	cmp	r1, r3
 800026c:	f240 810f 	bls.w	800048e <__udivmoddi4+0x27e>
 8000270:	3c02      	subs	r4, #2
 8000272:	4463      	add	r3, ip
 8000274:	1a59      	subs	r1, r3, r1
 8000276:	fa1f f38e 	uxth.w	r3, lr
 800027a:	fbb1 f0f7 	udiv	r0, r1, r7
 800027e:	fb07 1110 	mls	r1, r7, r0, r1
 8000282:	ea43 4301 	orr.w	r3, r3, r1, lsl #16
 8000286:	fb00 f606 	mul.w	r6, r0, r6
 800028a:	429e      	cmp	r6, r3
 800028c:	d90a      	bls.n	80002a4 <__udivmoddi4+0x94>
 800028e:	eb1c 0303 	adds.w	r3, ip, r3
 8000292:	f100 31ff 	add.w	r1, r0, #4294967295
 8000296:	f080 80fc 	bcs.w	8000492 <__udivmoddi4+0x282>
 800029a:	429e      	cmp	r6, r3
 800029c:	f240 80f9 	bls.w	8000492 <__udivmoddi4+0x282>
 80002a0:	4463      	add	r3, ip
 80002a2:	3802      	subs	r0, #2
 80002a4:	1b9b      	subs	r3, r3, r6
 80002a6:	ea40 4004 	orr.w	r0, r0, r4, lsl #16
 80002aa:	2100      	movs	r1, #0
 80002ac:	b11d      	cbz	r5, 80002b6 <__udivmoddi4+0xa6>
 80002ae:	40d3      	lsrs	r3, r2
 80002b0:	2200      	movs	r2, #0
 80002b2:	e9c5 3200 	strd	r3, r2, [r5]
 80002b6:	e8bd 87f0 	ldmia.w	sp!, {r4, r5, r6, r7, r8, r9, sl, pc}
 80002ba:	428b      	cmp	r3, r1
 80002bc:	d905      	bls.n	80002ca <__udivmoddi4+0xba>
 80002be:	b10d      	cbz	r5, 80002c4 <__udivmoddi4+0xb4>
 80002c0:	e9c5 0100 	strd	r0, r1, [r5]
 80002c4:	2100      	movs	r1, #0
 80002c6:	4608      	mov	r0, r1
 80002c8:	e7f5      	b.n	80002b6 <__udivmoddi4+0xa6>
 80002ca:	fab3 f183 	clz	r1, r3
 80002ce:	2900      	cmp	r1, #0
 80002d0:	d146      	bne.n	8000360 <__udivmoddi4+0x150>
 80002d2:	42a3      	cmp	r3, r4
 80002d4:	d302      	bcc.n	80002dc <__udivmoddi4+0xcc>
 80002d6:	4290      	cmp	r0, r2
 80002d8:	f0c0 80f0 	bcc.w	80004bc <__udivmoddi4+0x2ac>
 80002dc:	1a86      	subs	r6, r0, r2
 80002de:	eb64 0303 	sbc.w	r3, r4, r3
 80002e2:	2001      	movs	r0, #1
 80002e4:	2d00      	cmp	r5, #0
 80002e6:	d0e6      	beq.n	80002b6 <__udivmoddi4+0xa6>
 80002e8:	e9c5 6300 	strd	r6, r3, [r5]
 80002ec:	e7e3      	b.n	80002b6 <__udivmoddi4+0xa6>
 80002ee:	2a00      	cmp	r2, #0
 80002f0:	f040 8090 	bne.w	8000414 <__udivmoddi4+0x204>
 80002f4:	eba1 040c 	sub.w	r4, r1, ip
 80002f8:	ea4f 481c 	mov.w	r8, ip, lsr #16
 80002fc:	fa1f f78c 	uxth.w	r7, ip
 8000300:	2101      	movs	r1, #1
 8000302:	fbb4 f6f8 	udiv	r6, r4, r8
 8000306:	ea4f 431e 	mov.w	r3, lr, lsr #16
 800030a:	fb08 4416 	mls	r4, r8, r6, r4
 800030e:	ea43 4304 	orr.w	r3, r3, r4, lsl #16
 8000312:	fb07 f006 	mul.w	r0, r7, r6
 8000316:	4298      	cmp	r0, r3
 8000318:	d908      	bls.n	800032c <__udivmoddi4+0x11c>
 800031a:	eb1c 0303 	adds.w	r3, ip, r3
 800031e:	f106 34ff 	add.w	r4, r6, #4294967295
 8000322:	d202      	bcs.n	800032a <__udivmoddi4+0x11a>
 8000324:	4298      	cmp	r0, r3
 8000326:	f200 80cd 	bhi.w	80004c4 <__udivmoddi4+0x2b4>
 800032a:	4626      	mov	r6, r4
 800032c:	1a1c      	subs	r4, r3, r0
 800032e:	fa1f f38e 	uxth.w	r3, lr
 8000332:	fbb4 f0f8 	udiv	r0, r4, r8
 8000336:	fb08 4410 	mls	r4, r8, r0, r4
 800033a:	ea43 4304 	orr.w	r3, r3, r4, lsl #16
 800033e:	fb00 f707 	mul.w	r7, r0, r7
 8000342:	429f      	cmp	r7, r3
 8000344:	d908      	bls.n	8000358 <__udivmoddi4+0x148>
 8000346:	eb1c 0303 	adds.w	r3, ip, r3
 800034a:	f100 34ff 	add.w	r4, r0, #4294967295
 800034e:	d202      	bcs.n	8000356 <__udivmoddi4+0x146>
 8000350:	429f      	cmp	r7, r3
 8000352:	f200 80b0 	bhi.w	80004b6 <__udivmoddi4+0x2a6>
 8000356:	4620      	mov	r0, r4
 8000358:	1bdb      	subs	r3, r3, r7
 800035a:	ea40 4006 	orr.w	r0, r0, r6, lsl #16
 800035e:	e7a5      	b.n	80002ac <__udivmoddi4+0x9c>
 8000360:	f1c1 0620 	rsb	r6, r1, #32
 8000364:	408b      	lsls	r3, r1
 8000366:	fa22 f706 	lsr.w	r7, r2, r6
 800036a:	431f      	orrs	r7, r3
 800036c:	fa20 fc06 	lsr.w	ip, r0, r6
 8000370:	fa04 f301 	lsl.w	r3, r4, r1
 8000374:	ea43 030c 	orr.w	r3, r3, ip
 8000378:	40f4      	lsrs	r4, r6
 800037a:	fa00 f801 	lsl.w	r8, r0, r1
 800037e:	0c38      	lsrs	r0, r7, #16
 8000380:	ea4f 4913 	mov.w	r9, r3, lsr #16
 8000384:	fbb4 fef0 	udiv	lr, r4, r0
 8000388:	fa1f fc87 	uxth.w	ip, r7
 800038c:	fb00 441e 	mls	r4, r0, lr, r4
 8000390:	ea49 4404 	orr.w	r4, r9, r4, lsl #16
 8000394:	fb0e f90c 	mul.w	r9, lr, ip
 8000398:	45a1      	cmp	r9, r4
 800039a:	fa02 f201 	lsl.w	r2, r2, r1
 800039e:	d90a      	bls.n	80003b6 <__udivmoddi4+0x1a6>
 80003a0:	193c      	adds	r4, r7, r4
 80003a2:	f10e 3aff 	add.w	sl, lr, #4294967295
 80003a6:	f080 8084 	bcs.w	80004b2 <__udivmoddi4+0x2a2>
 80003aa:	45a1      	cmp	r9, r4
 80003ac:	f240 8081 	bls.w	80004b2 <__udivmoddi4+0x2a2>
 80003b0:	f1ae 0e02 	sub.w	lr, lr, #2
 80003b4:	443c      	add	r4, r7
 80003b6:	eba4 0409 	sub.w	r4, r4, r9
 80003ba:	fa1f f983 	uxth.w	r9, r3
 80003be:	fbb4 f3f0 	udiv	r3, r4, r0
 80003c2:	fb00 4413 	mls	r4, r0, r3, r4
 80003c6:	ea49 4404 	orr.w	r4, r9, r4, lsl #16
 80003ca:	fb03 fc0c 	mul.w	ip, r3, ip
 80003ce:	45a4      	cmp	ip, r4
 80003d0:	d907      	bls.n	80003e2 <__udivmoddi4+0x1d2>
 80003d2:	193c      	adds	r4, r7, r4
 80003d4:	f103 30ff 	add.w	r0, r3, #4294967295
 80003d8:	d267      	bcs.n	80004aa <__udivmoddi4+0x29a>
 80003da:	45a4      	cmp	ip, r4
 80003dc:	d965      	bls.n	80004aa <__udivmoddi4+0x29a>
 80003de:	3b02      	subs	r3, #2
 80003e0:	443c      	add	r4, r7
 80003e2:	ea43 400e 	orr.w	r0, r3, lr, lsl #16
 80003e6:	fba0 9302 	umull	r9, r3, r0, r2
 80003ea:	eba4 040c 	sub.w	r4, r4, ip
 80003ee:	429c      	cmp	r4, r3
 80003f0:	46ce      	mov	lr, r9
 80003f2:	469c      	mov	ip, r3
 80003f4:	d351      	bcc.n	800049a <__udivmoddi4+0x28a>
 80003f6:	d04e      	beq.n	8000496 <__udivmoddi4+0x286>
 80003f8:	b155      	cbz	r5, 8000410 <__udivmoddi4+0x200>
 80003fa:	ebb8 030e 	subs.w	r3, r8, lr
 80003fe:	eb64 040c 	sbc.w	r4, r4, ip
 8000402:	fa04 f606 	lsl.w	r6, r4, r6
 8000406:	40cb      	lsrs	r3, r1
 8000408:	431e      	orrs	r6, r3
 800040a:	40cc      	lsrs	r4, r1
 800040c:	e9c5 6400 	strd	r6, r4, [r5]
 8000410:	2100      	movs	r1, #0
 8000412:	e750      	b.n	80002b6 <__udivmoddi4+0xa6>
 8000414:	f1c2 0320 	rsb	r3, r2, #32
 8000418:	fa20 f103 	lsr.w	r1, r0, r3
 800041c:	fa0c fc02 	lsl.w	ip, ip, r2
 8000420:	fa24 f303 	lsr.w	r3, r4, r3
 8000424:	4094      	lsls	r4, r2
 8000426:	430c      	orrs	r4, r1
 8000428:	ea4f 481c 	mov.w	r8, ip, lsr #16
 800042c:	fa00 fe02 	lsl.w	lr, r0, r2
 8000430:	fa1f f78c 	uxth.w	r7, ip
 8000434:	fbb3 f0f8 	udiv	r0, r3, r8
 8000438:	fb08 3110 	mls	r1, r8, r0, r3
 800043c:	0c23      	lsrs	r3, r4, #16
 800043e:	ea43 4301 	orr.w	r3, r3, r1, lsl #16
 8000442:	fb00 f107 	mul.w	r1, r0, r7
 8000446:	4299      	cmp	r1, r3
 8000448:	d908      	bls.n	800045c <__udivmoddi4+0x24c>
 800044a:	eb1c 0303 	adds.w	r3, ip, r3
 800044e:	f100 36ff 	add.w	r6, r0, #4294967295
 8000452:	d22c      	bcs.n	80004ae <__udivmoddi4+0x29e>
 8000454:	4299      	cmp	r1, r3
 8000456:	d92a      	bls.n	80004ae <__udivmoddi4+0x29e>
 8000458:	3802      	subs	r0, #2
 800045a:	4463      	add	r3, ip
 800045c:	1a5b      	subs	r3, r3, r1
 800045e:	b2a4      	uxth	r4, r4
 8000460:	fbb3 f1f8 	udiv	r1, r3, r8
 8000464:	fb08 3311 	mls	r3, r8, r1, r3
 8000468:	ea44 4403 	orr.w	r4, r4, r3, lsl #16
 800046c:	fb01 f307 	mul.w	r3, r1, r7
 8000470:	42a3      	cmp	r3, r4
 8000472:	d908      	bls.n	8000486 <__udivmoddi4+0x276>
 8000474:	eb1c 0404 	adds.w	r4, ip, r4
 8000478:	f101 36ff 	add.w	r6, r1, #4294967295
 800047c:	d213      	bcs.n	80004a6 <__udivmoddi4+0x296>
 800047e:	42a3      	cmp	r3, r4
 8000480:	d911      	bls.n	80004a6 <__udivmoddi4+0x296>
 8000482:	3902      	subs	r1, #2
 8000484:	4464      	add	r4, ip
 8000486:	1ae4      	subs	r4, r4, r3
 8000488:	ea41 4100 	orr.w	r1, r1, r0, lsl #16
 800048c:	e739      	b.n	8000302 <__udivmoddi4+0xf2>
 800048e:	4604      	mov	r4, r0
 8000490:	e6f0      	b.n	8000274 <__udivmoddi4+0x64>
 8000492:	4608      	mov	r0, r1
 8000494:	e706      	b.n	80002a4 <__udivmoddi4+0x94>
 8000496:	45c8      	cmp	r8, r9
 8000498:	d2ae      	bcs.n	80003f8 <__udivmoddi4+0x1e8>
 800049a:	ebb9 0e02 	subs.w	lr, r9, r2
 800049e:	eb63 0c07 	sbc.w	ip, r3, r7
 80004a2:	3801      	subs	r0, #1
 80004a4:	e7a8      	b.n	80003f8 <__udivmoddi4+0x1e8>
 80004a6:	4631      	mov	r1, r6
 80004a8:	e7ed      	b.n	8000486 <__udivmoddi4+0x276>
 80004aa:	4603      	mov	r3, r0
 80004ac:	e799      	b.n	80003e2 <__udivmoddi4+0x1d2>
 80004ae:	4630      	mov	r0, r6
 80004b0:	e7d4      	b.n	800045c <__udivmoddi4+0x24c>
 80004b2:	46d6      	mov	lr, sl
 80004b4:	e77f      	b.n	80003b6 <__udivmoddi4+0x1a6>
 80004b6:	4463      	add	r3, ip
 80004b8:	3802      	subs	r0, #2
 80004ba:	e74d      	b.n	8000358 <__udivmoddi4+0x148>
 80004bc:	4606      	mov	r6, r0
 80004be:	4623      	mov	r3, r4
 80004c0:	4608      	mov	r0, r1
 80004c2:	e70f      	b.n	80002e4 <__udivmoddi4+0xd4>
 80004c4:	3e02      	subs	r6, #2
 80004c6:	4463      	add	r3, ip
 80004c8:	e730      	b.n	800032c <__udivmoddi4+0x11c>
 80004ca:	bf00      	nop

080004cc <__aeabi_idiv0>:
 80004cc:	4770      	bx	lr
 80004ce:	bf00      	nop

080004d0 <configureTimerForRunTimeStats>:
 80004d0:	4770      	bx	lr

080004d2 <getRunTimeCounterValue>:
 80004d2:	2000      	movs	r0, #0
 80004d4:	4770      	bx	lr

080004d6 <vApplicationIdleHook>:
 80004d6:	4770      	bx	lr

080004d8 <Init_Task>:
 80004d8:	b530      	push	{r4, r5, lr}
 80004da:	4d1c      	ldr	r5, [pc, #112]	@ (800054c <Init_Task+0x74>)
 80004dc:	4c1c      	ldr	r4, [pc, #112]	@ (8000550 <Init_Task+0x78>)
 80004de:	b093      	sub	sp, #76	@ 0x4c
 80004e0:	f000 ff6c 	bl	80013bc <SSD1306_Init>
 80004e4:	6828      	ldr	r0, [r5, #0]
 80004e6:	f04f 31ff 	mov.w	r1, #4294967295
 80004ea:	f004 f956 	bl	800479a <osMutexAcquire>
 80004ee:	f104 0110 	add.w	r1, r4, #16
 80004f2:	2248      	movs	r2, #72	@ 0x48
 80004f4:	4668      	mov	r0, sp
 80004f6:	f006 fae3 	bl	8006ac0 <memcpy>
 80004fa:	e894 000f 	ldmia.w	r4, {r0, r1, r2, r3}
 80004fe:	f001 fc97 	bl	8001e30 <NRF24_begin>
 8000502:	4c14      	ldr	r4, [pc, #80]	@ (8000554 <Init_Task+0x7c>)
 8000504:	2001      	movs	r0, #1
 8000506:	f001 fb71 	bl	8001bec <NRF24_setAutoAck>
 800050a:	2020      	movs	r0, #32
 800050c:	f001 fb46 	bl	8001b9c <NRF24_setPayloadSize>
 8000510:	f001 fd76 	bl	8002000 <NRF24_enableDynamicPayloads>
 8000514:	f001 fd50 	bl	8001fb8 <NRF24_enableAckPayload>
 8000518:	e9d4 2300 	ldrd	r2, r3, [r4]
 800051c:	2001      	movs	r0, #1
 800051e:	f001 fb01 	bl	8001b24 <NRF24_openReadingPipe>
 8000522:	e9d4 0100 	ldrd	r0, r1, [r4]
 8000526:	f001 fae3 	bl	8001af0 <NRF24_openWritingPipe>
 800052a:	490b      	ldr	r1, [pc, #44]	@ (8000558 <Init_Task+0x80>)
 800052c:	2220      	movs	r2, #32
 800052e:	2001      	movs	r0, #1
 8000530:	f001 fbff 	bl	8001d32 <NRF24_writeAckPayload>
 8000534:	f001 fab4 	bl	8001aa0 <NRF24_startListening>
 8000538:	6828      	ldr	r0, [r5, #0]
 800053a:	f004 f951 	bl	80047e0 <osMutexRelease>
 800053e:	4b07      	ldr	r3, [pc, #28]	@ (800055c <Init_Task+0x84>)
 8000540:	6818      	ldr	r0, [r3, #0]
 8000542:	b013      	add	sp, #76	@ 0x4c
 8000544:	e8bd 4030 	ldmia.w	sp!, {r4, r5, lr}
 8000548:	f004 b86b 	b.w	8004622 <osThreadTerminate>
 800054c:	20000d18 	.word	0x20000d18
 8000550:	20000e78 	.word	0x20000e78
 8000554:	200002a0 	.word	0x200002a0
 8000558:	20000279 	.word	0x20000279
 800055c:	20000d3c 	.word	0x20000d3c

08000560 <DPW_Algorithm>:
 8000560:	e92d 47f3 	stmdb	sp!, {r0, r1, r4, r5, r6, r7, r8, r9, sl, lr}
 8000564:	2500      	movs	r5, #0
 8000566:	f8df 80d8 	ldr.w	r8, [pc, #216]	@ 8000640 <DPW_Algorithm+0xe0>
 800056a:	f8df 90d8 	ldr.w	r9, [pc, #216]	@ 8000644 <DPW_Algorithm+0xe4>
 800056e:	f8df a0d8 	ldr.w	sl, [pc, #216]	@ 8000648 <DPW_Algorithm+0xe8>
 8000572:	462f      	mov	r7, r5
 8000574:	f04f 33ff 	mov.w	r3, #4294967295
 8000578:	2101      	movs	r1, #1
 800057a:	f8d8 0000 	ldr.w	r0, [r8]
 800057e:	2200      	movs	r2, #0
 8000580:	f004 f8ac 	bl	80046dc <osEventFlagsWait>
 8000584:	2311      	movs	r3, #17
 8000586:	f88d 3004 	strb.w	r3, [sp, #4]
 800058a:	492b      	ldr	r1, [pc, #172]	@ (8000638 <DPW_Algorithm+0xd8>)
 800058c:	f899 3000 	ldrb.w	r3, [r9]
 8000590:	f88d 3006 	strb.w	r3, [sp, #6]
 8000594:	232d      	movs	r3, #45	@ 0x2d
 8000596:	f831 2d02 	ldrh.w	r2, [r1, #-2]!
 800059a:	3a01      	subs	r2, #1
 800059c:	b292      	uxth	r2, r2
 800059e:	f5b2 6ffa 	cmp.w	r2, #2000	@ 0x7d0
 80005a2:	d32e      	bcc.n	8000602 <DPW_Algorithm+0xa2>
 80005a4:	3b01      	subs	r3, #1
 80005a6:	b2db      	uxtb	r3, r3
 80005a8:	2b0e      	cmp	r3, #14
 80005aa:	d1f4      	bne.n	8000596 <DPW_Algorithm+0x36>
 80005ac:	463c      	mov	r4, r7
 80005ae:	f240 123b 	movw	r2, #315	@ 0x13b
 80005b2:	f83a 3012 	ldrh.w	r3, [sl, r2, lsl #1]
 80005b6:	3b01      	subs	r3, #1
 80005b8:	b29b      	uxth	r3, r3
 80005ba:	f5b3 6ffa 	cmp.w	r3, #2000	@ 0x7d0
 80005be:	d337      	bcc.n	8000630 <DPW_Algorithm+0xd0>
 80005c0:	3201      	adds	r2, #1
 80005c2:	f5b2 7fad 	cmp.w	r2, #346	@ 0x15a
 80005c6:	d1f4      	bne.n	80005b2 <DPW_Algorithm+0x52>
 80005c8:	462e      	mov	r6, r5
 80005ca:	b1a4      	cbz	r4, 80005f6 <DPW_Algorithm+0x96>
 80005cc:	b99f      	cbnz	r7, 80005f6 <DPW_Algorithm+0x96>
 80005ce:	4f1b      	ldr	r7, [pc, #108]	@ (800063c <DPW_Algorithm+0xdc>)
 80005d0:	2357      	movs	r3, #87	@ 0x57
 80005d2:	f04f 31ff 	mov.w	r1, #4294967295
 80005d6:	6838      	ldr	r0, [r7, #0]
 80005d8:	f88d 3005 	strb.w	r3, [sp, #5]
 80005dc:	f004 f8dd 	bl	800479a <osMutexAcquire>
 80005e0:	f001 fa7c 	bl	8001adc <NRF24_stopListening>
 80005e4:	2103      	movs	r1, #3
 80005e6:	a801      	add	r0, sp, #4
 80005e8:	f001 fbd4 	bl	8001d94 <NRF24_write>
 80005ec:	f001 fa58 	bl	8001aa0 <NRF24_startListening>
 80005f0:	6838      	ldr	r0, [r7, #0]
 80005f2:	f004 f8f5 	bl	80047e0 <osMutexRelease>
 80005f6:	b10e      	cbz	r6, 80005fc <DPW_Algorithm+0x9c>
 80005f8:	b12d      	cbz	r5, 8000606 <DPW_Algorithm+0xa6>
 80005fa:	2601      	movs	r6, #1
 80005fc:	4635      	mov	r5, r6
 80005fe:	4627      	mov	r7, r4
 8000600:	e7b8      	b.n	8000574 <DPW_Algorithm+0x14>
 8000602:	2401      	movs	r4, #1
 8000604:	e7d3      	b.n	80005ae <DPW_Algorithm+0x4e>
 8000606:	4d0d      	ldr	r5, [pc, #52]	@ (800063c <DPW_Algorithm+0xdc>)
 8000608:	2356      	movs	r3, #86	@ 0x56
 800060a:	f04f 31ff 	mov.w	r1, #4294967295
 800060e:	6828      	ldr	r0, [r5, #0]
 8000610:	f88d 3005 	strb.w	r3, [sp, #5]
 8000614:	f004 f8c1 	bl	800479a <osMutexAcquire>
 8000618:	f001 fa60 	bl	8001adc <NRF24_stopListening>
 800061c:	2103      	movs	r1, #3
 800061e:	a801      	add	r0, sp, #4
 8000620:	f001 fbb8 	bl	8001d94 <NRF24_write>
 8000624:	f001 fa3c 	bl	8001aa0 <NRF24_startListening>
 8000628:	6828      	ldr	r0, [r5, #0]
 800062a:	f004 f8d9 	bl	80047e0 <osMutexRelease>
 800062e:	e7e4      	b.n	80005fa <DPW_Algorithm+0x9a>
 8000630:	2c00      	cmp	r4, #0
 8000632:	d0e1      	beq.n	80005f8 <DPW_Algorithm+0x98>
 8000634:	4626      	mov	r6, r4
 8000636:	e7c9      	b.n	80005cc <DPW_Algorithm+0x6c>
 8000638:	20000398 	.word	0x20000398
 800063c:	20000d18 	.word	0x20000d18
 8000640:	20000d14 	.word	0x20000d14
 8000644:	20000334 	.word	0x20000334
 8000648:	2000033c 	.word	0x2000033c

0800064c <Localization>:
 800064c:	b51f      	push	{r0, r1, r2, r3, r4, lr}
 800064e:	4d1a      	ldr	r5, [pc, #104]	@ (80006b8 <Localization+0x6c>)
 8000650:	4c1a      	ldr	r4, [pc, #104]	@ (80006bc <Localization+0x70>)
 8000652:	f240 1611 	movw	r6, #273	@ 0x111
 8000656:	682b      	ldr	r3, [r5, #0]
 8000658:	f8ad 6004 	strh.w	r6, [sp, #4]
 800065c:	899a      	ldrh	r2, [r3, #12]
 800065e:	f88d 2006 	strb.w	r2, [sp, #6]
 8000662:	895a      	ldrh	r2, [r3, #10]
 8000664:	f88d 2007 	strb.w	r2, [sp, #7]
 8000668:	891a      	ldrh	r2, [r3, #8]
 800066a:	f88d 2008 	strb.w	r2, [sp, #8]
 800066e:	88da      	ldrh	r2, [r3, #6]
 8000670:	f88d 2009 	strb.w	r2, [sp, #9]
 8000674:	889a      	ldrh	r2, [r3, #4]
 8000676:	f88d 200a 	strb.w	r2, [sp, #10]
 800067a:	885a      	ldrh	r2, [r3, #2]
 800067c:	f88d 200b 	strb.w	r2, [sp, #11]
 8000680:	881a      	ldrh	r2, [r3, #0]
 8000682:	6820      	ldr	r0, [r4, #0]
 8000684:	89db      	ldrh	r3, [r3, #14]
 8000686:	f88d 200c 	strb.w	r2, [sp, #12]
 800068a:	f04f 31ff 	mov.w	r1, #4294967295
 800068e:	f88d 300d 	strb.w	r3, [sp, #13]
 8000692:	f004 f882 	bl	800479a <osMutexAcquire>
 8000696:	f001 fa21 	bl	8001adc <NRF24_stopListening>
 800069a:	210a      	movs	r1, #10
 800069c:	a801      	add	r0, sp, #4
 800069e:	f001 fb79 	bl	8001d94 <NRF24_write>
 80006a2:	f001 f9fd 	bl	8001aa0 <NRF24_startListening>
 80006a6:	6820      	ldr	r0, [r4, #0]
 80006a8:	f004 f89a 	bl	80047e0 <osMutexRelease>
 80006ac:	f44f 60fa 	mov.w	r0, #2000	@ 0x7d0
 80006b0:	f003 ffcf 	bl	8004652 <osDelay>
 80006b4:	e7cf      	b.n	8000656 <Localization+0xa>
 80006b6:	bf00      	nop
 80006b8:	20000338 	.word	0x20000338
 80006bc:	20000d18 	.word	0x20000d18

080006c0 <Check_Algorithm>:
 80006c0:	b508      	push	{r3, lr}
 80006c2:	4c12      	ldr	r4, [pc, #72]	@ (800070c <Check_Algorithm+0x4c>)
 80006c4:	4e12      	ldr	r6, [pc, #72]	@ (8000710 <Check_Algorithm+0x50>)
 80006c6:	4d13      	ldr	r5, [pc, #76]	@ (8000714 <Check_Algorithm+0x54>)
 80006c8:	6820      	ldr	r0, [r4, #0]
 80006ca:	f04f 33ff 	mov.w	r3, #4294967295
 80006ce:	2200      	movs	r2, #0
 80006d0:	2104      	movs	r1, #4
 80006d2:	f004 f803 	bl	80046dc <osEventFlagsWait>
 80006d6:	6833      	ldr	r3, [r6, #0]
 80006d8:	899b      	ldrh	r3, [r3, #12]
 80006da:	f46f 727a 	mvn.w	r2, #1000	@ 0x3e8
 80006de:	189a      	adds	r2, r3, r2
 80006e0:	f5b2 7f7a 	cmp.w	r2, #1000	@ 0x3e8
 80006e4:	d204      	bcs.n	80006f0 <Check_Algorithm+0x30>
 80006e6:	2103      	movs	r1, #3
 80006e8:	6820      	ldr	r0, [r4, #0]
 80006ea:	f003 ffce 	bl	800468a <osEventFlagsSet>
 80006ee:	e7eb      	b.n	80006c8 <Check_Algorithm+0x8>
 80006f0:	f5b3 7f7a 	cmp.w	r3, #1000	@ 0x3e8
 80006f4:	d801      	bhi.n	80006fa <Check_Algorithm+0x3a>
 80006f6:	2102      	movs	r1, #2
 80006f8:	e7f6      	b.n	80006e8 <Check_Algorithm+0x28>
 80006fa:	2201      	movs	r2, #1
 80006fc:	f04f 33ff 	mov.w	r3, #4294967295
 8000700:	4611      	mov	r1, r2
 8000702:	4628      	mov	r0, r5
 8000704:	f003 fc29 	bl	8003f5a <HAL_UART_Transmit>
 8000708:	e7de      	b.n	80006c8 <Check_Algorithm+0x8>
 800070a:	bf00      	nop
 800070c:	20000d14 	.word	0x20000d14
 8000710:	20000338 	.word	0x20000338
 8000714:	20000da0 	.word	0x20000da0

08000718 <EEBL_Algorithm>:
 8000718:	b507      	push	{r0, r1, r2, lr}
 800071a:	4d14      	ldr	r5, [pc, #80]	@ (800076c <EEBL_Algorithm+0x54>)
 800071c:	6828      	ldr	r0, [r5, #0]
 800071e:	4c14      	ldr	r4, [pc, #80]	@ (8000770 <EEBL_Algorithm+0x58>)
 8000720:	f04f 33ff 	mov.w	r3, #4294967295
 8000724:	2200      	movs	r2, #0
 8000726:	2102      	movs	r1, #2
 8000728:	f003 ffd8 	bl	80046dc <osEventFlagsWait>
 800072c:	f246 0311 	movw	r3, #24593	@ 0x6011
 8000730:	f8ad 3004 	strh.w	r3, [sp, #4]
 8000734:	4b0f      	ldr	r3, [pc, #60]	@ (8000774 <EEBL_Algorithm+0x5c>)
 8000736:	4810      	ldr	r0, [pc, #64]	@ (8000778 <EEBL_Algorithm+0x60>)
 8000738:	781b      	ldrb	r3, [r3, #0]
 800073a:	f88d 3006 	strb.w	r3, [sp, #6]
 800073e:	2201      	movs	r2, #1
 8000740:	f04f 33ff 	mov.w	r3, #4294967295
 8000744:	2100      	movs	r1, #0
 8000746:	f003 fc08 	bl	8003f5a <HAL_UART_Transmit>
 800074a:	f04f 31ff 	mov.w	r1, #4294967295
 800074e:	6820      	ldr	r0, [r4, #0]
 8000750:	f004 f823 	bl	800479a <osMutexAcquire>
 8000754:	f001 f9c2 	bl	8001adc <NRF24_stopListening>
 8000758:	2103      	movs	r1, #3
 800075a:	a801      	add	r0, sp, #4
 800075c:	f001 fb1a 	bl	8001d94 <NRF24_write>
 8000760:	f001 f99e 	bl	8001aa0 <NRF24_startListening>
 8000764:	6820      	ldr	r0, [r4, #0]
 8000766:	f004 f83b 	bl	80047e0 <osMutexRelease>
 800076a:	e7d7      	b.n	800071c <EEBL_Algorithm+0x4>
 800076c:	20000d14 	.word	0x20000d14
 8000770:	20000d18 	.word	0x20000d18
 8000774:	20000334 	.word	0x20000334
 8000778:	20000da0 	.word	0x20000da0

0800077c <SystemClock_Config>:
 800077c:	b510      	push	{r4, lr}
 800077e:	b094      	sub	sp, #80	@ 0x50
 8000780:	2210      	movs	r2, #16
 8000782:	2100      	movs	r1, #0
 8000784:	a80a      	add	r0, sp, #40	@ 0x28
 8000786:	f006 f969 	bl	8006a5c <memset>
 800078a:	2214      	movs	r2, #20
 800078c:	2100      	movs	r1, #0
 800078e:	a803      	add	r0, sp, #12
 8000790:	f006 f964 	bl	8006a5c <memset>
 8000794:	4b1f      	ldr	r3, [pc, #124]	@ (8000814 <SystemClock_Config+0x98>)
 8000796:	2100      	movs	r1, #0
 8000798:	9101      	str	r1, [sp, #4]
 800079a:	6c1a      	ldr	r2, [r3, #64]	@ 0x40
 800079c:	f042 5280 	orr.w	r2, r2, #268435456	@ 0x10000000
 80007a0:	641a      	str	r2, [r3, #64]	@ 0x40
 80007a2:	6c1b      	ldr	r3, [r3, #64]	@ 0x40
 80007a4:	f003 5380 	and.w	r3, r3, #268435456	@ 0x10000000
 80007a8:	9301      	str	r3, [sp, #4]
 80007aa:	9b01      	ldr	r3, [sp, #4]
 80007ac:	4b1a      	ldr	r3, [pc, #104]	@ (8000818 <SystemClock_Config+0x9c>)
 80007ae:	9102      	str	r1, [sp, #8]
 80007b0:	681a      	ldr	r2, [r3, #0]
 80007b2:	f442 4240 	orr.w	r2, r2, #49152	@ 0xc000
 80007b6:	601a      	str	r2, [r3, #0]
 80007b8:	681b      	ldr	r3, [r3, #0]
 80007ba:	f403 4340 	and.w	r3, r3, #49152	@ 0xc000
 80007be:	9302      	str	r3, [sp, #8]
 80007c0:	9b02      	ldr	r3, [sp, #8]
 80007c2:	2201      	movs	r2, #1
 80007c4:	f44f 3380 	mov.w	r3, #65536	@ 0x10000
 80007c8:	2402      	movs	r4, #2
 80007ca:	e9cd 2308 	strd	r2, r3, [sp, #32]
 80007ce:	f44f 0380 	mov.w	r3, #4194304	@ 0x400000
 80007d2:	e9cd 430e 	strd	r4, r3, [sp, #56]	@ 0x38
 80007d6:	2119      	movs	r1, #25
 80007d8:	2390      	movs	r3, #144	@ 0x90
 80007da:	e9cd 1310 	strd	r1, r3, [sp, #64]	@ 0x40
 80007de:	a808      	add	r0, sp, #32
 80007e0:	2304      	movs	r3, #4
 80007e2:	9412      	str	r4, [sp, #72]	@ 0x48
 80007e4:	9313      	str	r3, [sp, #76]	@ 0x4c
 80007e6:	f002 fa97 	bl	8002d18 <HAL_RCC_OscConfig>
 80007ea:	b108      	cbz	r0, 80007f0 <SystemClock_Config+0x74>
 80007ec:	b672      	cpsid	i
 80007ee:	e7fe      	b.n	80007ee <SystemClock_Config+0x72>
 80007f0:	230f      	movs	r3, #15
 80007f2:	e9cd 3403 	strd	r3, r4, [sp, #12]
 80007f6:	f44f 5380 	mov.w	r3, #4096	@ 0x1000
 80007fa:	e9cd 3006 	strd	r3, r0, [sp, #24]
 80007fe:	9005      	str	r0, [sp, #20]
 8000800:	4621      	mov	r1, r4
 8000802:	a803      	add	r0, sp, #12
 8000804:	f002 fc64 	bl	80030d0 <HAL_RCC_ClockConfig>
 8000808:	b108      	cbz	r0, 800080e <SystemClock_Config+0x92>
 800080a:	b672      	cpsid	i
 800080c:	e7fe      	b.n	800080c <SystemClock_Config+0x90>
 800080e:	b014      	add	sp, #80	@ 0x50
 8000810:	bd10      	pop	{r4, pc}
 8000812:	bf00      	nop
 8000814:	40023800 	.word	0x40023800
 8000818:	40007000 	.word	0x40007000

0800081c <main>:
 800081c:	b500      	push	{lr}
 800081e:	b08d      	sub	sp, #52	@ 0x34
 8000820:	2400      	movs	r4, #0
 8000822:	4d96      	ldr	r5, [pc, #600]	@ (8000a7c <main+0x260>)
 8000824:	f001 fc10 	bl	8002048 <HAL_Init>
 8000828:	f7ff ffa8 	bl	800077c <SystemClock_Config>
 800082c:	2214      	movs	r2, #20
 800082e:	2100      	movs	r1, #0
 8000830:	a807      	add	r0, sp, #28
 8000832:	f006 f913 	bl	8006a5c <memset>
 8000836:	9402      	str	r4, [sp, #8]
 8000838:	6b2b      	ldr	r3, [r5, #48]	@ 0x30
 800083a:	4891      	ldr	r0, [pc, #580]	@ (8000a80 <main+0x264>)
 800083c:	f043 0380 	orr.w	r3, r3, #128	@ 0x80
 8000840:	632b      	str	r3, [r5, #48]	@ 0x30
 8000842:	6b2b      	ldr	r3, [r5, #48]	@ 0x30
 8000844:	f003 0380 	and.w	r3, r3, #128	@ 0x80
 8000848:	9302      	str	r3, [sp, #8]
 800084a:	9b02      	ldr	r3, [sp, #8]
 800084c:	9403      	str	r4, [sp, #12]
 800084e:	6b2b      	ldr	r3, [r5, #48]	@ 0x30
 8000850:	f043 0301 	orr.w	r3, r3, #1
 8000854:	632b      	str	r3, [r5, #48]	@ 0x30
 8000856:	6b2b      	ldr	r3, [r5, #48]	@ 0x30
 8000858:	f003 0301 	and.w	r3, r3, #1
 800085c:	9303      	str	r3, [sp, #12]
 800085e:	9b03      	ldr	r3, [sp, #12]
 8000860:	9404      	str	r4, [sp, #16]
 8000862:	6b2b      	ldr	r3, [r5, #48]	@ 0x30
 8000864:	f043 0302 	orr.w	r3, r3, #2
 8000868:	632b      	str	r3, [r5, #48]	@ 0x30
 800086a:	6b2b      	ldr	r3, [r5, #48]	@ 0x30
 800086c:	f003 0302 	and.w	r3, r3, #2
 8000870:	4622      	mov	r2, r4
 8000872:	9304      	str	r3, [sp, #16]
 8000874:	2118      	movs	r1, #24
 8000876:	9b04      	ldr	r3, [sp, #16]
 8000878:	f001 ff1a 	bl	80026b0 <HAL_GPIO_WritePin>
 800087c:	f04f 0e04 	mov.w	lr, #4
 8000880:	f44f 1304 	mov.w	r3, #2162688	@ 0x210000
 8000884:	487e      	ldr	r0, [pc, #504]	@ (8000a80 <main+0x264>)
 8000886:	9409      	str	r4, [sp, #36]	@ 0x24
 8000888:	a907      	add	r1, sp, #28
 800088a:	e9cd e307 	strd	lr, r3, [sp, #28]
 800088e:	f001 fe49 	bl	8002524 <HAL_GPIO_Init>
 8000892:	2301      	movs	r3, #1
 8000894:	2218      	movs	r2, #24
 8000896:	487a      	ldr	r0, [pc, #488]	@ (8000a80 <main+0x264>)
 8000898:	a907      	add	r1, sp, #28
 800089a:	e9cd 2307 	strd	r2, r3, [sp, #28]
 800089e:	e9cd 4409 	strd	r4, r4, [sp, #36]	@ 0x24
 80008a2:	f001 fe3f 	bl	8002524 <HAL_GPIO_Init>
 80008a6:	4622      	mov	r2, r4
 80008a8:	2105      	movs	r1, #5
 80008aa:	2008      	movs	r0, #8
 80008ac:	f001 fc1e 	bl	80020ec <HAL_NVIC_SetPriority>
 80008b0:	2008      	movs	r0, #8
 80008b2:	f001 fc4d 	bl	8002150 <HAL_NVIC_EnableIRQ>
 80008b6:	9401      	str	r4, [sp, #4]
 80008b8:	6b2b      	ldr	r3, [r5, #48]	@ 0x30
 80008ba:	f443 0380 	orr.w	r3, r3, #4194304	@ 0x400000
 80008be:	632b      	str	r3, [r5, #48]	@ 0x30
 80008c0:	6b2b      	ldr	r3, [r5, #48]	@ 0x30
 80008c2:	f403 0380 	and.w	r3, r3, #4194304	@ 0x400000
 80008c6:	4622      	mov	r2, r4
 80008c8:	2105      	movs	r1, #5
 80008ca:	9301      	str	r3, [sp, #4]
 80008cc:	203a      	movs	r0, #58	@ 0x3a
 80008ce:	9b01      	ldr	r3, [sp, #4]
 80008d0:	f001 fc0c 	bl	80020ec <HAL_NVIC_SetPriority>
 80008d4:	203a      	movs	r0, #58	@ 0x3a
 80008d6:	f001 fc3b 	bl	8002150 <HAL_NVIC_EnableIRQ>
 80008da:	486a      	ldr	r0, [pc, #424]	@ (8000a84 <main+0x268>)
 80008dc:	496a      	ldr	r1, [pc, #424]	@ (8000a88 <main+0x26c>)
 80008de:	6284      	str	r4, [r0, #40]	@ 0x28
 80008e0:	f44f 7382 	mov.w	r3, #260	@ 0x104
 80008e4:	e9c0 1300 	strd	r1, r3, [r0]
 80008e8:	f44f 7500 	mov.w	r5, #512	@ 0x200
 80008ec:	2320      	movs	r3, #32
 80008ee:	e9c0 5306 	strd	r5, r3, [r0, #24]
 80008f2:	230a      	movs	r3, #10
 80008f4:	e9c0 4402 	strd	r4, r4, [r0, #8]
 80008f8:	e9c0 4404 	strd	r4, r4, [r0, #16]
 80008fc:	e9c0 4408 	strd	r4, r4, [r0, #32]
 8000900:	62c3      	str	r3, [r0, #44]	@ 0x2c
 8000902:	f002 fd83 	bl	800340c <HAL_SPI_Init>
 8000906:	4604      	mov	r4, r0
 8000908:	b108      	cbz	r0, 800090e <main+0xf2>
 800090a:	b672      	cpsid	i
 800090c:	e7fe      	b.n	800090c <main+0xf0>
 800090e:	4601      	mov	r1, r0
 8000910:	2214      	movs	r2, #20
 8000912:	a807      	add	r0, sp, #28
 8000914:	f006 f8a2 	bl	8006a5c <memset>
 8000918:	4d5c      	ldr	r5, [pc, #368]	@ (8000a8c <main+0x270>)
 800091a:	4b5d      	ldr	r3, [pc, #372]	@ (8000a90 <main+0x274>)
 800091c:	60ac      	str	r4, [r5, #8]
 800091e:	e9c5 3400 	strd	r3, r4, [r5]
 8000922:	4628      	mov	r0, r5
 8000924:	f64f 73ff 	movw	r3, #65535	@ 0xffff
 8000928:	e9cd 4405 	strd	r4, r4, [sp, #20]
 800092c:	e9c5 3403 	strd	r3, r4, [r5, #12]
 8000930:	61ac      	str	r4, [r5, #24]
 8000932:	f003 f935 	bl	8003ba0 <HAL_TIM_Base_Init>
 8000936:	b108      	cbz	r0, 800093c <main+0x120>
 8000938:	b672      	cpsid	i
 800093a:	e7fe      	b.n	800093a <main+0x11e>
 800093c:	e9cd 0007 	strd	r0, r0, [sp, #28]
 8000940:	a907      	add	r1, sp, #28
 8000942:	4628      	mov	r0, r5
 8000944:	f003 f9bd 	bl	8003cc2 <HAL_TIM_SlaveConfigSynchro>
 8000948:	b108      	cbz	r0, 800094e <main+0x132>
 800094a:	b672      	cpsid	i
 800094c:	e7fe      	b.n	800094c <main+0x130>
 800094e:	e9cd 0005 	strd	r0, r0, [sp, #20]
 8000952:	a905      	add	r1, sp, #20
 8000954:	4628      	mov	r0, r5
 8000956:	f003 f9db 	bl	8003d10 <HAL_TIMEx_MasterConfigSynchronization>
 800095a:	b108      	cbz	r0, 8000960 <main+0x144>
 800095c:	b672      	cpsid	i
 800095e:	e7fe      	b.n	800095e <main+0x142>
 8000960:	4d4c      	ldr	r5, [pc, #304]	@ (8000a94 <main+0x278>)
 8000962:	f8df c1c8 	ldr.w	ip, [pc, #456]	@ 8000b2c <main+0x310>
 8000966:	6128      	str	r0, [r5, #16]
 8000968:	f44f 33e1 	mov.w	r3, #115200	@ 0x1c200
 800096c:	e9c5 c300 	strd	ip, r3, [r5]
 8000970:	230c      	movs	r3, #12
 8000972:	e9c5 3005 	strd	r3, r0, [r5, #20]
 8000976:	e9c5 0002 	strd	r0, r0, [r5, #8]
 800097a:	61e8      	str	r0, [r5, #28]
 800097c:	4628      	mov	r0, r5
 800097e:	f003 fabd 	bl	8003efc <HAL_UART_Init>
 8000982:	4603      	mov	r3, r0
 8000984:	b108      	cbz	r0, 800098a <main+0x16e>
 8000986:	b672      	cpsid	i
 8000988:	e7fe      	b.n	8000988 <main+0x16c>
 800098a:	4843      	ldr	r0, [pc, #268]	@ (8000a98 <main+0x27c>)
 800098c:	4c43      	ldr	r4, [pc, #268]	@ (8000a9c <main+0x280>)
 800098e:	6083      	str	r3, [r0, #8]
 8000990:	2290      	movs	r2, #144	@ 0x90
 8000992:	e9c0 4200 	strd	r4, r2, [r0]
 8000996:	f24c 3250 	movw	r2, #50000	@ 0xc350
 800099a:	e9c0 2303 	strd	r2, r3, [r0, #12]
 800099e:	6183      	str	r3, [r0, #24]
 80009a0:	f003 f8fe 	bl	8003ba0 <HAL_TIM_Base_Init>
 80009a4:	4603      	mov	r3, r0
 80009a6:	b108      	cbz	r0, 80009ac <main+0x190>
 80009a8:	b672      	cpsid	i
 80009aa:	e7fe      	b.n	80009aa <main+0x18e>
 80009ac:	483c      	ldr	r0, [pc, #240]	@ (8000aa0 <main+0x284>)
 80009ae:	493d      	ldr	r1, [pc, #244]	@ (8000aa4 <main+0x288>)
 80009b0:	4a3d      	ldr	r2, [pc, #244]	@ (8000aa8 <main+0x28c>)
 80009b2:	6203      	str	r3, [r0, #32]
 80009b4:	e9c0 1200 	strd	r1, r2, [r0]
 80009b8:	f44f 4280 	mov.w	r2, #16384	@ 0x4000
 80009bc:	e9c0 3302 	strd	r3, r3, [r0, #8]
 80009c0:	e9c0 2304 	strd	r2, r3, [r0, #16]
 80009c4:	e9c0 3306 	strd	r3, r3, [r0, #24]
 80009c8:	f001 ff74 	bl	80028b4 <HAL_I2C_Init>
 80009cc:	4604      	mov	r4, r0
 80009ce:	b108      	cbz	r0, 80009d4 <main+0x1b8>
 80009d0:	b672      	cpsid	i
 80009d2:	e7fe      	b.n	80009d2 <main+0x1b6>
 80009d4:	4935      	ldr	r1, [pc, #212]	@ (8000aac <main+0x290>)
 80009d6:	f44f 62e1 	mov.w	r2, #1800	@ 0x708
 80009da:	4628      	mov	r0, r5
 80009dc:	f003 fd90 	bl	8004500 <HAL_UART_Receive_DMA>
 80009e0:	f003 fdac 	bl	800453c <osKernelInitialize>
 80009e4:	4832      	ldr	r0, [pc, #200]	@ (8000ab0 <main+0x294>)
 80009e6:	f003 fea3 	bl	8004730 <osMutexNew>
 80009ea:	4b32      	ldr	r3, [pc, #200]	@ (8000ab4 <main+0x298>)
 80009ec:	4a32      	ldr	r2, [pc, #200]	@ (8000ab8 <main+0x29c>)
 80009ee:	6018      	str	r0, [r3, #0]
 80009f0:	4621      	mov	r1, r4
 80009f2:	4832      	ldr	r0, [pc, #200]	@ (8000abc <main+0x2a0>)
 80009f4:	f003 fdce 	bl	8004594 <osThreadNew>
 80009f8:	4b31      	ldr	r3, [pc, #196]	@ (8000ac0 <main+0x2a4>)
 80009fa:	4a32      	ldr	r2, [pc, #200]	@ (8000ac4 <main+0x2a8>)
 80009fc:	6018      	str	r0, [r3, #0]
 80009fe:	4621      	mov	r1, r4
 8000a00:	4831      	ldr	r0, [pc, #196]	@ (8000ac8 <main+0x2ac>)
 8000a02:	f003 fdc7 	bl	8004594 <osThreadNew>
 8000a06:	4b31      	ldr	r3, [pc, #196]	@ (8000acc <main+0x2b0>)
 8000a08:	4a31      	ldr	r2, [pc, #196]	@ (8000ad0 <main+0x2b4>)
 8000a0a:	6018      	str	r0, [r3, #0]
 8000a0c:	4621      	mov	r1, r4
 8000a0e:	4831      	ldr	r0, [pc, #196]	@ (8000ad4 <main+0x2b8>)
 8000a10:	f003 fdc0 	bl	8004594 <osThreadNew>
 8000a14:	4b30      	ldr	r3, [pc, #192]	@ (8000ad8 <main+0x2bc>)
 8000a16:	4a31      	ldr	r2, [pc, #196]	@ (8000adc <main+0x2c0>)
 8000a18:	6018      	str	r0, [r3, #0]
 8000a1a:	4621      	mov	r1, r4
 8000a1c:	4830      	ldr	r0, [pc, #192]	@ (8000ae0 <main+0x2c4>)
 8000a1e:	f003 fdb9 	bl	8004594 <osThreadNew>
 8000a22:	4b30      	ldr	r3, [pc, #192]	@ (8000ae4 <main+0x2c8>)
 8000a24:	4a30      	ldr	r2, [pc, #192]	@ (8000ae8 <main+0x2cc>)
 8000a26:	6018      	str	r0, [r3, #0]
 8000a28:	4621      	mov	r1, r4
 8000a2a:	4830      	ldr	r0, [pc, #192]	@ (8000aec <main+0x2d0>)
 8000a2c:	f003 fdb2 	bl	8004594 <osThreadNew>
 8000a30:	4b2f      	ldr	r3, [pc, #188]	@ (8000af0 <main+0x2d4>)
 8000a32:	4a30      	ldr	r2, [pc, #192]	@ (8000af4 <main+0x2d8>)
 8000a34:	6018      	str	r0, [r3, #0]
 8000a36:	4621      	mov	r1, r4
 8000a38:	482f      	ldr	r0, [pc, #188]	@ (8000af8 <main+0x2dc>)
 8000a3a:	f003 fdab 	bl	8004594 <osThreadNew>
 8000a3e:	4b2f      	ldr	r3, [pc, #188]	@ (8000afc <main+0x2e0>)
 8000a40:	4a2f      	ldr	r2, [pc, #188]	@ (8000b00 <main+0x2e4>)
 8000a42:	6018      	str	r0, [r3, #0]
 8000a44:	4621      	mov	r1, r4
 8000a46:	482f      	ldr	r0, [pc, #188]	@ (8000b04 <main+0x2e8>)
 8000a48:	f003 fda4 	bl	8004594 <osThreadNew>
 8000a4c:	4b2e      	ldr	r3, [pc, #184]	@ (8000b08 <main+0x2ec>)
 8000a4e:	4a2f      	ldr	r2, [pc, #188]	@ (8000b0c <main+0x2f0>)
 8000a50:	6018      	str	r0, [r3, #0]
 8000a52:	4621      	mov	r1, r4
 8000a54:	482e      	ldr	r0, [pc, #184]	@ (8000b10 <main+0x2f4>)
 8000a56:	f003 fd9d 	bl	8004594 <osThreadNew>
 8000a5a:	4b2e      	ldr	r3, [pc, #184]	@ (8000b14 <main+0x2f8>)
 8000a5c:	4a2e      	ldr	r2, [pc, #184]	@ (8000b18 <main+0x2fc>)
 8000a5e:	6018      	str	r0, [r3, #0]
 8000a60:	4621      	mov	r1, r4
 8000a62:	482e      	ldr	r0, [pc, #184]	@ (8000b1c <main+0x300>)
 8000a64:	f003 fd96 	bl	8004594 <osThreadNew>
 8000a68:	4b2d      	ldr	r3, [pc, #180]	@ (8000b20 <main+0x304>)
 8000a6a:	6018      	str	r0, [r3, #0]
 8000a6c:	482d      	ldr	r0, [pc, #180]	@ (8000b24 <main+0x308>)
 8000a6e:	f003 fdfc 	bl	800466a <osEventFlagsNew>
 8000a72:	4b2d      	ldr	r3, [pc, #180]	@ (8000b28 <main+0x30c>)
 8000a74:	6018      	str	r0, [r3, #0]
 8000a76:	f003 fd73 	bl	8004560 <osKernelStart>
 8000a7a:	e7fe      	b.n	8000a7a <main+0x25e>
 8000a7c:	40023800 	.word	0x40023800
 8000a80:	40020000 	.word	0x40020000
 8000a84:	20000e78 	.word	0x20000e78
 8000a88:	40013000 	.word	0x40013000
 8000a8c:	20000e30 	.word	0x20000e30
 8000a90:	40000400 	.word	0x40000400
 8000a94:	20000da0 	.word	0x20000da0
 8000a98:	20000de8 	.word	0x20000de8
 8000a9c:	40014400 	.word	0x40014400
 8000aa0:	20000ed0 	.word	0x20000ed0
 8000aa4:	40005400 	.word	0x40005400
 8000aa8:	00061a80 	.word	0x00061a80
 8000aac:	2000060c 	.word	0x2000060c
 8000ab0:	08007368 	.word	0x08007368
 8000ab4:	20000d18 	.word	0x20000d18
 8000ab8:	08007498 	.word	0x08007498
 8000abc:	080004d9 	.word	0x080004d9
 8000ac0:	20000d3c 	.word	0x20000d3c
 8000ac4:	08007474 	.word	0x08007474
 8000ac8:	08000b9d 	.word	0x08000b9d
 8000acc:	20000d38 	.word	0x20000d38
 8000ad0:	08007450 	.word	0x08007450
 8000ad4:	0800064d 	.word	0x0800064d
 8000ad8:	20000d34 	.word	0x20000d34
 8000adc:	0800742c 	.word	0x0800742c
 8000ae0:	080006c1 	.word	0x080006c1
 8000ae4:	20000d30 	.word	0x20000d30
 8000ae8:	08007408 	.word	0x08007408
 8000aec:	08000ced 	.word	0x08000ced
 8000af0:	20000d2c 	.word	0x20000d2c
 8000af4:	080073e4 	.word	0x080073e4
 8000af8:	08000561 	.word	0x08000561
 8000afc:	20000d28 	.word	0x20000d28
 8000b00:	080073c0 	.word	0x080073c0
 8000b04:	08000e85 	.word	0x08000e85
 8000b08:	20000d24 	.word	0x20000d24
 8000b0c:	0800739c 	.word	0x0800739c
 8000b10:	08000c51 	.word	0x08000c51
 8000b14:	20000d20 	.word	0x20000d20
 8000b18:	08007378 	.word	0x08007378
 8000b1c:	08000719 	.word	0x08000719
 8000b20:	20000d1c 	.word	0x20000d1c
 8000b24:	08007358 	.word	0x08007358
 8000b28:	20000d14 	.word	0x20000d14
 8000b2c:	40011000 	.word	0x40011000

08000b30 <HAL_GPIO_EXTI_Callback>:
 8000b30:	4770      	bx	lr
	...

08000b34 <HAL_UART_RxCpltCallback>:
 8000b34:	4b02      	ldr	r3, [pc, #8]	@ (8000b40 <HAL_UART_RxCpltCallback+0xc>)
 8000b36:	2101      	movs	r1, #1
 8000b38:	6818      	ldr	r0, [r3, #0]
 8000b3a:	f003 bda6 	b.w	800468a <osEventFlagsSet>
 8000b3e:	bf00      	nop
 8000b40:	20000d14 	.word	0x20000d14

08000b44 <_CalcAvgDistance>:
 8000b44:	b5f0      	push	{r4, r5, r6, r7, lr}
 8000b46:	4e14      	ldr	r6, [pc, #80]	@ (8000b98 <_CalcAvgDistance+0x54>)
 8000b48:	2503      	movs	r5, #3
 8000b4a:	f44f 77b4 	mov.w	r7, #360	@ 0x168
 8000b4e:	f240 1c6b 	movw	ip, #363	@ 0x16b
 8000b52:	1fab      	subs	r3, r5, #6
 8000b54:	2100      	movs	r1, #0
 8000b56:	b21b      	sxth	r3, r3
 8000b58:	460a      	mov	r2, r1
 8000b5a:	429d      	cmp	r5, r3
 8000b5c:	da0a      	bge.n	8000b74 <_CalcAvgDistance+0x30>
 8000b5e:	352d      	adds	r5, #45	@ 0x2d
 8000b60:	4565      	cmp	r5, ip
 8000b62:	f1c2 0207 	rsb	r2, r2, #7
 8000b66:	fbb1 f1f2 	udiv	r1, r1, r2
 8000b6a:	f826 1b02 	strh.w	r1, [r6], #2
 8000b6e:	d1f0      	bne.n	8000b52 <_CalcAvgDistance+0xe>
 8000b70:	4809      	ldr	r0, [pc, #36]	@ (8000b98 <_CalcAvgDistance+0x54>)
 8000b72:	bdf0      	pop	{r4, r5, r6, r7, pc}
 8000b74:	f503 74b4 	add.w	r4, r3, #360	@ 0x168
 8000b78:	fb94 fef7 	sdiv	lr, r4, r7
 8000b7c:	fb07 441e 	mls	r4, r7, lr, r4
 8000b80:	b2a4      	uxth	r4, r4
 8000b82:	f830 4014 	ldrh.w	r4, [r0, r4, lsl #1]
 8000b86:	b924      	cbnz	r4, 8000b92 <_CalcAvgDistance+0x4e>
 8000b88:	3201      	adds	r2, #1
 8000b8a:	b2d2      	uxtb	r2, r2
 8000b8c:	3301      	adds	r3, #1
 8000b8e:	b21b      	sxth	r3, r3
 8000b90:	e7e3      	b.n	8000b5a <_CalcAvgDistance+0x16>
 8000b92:	4421      	add	r1, r4
 8000b94:	e7fa      	b.n	8000b8c <_CalcAvgDistance+0x48>
 8000b96:	bf00      	nop
 8000b98:	20000324 	.word	0x20000324

08000b9c <Distance_Calc>:
 8000b9c:	e92d 41f0 	stmdb	sp!, {r4, r5, r6, r7, r8, lr}
 8000ba0:	4e10      	ldr	r6, [pc, #64]	@ (8000be4 <Distance_Calc+0x48>)
 8000ba2:	f8df 8048 	ldr.w	r8, [pc, #72]	@ 8000bec <Distance_Calc+0x50>
 8000ba6:	6830      	ldr	r0, [r6, #0]
 8000ba8:	4d0f      	ldr	r5, [pc, #60]	@ (8000be8 <Distance_Calc+0x4c>)
 8000baa:	4f10      	ldr	r7, [pc, #64]	@ (8000bec <Distance_Calc+0x50>)
 8000bac:	f04f 33ff 	mov.w	r3, #4294967295
 8000bb0:	2200      	movs	r2, #0
 8000bb2:	2101      	movs	r1, #1
 8000bb4:	f003 fd92 	bl	80046dc <osEventFlagsWait>
 8000bb8:	2400      	movs	r4, #0
 8000bba:	4628      	mov	r0, r5
 8000bbc:	f005 fec6 	bl	800694c <atoi>
 8000bc0:	3401      	adds	r4, #1
 8000bc2:	f5b4 7fb4 	cmp.w	r4, #360	@ 0x168
 8000bc6:	f827 0b02 	strh.w	r0, [r7], #2
 8000bca:	f105 0505 	add.w	r5, r5, #5
 8000bce:	d1f4      	bne.n	8000bba <Distance_Calc+0x1e>
 8000bd0:	4640      	mov	r0, r8
 8000bd2:	f7ff ffb7 	bl	8000b44 <_CalcAvgDistance>
 8000bd6:	4b06      	ldr	r3, [pc, #24]	@ (8000bf0 <Distance_Calc+0x54>)
 8000bd8:	2104      	movs	r1, #4
 8000bda:	6018      	str	r0, [r3, #0]
 8000bdc:	6830      	ldr	r0, [r6, #0]
 8000bde:	f003 fd54 	bl	800468a <osEventFlagsSet>
 8000be2:	e7e0      	b.n	8000ba6 <Distance_Calc+0xa>
 8000be4:	20000d14 	.word	0x20000d14
 8000be8:	2000060c 	.word	0x2000060c
 8000bec:	2000033c 	.word	0x2000033c
 8000bf0:	20000338 	.word	0x20000338

08000bf4 <_vSSD1306_ForwardCollisionWarning>:
 8000bf4:	b537      	push	{r0, r1, r2, r4, r5, lr}
 8000bf6:	2401      	movs	r4, #1
 8000bf8:	2100      	movs	r1, #0
 8000bfa:	2340      	movs	r3, #64	@ 0x40
 8000bfc:	2280      	movs	r2, #128	@ 0x80
 8000bfe:	4608      	mov	r0, r1
 8000c00:	9400      	str	r4, [sp, #0]
 8000c02:	f000 fb3f 	bl	8001284 <SSD1306_DrawRectangle>
 8000c06:	4d0e      	ldr	r5, [pc, #56]	@ (8000c40 <_vSSD1306_ForwardCollisionWarning+0x4c>)
 8000c08:	2104      	movs	r1, #4
 8000c0a:	4608      	mov	r0, r1
 8000c0c:	f000 fa48 	bl	80010a0 <SSD1306_GotoXY>
 8000c10:	4622      	mov	r2, r4
 8000c12:	4629      	mov	r1, r5
 8000c14:	480b      	ldr	r0, [pc, #44]	@ (8000c44 <_vSSD1306_ForwardCollisionWarning+0x50>)
 8000c16:	f000 fa97 	bl	8001148 <SSD1306_Puts>
 8000c1a:	210f      	movs	r1, #15
 8000c1c:	2027      	movs	r0, #39	@ 0x27
 8000c1e:	f000 fa3f 	bl	80010a0 <SSD1306_GotoXY>
 8000c22:	4622      	mov	r2, r4
 8000c24:	4629      	mov	r1, r5
 8000c26:	4808      	ldr	r0, [pc, #32]	@ (8000c48 <_vSSD1306_ForwardCollisionWarning+0x54>)
 8000c28:	f000 fa8e 	bl	8001148 <SSD1306_Puts>
 8000c2c:	2323      	movs	r3, #35	@ 0x23
 8000c2e:	4a07      	ldr	r2, [pc, #28]	@ (8000c4c <_vSSD1306_ForwardCollisionWarning+0x58>)
 8000c30:	9401      	str	r4, [sp, #4]
 8000c32:	9300      	str	r3, [sp, #0]
 8000c34:	211a      	movs	r1, #26
 8000c36:	202e      	movs	r0, #46	@ 0x2e
 8000c38:	f000 f9ee 	bl	8001018 <SSD1306_DrawBitmap>
 8000c3c:	b003      	add	sp, #12
 8000c3e:	bd30      	pop	{r4, r5, pc}
 8000c40:	20000000 	.word	0x20000000
 8000c44:	08007260 	.word	0x08007260
 8000c48:	08007272 	.word	0x08007272
 8000c4c:	200001ca 	.word	0x200001ca

08000c50 <FCW_Algorithm>:
 8000c50:	b508      	push	{r3, lr}
 8000c52:	4c06      	ldr	r4, [pc, #24]	@ (8000c6c <FCW_Algorithm+0x1c>)
 8000c54:	6820      	ldr	r0, [r4, #0]
 8000c56:	f04f 33ff 	mov.w	r3, #4294967295
 8000c5a:	2200      	movs	r2, #0
 8000c5c:	2103      	movs	r1, #3
 8000c5e:	f003 fd3d 	bl	80046dc <osEventFlagsWait>
 8000c62:	f7ff ffc7 	bl	8000bf4 <_vSSD1306_ForwardCollisionWarning>
 8000c66:	f000 fb7f 	bl	8001368 <SSD1306_UpdateScreen>
 8000c6a:	e7f3      	b.n	8000c54 <FCW_Algorithm+0x4>
 8000c6c:	20000d14 	.word	0x20000d14

08000c70 <_vSSD1306_BlindSpotWarning>:
 8000c70:	b537      	push	{r0, r1, r2, r4, r5, lr}
 8000c72:	2100      	movs	r1, #0
 8000c74:	2401      	movs	r4, #1
 8000c76:	2340      	movs	r3, #64	@ 0x40
 8000c78:	2280      	movs	r2, #128	@ 0x80
 8000c7a:	4605      	mov	r5, r0
 8000c7c:	9400      	str	r4, [sp, #0]
 8000c7e:	4608      	mov	r0, r1
 8000c80:	f000 fb00 	bl	8001284 <SSD1306_DrawRectangle>
 8000c84:	2104      	movs	r1, #4
 8000c86:	201d      	movs	r0, #29
 8000c88:	f000 fa0a 	bl	80010a0 <SSD1306_GotoXY>
 8000c8c:	4912      	ldr	r1, [pc, #72]	@ (8000cd8 <_vSSD1306_BlindSpotWarning+0x68>)
 8000c8e:	4813      	ldr	r0, [pc, #76]	@ (8000cdc <_vSSD1306_BlindSpotWarning+0x6c>)
 8000c90:	4622      	mov	r2, r4
 8000c92:	f000 fa59 	bl	8001148 <SSD1306_Puts>
 8000c96:	2d77      	cmp	r5, #119	@ 0x77
 8000c98:	d113      	bne.n	8000cc2 <_vSSD1306_BlindSpotWarning+0x52>
 8000c9a:	210f      	movs	r1, #15
 8000c9c:	2008      	movs	r0, #8
 8000c9e:	f000 f9ff 	bl	80010a0 <SSD1306_GotoXY>
 8000ca2:	490d      	ldr	r1, [pc, #52]	@ (8000cd8 <_vSSD1306_BlindSpotWarning+0x68>)
 8000ca4:	480e      	ldr	r0, [pc, #56]	@ (8000ce0 <_vSSD1306_BlindSpotWarning+0x70>)
 8000ca6:	4622      	mov	r2, r4
 8000ca8:	f000 fa4e 	bl	8001148 <SSD1306_Puts>
 8000cac:	2323      	movs	r3, #35	@ 0x23
 8000cae:	2201      	movs	r2, #1
 8000cb0:	e9cd 3200 	strd	r3, r2, [sp]
 8000cb4:	211a      	movs	r1, #26
 8000cb6:	4a0b      	ldr	r2, [pc, #44]	@ (8000ce4 <_vSSD1306_BlindSpotWarning+0x74>)
 8000cb8:	202e      	movs	r0, #46	@ 0x2e
 8000cba:	f000 f9ad 	bl	8001018 <SSD1306_DrawBitmap>
 8000cbe:	b003      	add	sp, #12
 8000cc0:	bd30      	pop	{r4, r5, pc}
 8000cc2:	2d88      	cmp	r5, #136	@ 0x88
 8000cc4:	d1f2      	bne.n	8000cac <_vSSD1306_BlindSpotWarning+0x3c>
 8000cc6:	210f      	movs	r1, #15
 8000cc8:	200b      	movs	r0, #11
 8000cca:	f000 f9e9 	bl	80010a0 <SSD1306_GotoXY>
 8000cce:	4902      	ldr	r1, [pc, #8]	@ (8000cd8 <_vSSD1306_BlindSpotWarning+0x68>)
 8000cd0:	4805      	ldr	r0, [pc, #20]	@ (8000ce8 <_vSSD1306_BlindSpotWarning+0x78>)
 8000cd2:	4622      	mov	r2, r4
 8000cd4:	e7e8      	b.n	8000ca8 <_vSSD1306_BlindSpotWarning+0x38>
 8000cd6:	bf00      	nop
 8000cd8:	20000000 	.word	0x20000000
 8000cdc:	0800727a 	.word	0x0800727a
 8000ce0:	08007285 	.word	0x08007285
 8000ce4:	2000011b 	.word	0x2000011b
 8000ce8:	08007296 	.word	0x08007296

08000cec <BSW_Algorithm>:
 8000cec:	e92d 43f8 	stmdb	sp!, {r3, r4, r5, r6, r7, r8, r9, lr}
 8000cf0:	2400      	movs	r4, #0
 8000cf2:	4e25      	ldr	r6, [pc, #148]	@ (8000d88 <BSW_Algorithm+0x9c>)
 8000cf4:	4f25      	ldr	r7, [pc, #148]	@ (8000d8c <BSW_Algorithm+0xa0>)
 8000cf6:	4625      	mov	r5, r4
 8000cf8:	f04f 33ff 	mov.w	r3, #4294967295
 8000cfc:	2101      	movs	r1, #1
 8000cfe:	6830      	ldr	r0, [r6, #0]
 8000d00:	2200      	movs	r2, #0
 8000d02:	f003 fceb 	bl	80046dc <osEventFlagsWait>
 8000d06:	4922      	ldr	r1, [pc, #136]	@ (8000d90 <BSW_Algorithm+0xa4>)
 8000d08:	232e      	movs	r3, #46	@ 0x2e
 8000d0a:	f831 2d02 	ldrh.w	r2, [r1, #-2]!
 8000d0e:	3a01      	subs	r2, #1
 8000d10:	b292      	uxth	r2, r2
 8000d12:	f5b2 7f2f 	cmp.w	r2, #700	@ 0x2bc
 8000d16:	d327      	bcc.n	8000d68 <BSW_Algorithm+0x7c>
 8000d18:	3b01      	subs	r3, #1
 8000d1a:	f013 03ff 	ands.w	r3, r3, #255	@ 0xff
 8000d1e:	d1f4      	bne.n	8000d0a <BSW_Algorithm+0x1e>
 8000d20:	46a8      	mov	r8, r5
 8000d22:	22e1      	movs	r2, #225	@ 0xe1
 8000d24:	f240 110f 	movw	r1, #271	@ 0x10f
 8000d28:	f837 3012 	ldrh.w	r3, [r7, r2, lsl #1]
 8000d2c:	3b01      	subs	r3, #1
 8000d2e:	b29b      	uxth	r3, r3
 8000d30:	f5b3 7f2f 	cmp.w	r3, #700	@ 0x2bc
 8000d34:	d31b      	bcc.n	8000d6e <BSW_Algorithm+0x82>
 8000d36:	3201      	adds	r2, #1
 8000d38:	428a      	cmp	r2, r1
 8000d3a:	d1f5      	bne.n	8000d28 <BSW_Algorithm+0x3c>
 8000d3c:	46a1      	mov	r9, r4
 8000d3e:	f1b8 0f00 	cmp.w	r8, #0
 8000d42:	d017      	beq.n	8000d74 <BSW_Algorithm+0x88>
 8000d44:	b925      	cbnz	r5, 8000d50 <BSW_Algorithm+0x64>
 8000d46:	2088      	movs	r0, #136	@ 0x88
 8000d48:	f7ff ff92 	bl	8000c70 <_vSSD1306_BlindSpotWarning>
 8000d4c:	f000 fb0c 	bl	8001368 <SSD1306_UpdateScreen>
 8000d50:	f1b9 0f00 	cmp.w	r9, #0
 8000d54:	d013      	beq.n	8000d7e <BSW_Algorithm+0x92>
 8000d56:	b924      	cbnz	r4, 8000d62 <BSW_Algorithm+0x76>
 8000d58:	2077      	movs	r0, #119	@ 0x77
 8000d5a:	f7ff ff89 	bl	8000c70 <_vSSD1306_BlindSpotWarning>
 8000d5e:	f000 fb03 	bl	8001368 <SSD1306_UpdateScreen>
 8000d62:	464c      	mov	r4, r9
 8000d64:	4645      	mov	r5, r8
 8000d66:	e7c7      	b.n	8000cf8 <BSW_Algorithm+0xc>
 8000d68:	f04f 0801 	mov.w	r8, #1
 8000d6c:	e7d9      	b.n	8000d22 <BSW_Algorithm+0x36>
 8000d6e:	f04f 0901 	mov.w	r9, #1
 8000d72:	e7e4      	b.n	8000d3e <BSW_Algorithm+0x52>
 8000d74:	2d00      	cmp	r5, #0
 8000d76:	d0eb      	beq.n	8000d50 <BSW_Algorithm+0x64>
 8000d78:	f000 fb18 	bl	80013ac <SSD1306_Clear>
 8000d7c:	e7e8      	b.n	8000d50 <BSW_Algorithm+0x64>
 8000d7e:	2c00      	cmp	r4, #0
 8000d80:	d0ef      	beq.n	8000d62 <BSW_Algorithm+0x76>
 8000d82:	f000 fb13 	bl	80013ac <SSD1306_Clear>
 8000d86:	e7ec      	b.n	8000d62 <BSW_Algorithm+0x76>
 8000d88:	20000d14 	.word	0x20000d14
 8000d8c:	2000033c 	.word	0x2000033c
 8000d90:	2000044c 	.word	0x2000044c

08000d94 <_vSSD1306_EmergencyElectronicBrake>:
 8000d94:	b537      	push	{r0, r1, r2, r4, r5, lr}
 8000d96:	2401      	movs	r4, #1
 8000d98:	2100      	movs	r1, #0
 8000d9a:	2340      	movs	r3, #64	@ 0x40
 8000d9c:	4d15      	ldr	r5, [pc, #84]	@ (8000df4 <_vSSD1306_EmergencyElectronicBrake+0x60>)
 8000d9e:	9400      	str	r4, [sp, #0]
 8000da0:	2280      	movs	r2, #128	@ 0x80
 8000da2:	4608      	mov	r0, r1
 8000da4:	f000 fa6e 	bl	8001284 <SSD1306_DrawRectangle>
 8000da8:	2104      	movs	r1, #4
 8000daa:	2024      	movs	r0, #36	@ 0x24
 8000dac:	f000 f978 	bl	80010a0 <SSD1306_GotoXY>
 8000db0:	4622      	mov	r2, r4
 8000db2:	4629      	mov	r1, r5
 8000db4:	4810      	ldr	r0, [pc, #64]	@ (8000df8 <_vSSD1306_EmergencyElectronicBrake+0x64>)
 8000db6:	f000 f9c7 	bl	8001148 <SSD1306_Puts>
 8000dba:	210f      	movs	r1, #15
 8000dbc:	2012      	movs	r0, #18
 8000dbe:	f000 f96f 	bl	80010a0 <SSD1306_GotoXY>
 8000dc2:	4622      	mov	r2, r4
 8000dc4:	4629      	mov	r1, r5
 8000dc6:	480d      	ldr	r0, [pc, #52]	@ (8000dfc <_vSSD1306_EmergencyElectronicBrake+0x68>)
 8000dc8:	f000 f9be 	bl	8001148 <SSD1306_Puts>
 8000dcc:	211a      	movs	r1, #26
 8000dce:	2016      	movs	r0, #22
 8000dd0:	f000 f966 	bl	80010a0 <SSD1306_GotoXY>
 8000dd4:	4622      	mov	r2, r4
 8000dd6:	4629      	mov	r1, r5
 8000dd8:	4809      	ldr	r0, [pc, #36]	@ (8000e00 <_vSSD1306_EmergencyElectronicBrake+0x6c>)
 8000dda:	f000 f9b5 	bl	8001148 <SSD1306_Puts>
 8000dde:	2319      	movs	r3, #25
 8000de0:	4a08      	ldr	r2, [pc, #32]	@ (8000e04 <_vSSD1306_EmergencyElectronicBrake+0x70>)
 8000de2:	9401      	str	r4, [sp, #4]
 8000de4:	9300      	str	r3, [sp, #0]
 8000de6:	2125      	movs	r1, #37	@ 0x25
 8000de8:	2033      	movs	r0, #51	@ 0x33
 8000dea:	f000 f915 	bl	8001018 <SSD1306_DrawBitmap>
 8000dee:	b003      	add	sp, #12
 8000df0:	bd30      	pop	{r4, r5, pc}
 8000df2:	bf00      	nop
 8000df4:	20000000 	.word	0x20000000
 8000df8:	080072a6 	.word	0x080072a6
 8000dfc:	080072af 	.word	0x080072af
 8000e00:	080072bd 	.word	0x080072bd
 8000e04:	200000b7 	.word	0x200000b7

08000e08 <_vSSD1306_DontPassWarning>:
 8000e08:	b537      	push	{r0, r1, r2, r4, r5, lr}
 8000e0a:	2100      	movs	r1, #0
 8000e0c:	2401      	movs	r4, #1
 8000e0e:	2340      	movs	r3, #64	@ 0x40
 8000e10:	2280      	movs	r2, #128	@ 0x80
 8000e12:	4605      	mov	r5, r0
 8000e14:	9400      	str	r4, [sp, #0]
 8000e16:	4608      	mov	r0, r1
 8000e18:	f000 fa34 	bl	8001284 <SSD1306_DrawRectangle>
 8000e1c:	2104      	movs	r1, #4
 8000e1e:	200b      	movs	r0, #11
 8000e20:	f000 f93e 	bl	80010a0 <SSD1306_GotoXY>
 8000e24:	4912      	ldr	r1, [pc, #72]	@ (8000e70 <_vSSD1306_DontPassWarning+0x68>)
 8000e26:	4813      	ldr	r0, [pc, #76]	@ (8000e74 <_vSSD1306_DontPassWarning+0x6c>)
 8000e28:	4622      	mov	r2, r4
 8000e2a:	f000 f98d 	bl	8001148 <SSD1306_Puts>
 8000e2e:	2daa      	cmp	r5, #170	@ 0xaa
 8000e30:	d113      	bne.n	8000e5a <_vSSD1306_DontPassWarning+0x52>
 8000e32:	210f      	movs	r1, #15
 8000e34:	202e      	movs	r0, #46	@ 0x2e
 8000e36:	f000 f933 	bl	80010a0 <SSD1306_GotoXY>
 8000e3a:	490d      	ldr	r1, [pc, #52]	@ (8000e70 <_vSSD1306_DontPassWarning+0x68>)
 8000e3c:	480e      	ldr	r0, [pc, #56]	@ (8000e78 <_vSSD1306_DontPassWarning+0x70>)
 8000e3e:	4622      	mov	r2, r4
 8000e40:	f000 f982 	bl	8001148 <SSD1306_Puts>
 8000e44:	2323      	movs	r3, #35	@ 0x23
 8000e46:	2201      	movs	r2, #1
 8000e48:	e9cd 3200 	strd	r3, r2, [sp]
 8000e4c:	211a      	movs	r1, #26
 8000e4e:	4a0b      	ldr	r2, [pc, #44]	@ (8000e7c <_vSSD1306_DontPassWarning+0x74>)
 8000e50:	202e      	movs	r0, #46	@ 0x2e
 8000e52:	f000 f8e1 	bl	8001018 <SSD1306_DrawBitmap>
 8000e56:	b003      	add	sp, #12
 8000e58:	bd30      	pop	{r4, r5, pc}
 8000e5a:	2dbb      	cmp	r5, #187	@ 0xbb
 8000e5c:	d1f2      	bne.n	8000e44 <_vSSD1306_DontPassWarning+0x3c>
 8000e5e:	210f      	movs	r1, #15
 8000e60:	2032      	movs	r0, #50	@ 0x32
 8000e62:	f000 f91d 	bl	80010a0 <SSD1306_GotoXY>
 8000e66:	4902      	ldr	r1, [pc, #8]	@ (8000e70 <_vSSD1306_DontPassWarning+0x68>)
 8000e68:	4805      	ldr	r0, [pc, #20]	@ (8000e80 <_vSSD1306_DontPassWarning+0x78>)
 8000e6a:	4622      	mov	r2, r4
 8000e6c:	e7e8      	b.n	8000e40 <_vSSD1306_DontPassWarning+0x38>
 8000e6e:	bf00      	nop
 8000e70:	20000000 	.word	0x20000000
 8000e74:	080072ca 	.word	0x080072ca
 8000e78:	08007290 	.word	0x08007290
 8000e7c:	20000008 	.word	0x20000008
 8000e80:	080072a1 	.word	0x080072a1

08000e84 <Wireless_Receiving>:
 8000e84:	b570      	push	{r4, r5, r6, lr}
 8000e86:	4d42      	ldr	r5, [pc, #264]	@ (8000f90 <Wireless_Receiving+0x10c>)
 8000e88:	4c42      	ldr	r4, [pc, #264]	@ (8000f94 <Wireless_Receiving+0x110>)
 8000e8a:	4e43      	ldr	r6, [pc, #268]	@ (8000f98 <Wireless_Receiving+0x114>)
 8000e8c:	b088      	sub	sp, #32
 8000e8e:	f000 ff30 	bl	8001cf2 <NRF24_available>
 8000e92:	b1d0      	cbz	r0, 8000eca <Wireless_Receiving+0x46>
 8000e94:	221c      	movs	r2, #28
 8000e96:	2100      	movs	r1, #0
 8000e98:	a801      	add	r0, sp, #4
 8000e9a:	9100      	str	r1, [sp, #0]
 8000e9c:	f005 fdde 	bl	8006a5c <memset>
 8000ea0:	f04f 31ff 	mov.w	r1, #4294967295
 8000ea4:	6828      	ldr	r0, [r5, #0]
 8000ea6:	f003 fc78 	bl	800479a <osMutexAcquire>
 8000eaa:	2120      	movs	r1, #32
 8000eac:	4668      	mov	r0, sp
 8000eae:	f000 fe80 	bl	8001bb2 <NRF24_read>
 8000eb2:	6828      	ldr	r0, [r5, #0]
 8000eb4:	f003 fc94 	bl	80047e0 <osMutexRelease>
 8000eb8:	f89d 3001 	ldrb.w	r3, [sp, #1]
 8000ebc:	2b57      	cmp	r3, #87	@ 0x57
 8000ebe:	d04c      	beq.n	8000f5a <Wireless_Receiving+0xd6>
 8000ec0:	d807      	bhi.n	8000ed2 <Wireless_Receiving+0x4e>
 8000ec2:	2b01      	cmp	r3, #1
 8000ec4:	d015      	beq.n	8000ef2 <Wireless_Receiving+0x6e>
 8000ec6:	2b56      	cmp	r3, #86	@ 0x56
 8000ec8:	d054      	beq.n	8000f74 <Wireless_Receiving+0xf0>
 8000eca:	2001      	movs	r0, #1
 8000ecc:	f003 fbc1 	bl	8004652 <osDelay>
 8000ed0:	e7dd      	b.n	8000e8e <Wireless_Receiving+0xa>
 8000ed2:	2b60      	cmp	r3, #96	@ 0x60
 8000ed4:	d1f9      	bne.n	8000eca <Wireless_Receiving+0x46>
 8000ed6:	f89d 3002 	ldrb.w	r3, [sp, #2]
 8000eda:	2b11      	cmp	r3, #17
 8000edc:	d1f5      	bne.n	8000eca <Wireless_Receiving+0x46>
 8000ede:	f89d 2000 	ldrb.w	r2, [sp]
 8000ee2:	7823      	ldrb	r3, [r4, #0]
 8000ee4:	429a      	cmp	r2, r3
 8000ee6:	d1f0      	bne.n	8000eca <Wireless_Receiving+0x46>
 8000ee8:	f7ff ff54 	bl	8000d94 <_vSSD1306_EmergencyElectronicBrake>
 8000eec:	f000 fa3c 	bl	8001368 <SSD1306_UpdateScreen>
 8000ef0:	e7eb      	b.n	8000eca <Wireless_Receiving+0x46>
 8000ef2:	6832      	ldr	r2, [r6, #0]
 8000ef4:	f89d 0004 	ldrb.w	r0, [sp, #4]
 8000ef8:	8991      	ldrh	r1, [r2, #12]
 8000efa:	f5a1 71fa 	sub.w	r1, r1, #500	@ 0x1f4
 8000efe:	4288      	cmp	r0, r1
 8000f00:	da08      	bge.n	8000f14 <Wireless_Receiving+0x90>
 8000f02:	8951      	ldrh	r1, [r2, #10]
 8000f04:	f89d 3003 	ldrb.w	r3, [sp, #3]
 8000f08:	f5a1 71fa 	sub.w	r1, r1, #500	@ 0x1f4
 8000f0c:	428b      	cmp	r3, r1
 8000f0e:	bfb4      	ite	lt
 8000f10:	2300      	movlt	r3, #0
 8000f12:	2301      	movge	r3, #1
 8000f14:	8891      	ldrh	r1, [r2, #4]
 8000f16:	f89d 0008 	ldrb.w	r0, [sp, #8]
 8000f1a:	f5a1 71fa 	sub.w	r1, r1, #500	@ 0x1f4
 8000f1e:	4288      	cmp	r0, r1
 8000f20:	da33      	bge.n	8000f8a <Wireless_Receiving+0x106>
 8000f22:	b14b      	cbz	r3, 8000f38 <Wireless_Receiving+0xb4>
 8000f24:	4b1d      	ldr	r3, [pc, #116]	@ (8000f9c <Wireless_Receiving+0x118>)
 8000f26:	f89d 2000 	ldrb.w	r2, [sp]
 8000f2a:	7819      	ldrb	r1, [r3, #0]
 8000f2c:	7022      	strb	r2, [r4, #0]
 8000f2e:	4291      	cmp	r1, r2
 8000f30:	d1cb      	bne.n	8000eca <Wireless_Receiving+0x46>
 8000f32:	2200      	movs	r2, #0
 8000f34:	701a      	strb	r2, [r3, #0]
 8000f36:	e7c8      	b.n	8000eca <Wireless_Receiving+0x46>
 8000f38:	8953      	ldrh	r3, [r2, #10]
 8000f3a:	f89d 1003 	ldrb.w	r1, [sp, #3]
 8000f3e:	f5a3 73fa 	sub.w	r3, r3, #500	@ 0x1f4
 8000f42:	4299      	cmp	r1, r3
 8000f44:	dbc1      	blt.n	8000eca <Wireless_Receiving+0x46>
 8000f46:	4a15      	ldr	r2, [pc, #84]	@ (8000f9c <Wireless_Receiving+0x118>)
 8000f48:	f89d 3000 	ldrb.w	r3, [sp]
 8000f4c:	7013      	strb	r3, [r2, #0]
 8000f4e:	7822      	ldrb	r2, [r4, #0]
 8000f50:	429a      	cmp	r2, r3
 8000f52:	d1ba      	bne.n	8000eca <Wireless_Receiving+0x46>
 8000f54:	2300      	movs	r3, #0
 8000f56:	7023      	strb	r3, [r4, #0]
 8000f58:	e7b7      	b.n	8000eca <Wireless_Receiving+0x46>
 8000f5a:	f89d 3002 	ldrb.w	r3, [sp, #2]
 8000f5e:	2b11      	cmp	r3, #17
 8000f60:	d1b3      	bne.n	8000eca <Wireless_Receiving+0x46>
 8000f62:	f89d 2000 	ldrb.w	r2, [sp]
 8000f66:	7823      	ldrb	r3, [r4, #0]
 8000f68:	429a      	cmp	r2, r3
 8000f6a:	d1ae      	bne.n	8000eca <Wireless_Receiving+0x46>
 8000f6c:	20bb      	movs	r0, #187	@ 0xbb
 8000f6e:	f7ff ff4b 	bl	8000e08 <_vSSD1306_DontPassWarning>
 8000f72:	e7bb      	b.n	8000eec <Wireless_Receiving+0x68>
 8000f74:	f89d 3002 	ldrb.w	r3, [sp, #2]
 8000f78:	2b11      	cmp	r3, #17
 8000f7a:	d1a6      	bne.n	8000eca <Wireless_Receiving+0x46>
 8000f7c:	f89d 2000 	ldrb.w	r2, [sp]
 8000f80:	7823      	ldrb	r3, [r4, #0]
 8000f82:	429a      	cmp	r2, r3
 8000f84:	d1a1      	bne.n	8000eca <Wireless_Receiving+0x46>
 8000f86:	20aa      	movs	r0, #170	@ 0xaa
 8000f88:	e7f1      	b.n	8000f6e <Wireless_Receiving+0xea>
 8000f8a:	2b00      	cmp	r3, #0
 8000f8c:	d0db      	beq.n	8000f46 <Wireless_Receiving+0xc2>
 8000f8e:	e7c9      	b.n	8000f24 <Wireless_Receiving+0xa0>
 8000f90:	20000d18 	.word	0x20000d18
 8000f94:	20000335 	.word	0x20000335
 8000f98:	20000338 	.word	0x20000338
 8000f9c:	20000334 	.word	0x20000334

08000fa0 <HAL_TIM_PeriodElapsedCallback>:
 8000fa0:	6802      	ldr	r2, [r0, #0]
 8000fa2:	4b03      	ldr	r3, [pc, #12]	@ (8000fb0 <HAL_TIM_PeriodElapsedCallback+0x10>)
 8000fa4:	429a      	cmp	r2, r3
 8000fa6:	d101      	bne.n	8000fac <HAL_TIM_PeriodElapsedCallback+0xc>
 8000fa8:	f001 b868 	b.w	800207c <HAL_IncTick>
 8000fac:	4770      	bx	lr
 8000fae:	bf00      	nop
 8000fb0:	40000800 	.word	0x40000800

08000fb4 <Error_Handler>:
 8000fb4:	b672      	cpsid	i
 8000fb6:	e7fe      	b.n	8000fb6 <Error_Handler+0x2>

08000fb8 <SSD1306_Fill>:
 8000fb8:	2800      	cmp	r0, #0
 8000fba:	f44f 6280 	mov.w	r2, #1024	@ 0x400
 8000fbe:	4803      	ldr	r0, [pc, #12]	@ (8000fcc <SSD1306_Fill+0x14>)
 8000fc0:	bf14      	ite	ne
 8000fc2:	21ff      	movne	r1, #255	@ 0xff
 8000fc4:	2100      	moveq	r1, #0
 8000fc6:	f005 bd49 	b.w	8006a5c <memset>
 8000fca:	bf00      	nop
 8000fcc:	20000f2a 	.word	0x20000f2a

08000fd0 <SSD1306_DrawPixel>:
 8000fd0:	287f      	cmp	r0, #127	@ 0x7f
 8000fd2:	b530      	push	{r4, r5, lr}
 8000fd4:	d810      	bhi.n	8000ff8 <SSD1306_DrawPixel+0x28>
 8000fd6:	293f      	cmp	r1, #63	@ 0x3f
 8000fd8:	d80e      	bhi.n	8000ff8 <SSD1306_DrawPixel+0x28>
 8000fda:	4b0d      	ldr	r3, [pc, #52]	@ (8001010 <SSD1306_DrawPixel+0x40>)
 8000fdc:	4c0d      	ldr	r4, [pc, #52]	@ (8001014 <SSD1306_DrawPixel+0x44>)
 8000fde:	791d      	ldrb	r5, [r3, #4]
 8000fe0:	08cb      	lsrs	r3, r1, #3
 8000fe2:	f001 0107 	and.w	r1, r1, #7
 8000fe6:	b145      	cbz	r5, 8000ffa <SSD1306_DrawPixel+0x2a>
 8000fe8:	b94a      	cbnz	r2, 8000ffe <SSD1306_DrawPixel+0x2e>
 8000fea:	eb00 10c3 	add.w	r0, r0, r3, lsl #7
 8000fee:	2301      	movs	r3, #1
 8000ff0:	5c22      	ldrb	r2, [r4, r0]
 8000ff2:	408b      	lsls	r3, r1
 8000ff4:	4313      	orrs	r3, r2
 8000ff6:	5423      	strb	r3, [r4, r0]
 8000ff8:	bd30      	pop	{r4, r5, pc}
 8000ffa:	2a01      	cmp	r2, #1
 8000ffc:	d0f5      	beq.n	8000fea <SSD1306_DrawPixel+0x1a>
 8000ffe:	eb00 10c3 	add.w	r0, r0, r3, lsl #7
 8001002:	2201      	movs	r2, #1
 8001004:	5c23      	ldrb	r3, [r4, r0]
 8001006:	408a      	lsls	r2, r1
 8001008:	ea23 0302 	bic.w	r3, r3, r2
 800100c:	e7f3      	b.n	8000ff6 <SSD1306_DrawPixel+0x26>
 800100e:	bf00      	nop
 8001010:	20000f24 	.word	0x20000f24
 8001014:	20000f2a 	.word	0x20000f2a

08001018 <SSD1306_DrawBitmap>:
 8001018:	e92d 4ff0 	stmdb	sp!, {r4, r5, r6, r7, r8, r9, sl, fp, lr}
 800101c:	461d      	mov	r5, r3
 800101e:	b087      	sub	sp, #28
 8001020:	f115 0907 	adds.w	r9, r5, #7
 8001024:	f04f 0600 	mov.w	r6, #0
 8001028:	4692      	mov	sl, r2
 800102a:	bf48      	it	mi
 800102c:	f105 090e 	addmi.w	r9, r5, #14
 8001030:	f9bd 3040 	ldrsh.w	r3, [sp, #64]	@ 0x40
 8001034:	f89d 2044 	ldrb.w	r2, [sp, #68]	@ 0x44
 8001038:	9101      	str	r1, [sp, #4]
 800103a:	4683      	mov	fp, r0
 800103c:	ea4f 09e9 	mov.w	r9, r9, asr #3
 8001040:	4637      	mov	r7, r6
 8001042:	4634      	mov	r4, r6
 8001044:	b239      	sxth	r1, r7
 8001046:	428b      	cmp	r3, r1
 8001048:	dd27      	ble.n	800109a <SSD1306_DrawBitmap+0x82>
 800104a:	eb0a 0106 	add.w	r1, sl, r6
 800104e:	9102      	str	r1, [sp, #8]
 8001050:	9901      	ldr	r1, [sp, #4]
 8001052:	4439      	add	r1, r7
 8001054:	f04f 0800 	mov.w	r8, #0
 8001058:	b289      	uxth	r1, r1
 800105a:	e017      	b.n	800108c <SSD1306_DrawBitmap+0x74>
 800105c:	f010 0f07 	tst.w	r0, #7
 8001060:	bf05      	ittet	eq
 8001062:	9c02      	ldreq	r4, [sp, #8]
 8001064:	10c0      	asreq	r0, r0, #3
 8001066:	0064      	lslne	r4, r4, #1
 8001068:	5c24      	ldrbeq	r4, [r4, r0]
 800106a:	bf18      	it	ne
 800106c:	b2e4      	uxtbne	r4, r4
 800106e:	0620      	lsls	r0, r4, #24
 8001070:	d50a      	bpl.n	8001088 <SSD1306_DrawBitmap+0x70>
 8001072:	eb0b 0008 	add.w	r0, fp, r8
 8001076:	b280      	uxth	r0, r0
 8001078:	e9cd 1203 	strd	r1, r2, [sp, #12]
 800107c:	9305      	str	r3, [sp, #20]
 800107e:	f7ff ffa7 	bl	8000fd0 <SSD1306_DrawPixel>
 8001082:	e9dd 2304 	ldrd	r2, r3, [sp, #16]
 8001086:	9903      	ldr	r1, [sp, #12]
 8001088:	f108 0801 	add.w	r8, r8, #1
 800108c:	fa0f f088 	sxth.w	r0, r8
 8001090:	4285      	cmp	r5, r0
 8001092:	dce3      	bgt.n	800105c <SSD1306_DrawBitmap+0x44>
 8001094:	3701      	adds	r7, #1
 8001096:	444e      	add	r6, r9
 8001098:	e7d4      	b.n	8001044 <SSD1306_DrawBitmap+0x2c>
 800109a:	b007      	add	sp, #28
 800109c:	e8bd 8ff0 	ldmia.w	sp!, {r4, r5, r6, r7, r8, r9, sl, fp, pc}

080010a0 <SSD1306_GotoXY>:
 80010a0:	4b01      	ldr	r3, [pc, #4]	@ (80010a8 <SSD1306_GotoXY+0x8>)
 80010a2:	8018      	strh	r0, [r3, #0]
 80010a4:	8059      	strh	r1, [r3, #2]
 80010a6:	4770      	bx	lr
 80010a8:	20000f24 	.word	0x20000f24

080010ac <SSD1306_Putc>:
 80010ac:	e92d 4ff0 	stmdb	sp!, {r4, r5, r6, r7, r8, r9, sl, fp, lr}
 80010b0:	f8df 9090 	ldr.w	r9, [pc, #144]	@ 8001144 <SSD1306_Putc+0x98>
 80010b4:	b085      	sub	sp, #20
 80010b6:	f8b9 6000 	ldrh.w	r6, [r9]
 80010ba:	9201      	str	r2, [sp, #4]
 80010bc:	780a      	ldrb	r2, [r1, #0]
 80010be:	4432      	add	r2, r6
 80010c0:	2a7f      	cmp	r2, #127	@ 0x7f
 80010c2:	4605      	mov	r5, r0
 80010c4:	460c      	mov	r4, r1
 80010c6:	dc3b      	bgt.n	8001140 <SSD1306_Putc+0x94>
 80010c8:	f8b9 b002 	ldrh.w	fp, [r9, #2]
 80010cc:	784a      	ldrb	r2, [r1, #1]
 80010ce:	445a      	add	r2, fp
 80010d0:	2a3f      	cmp	r2, #63	@ 0x3f
 80010d2:	dc35      	bgt.n	8001140 <SSD1306_Putc+0x94>
 80010d4:	f1a0 0320 	sub.w	r3, r0, #32
 80010d8:	2700      	movs	r7, #0
 80010da:	9303      	str	r3, [sp, #12]
 80010dc:	7862      	ldrb	r2, [r4, #1]
 80010de:	4297      	cmp	r7, r2
 80010e0:	d307      	bcc.n	80010f2 <SSD1306_Putc+0x46>
 80010e2:	7822      	ldrb	r2, [r4, #0]
 80010e4:	4416      	add	r6, r2
 80010e6:	f8a9 6000 	strh.w	r6, [r9]
 80010ea:	4628      	mov	r0, r5
 80010ec:	b005      	add	sp, #20
 80010ee:	e8bd 8ff0 	ldmia.w	sp!, {r4, r5, r6, r7, r8, r9, sl, fp, pc}
 80010f2:	9b03      	ldr	r3, [sp, #12]
 80010f4:	6861      	ldr	r1, [r4, #4]
 80010f6:	fb02 7203 	mla	r2, r2, r3, r7
 80010fa:	eb0b 0a07 	add.w	sl, fp, r7
 80010fe:	f831 3012 	ldrh.w	r3, [r1, r2, lsl #1]
 8001102:	9302      	str	r3, [sp, #8]
 8001104:	f04f 0800 	mov.w	r8, #0
 8001108:	fa1f fa8a 	uxth.w	sl, sl
 800110c:	7822      	ldrb	r2, [r4, #0]
 800110e:	4590      	cmp	r8, r2
 8001110:	d301      	bcc.n	8001116 <SSD1306_Putc+0x6a>
 8001112:	3701      	adds	r7, #1
 8001114:	e7e2      	b.n	80010dc <SSD1306_Putc+0x30>
 8001116:	9b02      	ldr	r3, [sp, #8]
 8001118:	fa03 f208 	lsl.w	r2, r3, r8
 800111c:	0413      	lsls	r3, r2, #16
 800111e:	bf54      	ite	pl
 8001120:	9b01      	ldrpl	r3, [sp, #4]
 8001122:	9a01      	ldrmi	r2, [sp, #4]
 8001124:	eb06 0008 	add.w	r0, r6, r8
 8001128:	bf58      	it	pl
 800112a:	fab3 f283 	clzpl	r2, r3
 800112e:	b280      	uxth	r0, r0
 8001130:	bf58      	it	pl
 8001132:	0952      	lsrpl	r2, r2, #5
 8001134:	4651      	mov	r1, sl
 8001136:	f7ff ff4b 	bl	8000fd0 <SSD1306_DrawPixel>
 800113a:	f108 0801 	add.w	r8, r8, #1
 800113e:	e7e5      	b.n	800110c <SSD1306_Putc+0x60>
 8001140:	2500      	movs	r5, #0
 8001142:	e7d2      	b.n	80010ea <SSD1306_Putc+0x3e>
 8001144:	20000f24 	.word	0x20000f24

08001148 <SSD1306_Puts>:
 8001148:	b570      	push	{r4, r5, r6, lr}
 800114a:	460d      	mov	r5, r1
 800114c:	4616      	mov	r6, r2
 800114e:	1e44      	subs	r4, r0, #1
 8001150:	f814 0f01 	ldrb.w	r0, [r4, #1]!
 8001154:	b138      	cbz	r0, 8001166 <SSD1306_Puts+0x1e>
 8001156:	4632      	mov	r2, r6
 8001158:	4629      	mov	r1, r5
 800115a:	f7ff ffa7 	bl	80010ac <SSD1306_Putc>
 800115e:	4603      	mov	r3, r0
 8001160:	7820      	ldrb	r0, [r4, #0]
 8001162:	4283      	cmp	r3, r0
 8001164:	d0f4      	beq.n	8001150 <SSD1306_Puts+0x8>
 8001166:	bd70      	pop	{r4, r5, r6, pc}

08001168 <SSD1306_DrawLine>:
 8001168:	e92d 4ff0 	stmdb	sp!, {r4, r5, r6, r7, r8, r9, sl, fp, lr}
 800116c:	287f      	cmp	r0, #127	@ 0x7f
 800116e:	bf28      	it	cs
 8001170:	207f      	movcs	r0, #127	@ 0x7f
 8001172:	2a7f      	cmp	r2, #127	@ 0x7f
 8001174:	bf28      	it	cs
 8001176:	227f      	movcs	r2, #127	@ 0x7f
 8001178:	293f      	cmp	r1, #63	@ 0x3f
 800117a:	bf28      	it	cs
 800117c:	213f      	movcs	r1, #63	@ 0x3f
 800117e:	2b3f      	cmp	r3, #63	@ 0x3f
 8001180:	bf28      	it	cs
 8001182:	233f      	movcs	r3, #63	@ 0x3f
 8001184:	b085      	sub	sp, #20
 8001186:	4282      	cmp	r2, r0
 8001188:	bf8c      	ite	hi
 800118a:	1a16      	subhi	r6, r2, r0
 800118c:	1a86      	subls	r6, r0, r2
 800118e:	4299      	cmp	r1, r3
 8001190:	f89d b038 	ldrb.w	fp, [sp, #56]	@ 0x38
 8001194:	4615      	mov	r5, r2
 8001196:	461f      	mov	r7, r3
 8001198:	b236      	sxth	r6, r6
 800119a:	d224      	bcs.n	80011e6 <SSD1306_DrawLine+0x7e>
 800119c:	eba3 0801 	sub.w	r8, r3, r1
 80011a0:	4282      	cmp	r2, r0
 80011a2:	fa0f f888 	sxth.w	r8, r8
 80011a6:	d929      	bls.n	80011fc <SSD1306_DrawLine+0x94>
 80011a8:	f04f 0901 	mov.w	r9, #1
 80011ac:	f04f 0a01 	mov.w	sl, #1
 80011b0:	4546      	cmp	r6, r8
 80011b2:	bfdb      	ittet	le
 80011b4:	eb08 74d8 	addle.w	r4, r8, r8, lsr #31
 80011b8:	1064      	asrle	r4, r4, #1
 80011ba:	eb06 74d6 	addgt.w	r4, r6, r6, lsr #31
 80011be:	4264      	negle	r4, r4
 80011c0:	bfcc      	ite	gt
 80011c2:	1064      	asrgt	r4, r4, #1
 80011c4:	b224      	sxthle	r4, r4
 80011c6:	bb3e      	cbnz	r6, 8001218 <SSD1306_DrawLine+0xb0>
 80011c8:	42b9      	cmp	r1, r7
 80011ca:	bf82      	ittt	hi
 80011cc:	460b      	movhi	r3, r1
 80011ce:	4639      	movhi	r1, r7
 80011d0:	461f      	movhi	r7, r3
 80011d2:	42a8      	cmp	r0, r5
 80011d4:	bf28      	it	cs
 80011d6:	4628      	movcs	r0, r5
 80011d8:	b285      	uxth	r5, r0
 80011da:	b209      	sxth	r1, r1
 80011dc:	42b9      	cmp	r1, r7
 80011de:	dd13      	ble.n	8001208 <SSD1306_DrawLine+0xa0>
 80011e0:	b005      	add	sp, #20
 80011e2:	e8bd 8ff0 	ldmia.w	sp!, {r4, r5, r6, r7, r8, r9, sl, fp, pc}
 80011e6:	eba1 0803 	sub.w	r8, r1, r3
 80011ea:	4282      	cmp	r2, r0
 80011ec:	fa0f f888 	sxth.w	r8, r8
 80011f0:	d807      	bhi.n	8001202 <SSD1306_DrawLine+0x9a>
 80011f2:	f04f 39ff 	mov.w	r9, #4294967295
 80011f6:	f04f 3aff 	mov.w	sl, #4294967295
 80011fa:	e7d9      	b.n	80011b0 <SSD1306_DrawLine+0x48>
 80011fc:	f04f 39ff 	mov.w	r9, #4294967295
 8001200:	e7d4      	b.n	80011ac <SSD1306_DrawLine+0x44>
 8001202:	f04f 0901 	mov.w	r9, #1
 8001206:	e7f6      	b.n	80011f6 <SSD1306_DrawLine+0x8e>
 8001208:	b28c      	uxth	r4, r1
 800120a:	4621      	mov	r1, r4
 800120c:	465a      	mov	r2, fp
 800120e:	4628      	mov	r0, r5
 8001210:	f7ff fede 	bl	8000fd0 <SSD1306_DrawPixel>
 8001214:	1c61      	adds	r1, r4, #1
 8001216:	e7e0      	b.n	80011da <SSD1306_DrawLine+0x72>
 8001218:	f1b8 0f00 	cmp.w	r8, #0
 800121c:	d01e      	beq.n	800125c <SSD1306_DrawLine+0xf4>
 800121e:	4273      	negs	r3, r6
 8001220:	465a      	mov	r2, fp
 8001222:	e9cd 0101 	strd	r0, r1, [sp, #4]
 8001226:	9303      	str	r3, [sp, #12]
 8001228:	f7ff fed2 	bl	8000fd0 <SSD1306_DrawPixel>
 800122c:	9801      	ldr	r0, [sp, #4]
 800122e:	4285      	cmp	r5, r0
 8001230:	e9dd 1302 	ldrd	r1, r3, [sp, #8]
 8001234:	d101      	bne.n	800123a <SSD1306_DrawLine+0xd2>
 8001236:	42b9      	cmp	r1, r7
 8001238:	d0d2      	beq.n	80011e0 <SSD1306_DrawLine+0x78>
 800123a:	429c      	cmp	r4, r3
 800123c:	bfc1      	itttt	gt
 800123e:	eba4 0208 	subgt.w	r2, r4, r8
 8001242:	4448      	addgt	r0, r9
 8001244:	b212      	sxthgt	r2, r2
 8001246:	b280      	uxthgt	r0, r0
 8001248:	bfd8      	it	le
 800124a:	4622      	movle	r2, r4
 800124c:	4544      	cmp	r4, r8
 800124e:	da03      	bge.n	8001258 <SSD1306_DrawLine+0xf0>
 8001250:	4432      	add	r2, r6
 8001252:	4451      	add	r1, sl
 8001254:	b212      	sxth	r2, r2
 8001256:	b289      	uxth	r1, r1
 8001258:	4614      	mov	r4, r2
 800125a:	e7e1      	b.n	8001220 <SSD1306_DrawLine+0xb8>
 800125c:	42b9      	cmp	r1, r7
 800125e:	bf28      	it	cs
 8001260:	4639      	movcs	r1, r7
 8001262:	4285      	cmp	r5, r0
 8001264:	b28e      	uxth	r6, r1
 8001266:	d202      	bcs.n	800126e <SSD1306_DrawLine+0x106>
 8001268:	4603      	mov	r3, r0
 800126a:	4628      	mov	r0, r5
 800126c:	461d      	mov	r5, r3
 800126e:	b200      	sxth	r0, r0
 8001270:	42a8      	cmp	r0, r5
 8001272:	dcb5      	bgt.n	80011e0 <SSD1306_DrawLine+0x78>
 8001274:	b284      	uxth	r4, r0
 8001276:	4620      	mov	r0, r4
 8001278:	465a      	mov	r2, fp
 800127a:	4631      	mov	r1, r6
 800127c:	f7ff fea8 	bl	8000fd0 <SSD1306_DrawPixel>
 8001280:	1c60      	adds	r0, r4, #1
 8001282:	e7f4      	b.n	800126e <SSD1306_DrawLine+0x106>

08001284 <SSD1306_DrawRectangle>:
 8001284:	e92d 41f3 	stmdb	sp!, {r0, r1, r4, r5, r6, r7, r8, lr}
 8001288:	287f      	cmp	r0, #127	@ 0x7f
 800128a:	f89d 8020 	ldrb.w	r8, [sp, #32]
 800128e:	4607      	mov	r7, r0
 8001290:	460e      	mov	r6, r1
 8001292:	461d      	mov	r5, r3
 8001294:	d834      	bhi.n	8001300 <SSD1306_DrawRectangle+0x7c>
 8001296:	293f      	cmp	r1, #63	@ 0x3f
 8001298:	d832      	bhi.n	8001300 <SSD1306_DrawRectangle+0x7c>
 800129a:	1883      	adds	r3, r0, r2
 800129c:	2b7f      	cmp	r3, #127	@ 0x7f
 800129e:	bfc8      	it	gt
 80012a0:	f1c0 0280 	rsbgt	r2, r0, #128	@ 0x80
 80012a4:	eb01 0305 	add.w	r3, r1, r5
 80012a8:	bfc8      	it	gt
 80012aa:	b292      	uxthgt	r2, r2
 80012ac:	2b3f      	cmp	r3, #63	@ 0x3f
 80012ae:	bfc4      	itt	gt
 80012b0:	f1c1 0540 	rsbgt	r5, r1, #64	@ 0x40
 80012b4:	b2ad      	uxthgt	r5, r5
 80012b6:	1814      	adds	r4, r2, r0
 80012b8:	b2a4      	uxth	r4, r4
 80012ba:	4435      	add	r5, r6
 80012bc:	b2ad      	uxth	r5, r5
 80012be:	460b      	mov	r3, r1
 80012c0:	4622      	mov	r2, r4
 80012c2:	f8cd 8000 	str.w	r8, [sp]
 80012c6:	f7ff ff4f 	bl	8001168 <SSD1306_DrawLine>
 80012ca:	462b      	mov	r3, r5
 80012cc:	4622      	mov	r2, r4
 80012ce:	4629      	mov	r1, r5
 80012d0:	4638      	mov	r0, r7
 80012d2:	f8cd 8000 	str.w	r8, [sp]
 80012d6:	f7ff ff47 	bl	8001168 <SSD1306_DrawLine>
 80012da:	462b      	mov	r3, r5
 80012dc:	463a      	mov	r2, r7
 80012de:	4631      	mov	r1, r6
 80012e0:	4638      	mov	r0, r7
 80012e2:	f8cd 8000 	str.w	r8, [sp]
 80012e6:	f7ff ff3f 	bl	8001168 <SSD1306_DrawLine>
 80012ea:	462b      	mov	r3, r5
 80012ec:	4622      	mov	r2, r4
 80012ee:	4631      	mov	r1, r6
 80012f0:	4620      	mov	r0, r4
 80012f2:	f8cd 8020 	str.w	r8, [sp, #32]
 80012f6:	b002      	add	sp, #8
 80012f8:	e8bd 41f0 	ldmia.w	sp!, {r4, r5, r6, r7, r8, lr}
 80012fc:	f7ff bf34 	b.w	8001168 <SSD1306_DrawLine>
 8001300:	b002      	add	sp, #8
 8001302:	e8bd 81f0 	ldmia.w	sp!, {r4, r5, r6, r7, r8, pc}
	...

08001308 <ssd1306_I2C_WriteMulti>:
 8001308:	b530      	push	{r4, r5, lr}
 800130a:	b0c3      	sub	sp, #268	@ 0x10c
 800130c:	2400      	movs	r4, #0
 800130e:	f88d 1008 	strb.w	r1, [sp, #8]
 8001312:	b2e1      	uxtb	r1, r4
 8001314:	4299      	cmp	r1, r3
 8001316:	f104 0501 	add.w	r5, r4, #1
 800131a:	d30a      	bcc.n	8001332 <ssd1306_I2C_WriteMulti+0x2a>
 800131c:	220a      	movs	r2, #10
 800131e:	3301      	adds	r3, #1
 8001320:	9200      	str	r2, [sp, #0]
 8001322:	4601      	mov	r1, r0
 8001324:	b29b      	uxth	r3, r3
 8001326:	aa02      	add	r2, sp, #8
 8001328:	4805      	ldr	r0, [pc, #20]	@ (8001340 <ssd1306_I2C_WriteMulti+0x38>)
 800132a:	f001 fb6b 	bl	8002a04 <HAL_I2C_Master_Transmit>
 800132e:	b043      	add	sp, #268	@ 0x10c
 8001330:	bd30      	pop	{r4, r5, pc}
 8001332:	ac02      	add	r4, sp, #8
 8001334:	440c      	add	r4, r1
 8001336:	5c51      	ldrb	r1, [r2, r1]
 8001338:	7061      	strb	r1, [r4, #1]
 800133a:	462c      	mov	r4, r5
 800133c:	e7e9      	b.n	8001312 <ssd1306_I2C_WriteMulti+0xa>
 800133e:	bf00      	nop
 8001340:	20000ed0 	.word	0x20000ed0

08001344 <ssd1306_I2C_Write>:
 8001344:	b51f      	push	{r0, r1, r2, r3, r4, lr}
 8001346:	230a      	movs	r3, #10
 8001348:	f88d 100c 	strb.w	r1, [sp, #12]
 800134c:	f88d 200d 	strb.w	r2, [sp, #13]
 8001350:	9300      	str	r3, [sp, #0]
 8001352:	4601      	mov	r1, r0
 8001354:	2302      	movs	r3, #2
 8001356:	aa03      	add	r2, sp, #12
 8001358:	4802      	ldr	r0, [pc, #8]	@ (8001364 <ssd1306_I2C_Write+0x20>)
 800135a:	f001 fb53 	bl	8002a04 <HAL_I2C_Master_Transmit>
 800135e:	b005      	add	sp, #20
 8001360:	f85d fb04 	ldr.w	pc, [sp], #4
 8001364:	20000ed0 	.word	0x20000ed0

08001368 <SSD1306_UpdateScreen>:
 8001368:	b538      	push	{r3, r4, r5, lr}
 800136a:	4d0f      	ldr	r5, [pc, #60]	@ (80013a8 <SSD1306_UpdateScreen+0x40>)
 800136c:	24b0      	movs	r4, #176	@ 0xb0
 800136e:	4622      	mov	r2, r4
 8001370:	2100      	movs	r1, #0
 8001372:	2078      	movs	r0, #120	@ 0x78
 8001374:	f7ff ffe6 	bl	8001344 <ssd1306_I2C_Write>
 8001378:	2200      	movs	r2, #0
 800137a:	4611      	mov	r1, r2
 800137c:	2078      	movs	r0, #120	@ 0x78
 800137e:	f7ff ffe1 	bl	8001344 <ssd1306_I2C_Write>
 8001382:	3401      	adds	r4, #1
 8001384:	2210      	movs	r2, #16
 8001386:	2100      	movs	r1, #0
 8001388:	2078      	movs	r0, #120	@ 0x78
 800138a:	f7ff ffdb 	bl	8001344 <ssd1306_I2C_Write>
 800138e:	b2e4      	uxtb	r4, r4
 8001390:	462a      	mov	r2, r5
 8001392:	2380      	movs	r3, #128	@ 0x80
 8001394:	2140      	movs	r1, #64	@ 0x40
 8001396:	2078      	movs	r0, #120	@ 0x78
 8001398:	f7ff ffb6 	bl	8001308 <ssd1306_I2C_WriteMulti>
 800139c:	2cb8      	cmp	r4, #184	@ 0xb8
 800139e:	f105 0580 	add.w	r5, r5, #128	@ 0x80
 80013a2:	d1e4      	bne.n	800136e <SSD1306_UpdateScreen+0x6>
 80013a4:	bd38      	pop	{r3, r4, r5, pc}
 80013a6:	bf00      	nop
 80013a8:	20000f2a 	.word	0x20000f2a

080013ac <SSD1306_Clear>:
 80013ac:	b508      	push	{r3, lr}
 80013ae:	2000      	movs	r0, #0
 80013b0:	f7ff fe02 	bl	8000fb8 <SSD1306_Fill>
 80013b4:	e8bd 4008 	ldmia.w	sp!, {r3, lr}
 80013b8:	f7ff bfd6 	b.w	8001368 <SSD1306_UpdateScreen>

080013bc <SSD1306_Init>:
 80013bc:	b510      	push	{r4, lr}
 80013be:	4854      	ldr	r0, [pc, #336]	@ (8001510 <SSD1306_Init+0x154>)
 80013c0:	f644 6320 	movw	r3, #20000	@ 0x4e20
 80013c4:	2201      	movs	r2, #1
 80013c6:	2178      	movs	r1, #120	@ 0x78
 80013c8:	f001 fbf6 	bl	8002bb8 <HAL_I2C_IsDeviceReady>
 80013cc:	4604      	mov	r4, r0
 80013ce:	2800      	cmp	r0, #0
 80013d0:	f040 809c 	bne.w	800150c <SSD1306_Init+0x150>
 80013d4:	4601      	mov	r1, r0
 80013d6:	22ae      	movs	r2, #174	@ 0xae
 80013d8:	2078      	movs	r0, #120	@ 0x78
 80013da:	f7ff ffb3 	bl	8001344 <ssd1306_I2C_Write>
 80013de:	2220      	movs	r2, #32
 80013e0:	4621      	mov	r1, r4
 80013e2:	2078      	movs	r0, #120	@ 0x78
 80013e4:	f7ff ffae 	bl	8001344 <ssd1306_I2C_Write>
 80013e8:	2210      	movs	r2, #16
 80013ea:	4621      	mov	r1, r4
 80013ec:	2078      	movs	r0, #120	@ 0x78
 80013ee:	f7ff ffa9 	bl	8001344 <ssd1306_I2C_Write>
 80013f2:	22b0      	movs	r2, #176	@ 0xb0
 80013f4:	4621      	mov	r1, r4
 80013f6:	2078      	movs	r0, #120	@ 0x78
 80013f8:	f7ff ffa4 	bl	8001344 <ssd1306_I2C_Write>
 80013fc:	22c8      	movs	r2, #200	@ 0xc8
 80013fe:	4621      	mov	r1, r4
 8001400:	2078      	movs	r0, #120	@ 0x78
 8001402:	f7ff ff9f 	bl	8001344 <ssd1306_I2C_Write>
 8001406:	4622      	mov	r2, r4
 8001408:	4621      	mov	r1, r4
 800140a:	2078      	movs	r0, #120	@ 0x78
 800140c:	f7ff ff9a 	bl	8001344 <ssd1306_I2C_Write>
 8001410:	2210      	movs	r2, #16
 8001412:	4621      	mov	r1, r4
 8001414:	2078      	movs	r0, #120	@ 0x78
 8001416:	f7ff ff95 	bl	8001344 <ssd1306_I2C_Write>
 800141a:	2240      	movs	r2, #64	@ 0x40
 800141c:	4621      	mov	r1, r4
 800141e:	2078      	movs	r0, #120	@ 0x78
 8001420:	f7ff ff90 	bl	8001344 <ssd1306_I2C_Write>
 8001424:	2281      	movs	r2, #129	@ 0x81
 8001426:	4621      	mov	r1, r4
 8001428:	2078      	movs	r0, #120	@ 0x78
 800142a:	f7ff ff8b 	bl	8001344 <ssd1306_I2C_Write>
 800142e:	22ff      	movs	r2, #255	@ 0xff
 8001430:	4621      	mov	r1, r4
 8001432:	2078      	movs	r0, #120	@ 0x78
 8001434:	f7ff ff86 	bl	8001344 <ssd1306_I2C_Write>
 8001438:	22a1      	movs	r2, #161	@ 0xa1
 800143a:	4621      	mov	r1, r4
 800143c:	2078      	movs	r0, #120	@ 0x78
 800143e:	f7ff ff81 	bl	8001344 <ssd1306_I2C_Write>
 8001442:	22a6      	movs	r2, #166	@ 0xa6
 8001444:	4621      	mov	r1, r4
 8001446:	2078      	movs	r0, #120	@ 0x78
 8001448:	f7ff ff7c 	bl	8001344 <ssd1306_I2C_Write>
 800144c:	22a8      	movs	r2, #168	@ 0xa8
 800144e:	4621      	mov	r1, r4
 8001450:	2078      	movs	r0, #120	@ 0x78
 8001452:	f7ff ff77 	bl	8001344 <ssd1306_I2C_Write>
 8001456:	223f      	movs	r2, #63	@ 0x3f
 8001458:	4621      	mov	r1, r4
 800145a:	2078      	movs	r0, #120	@ 0x78
 800145c:	f7ff ff72 	bl	8001344 <ssd1306_I2C_Write>
 8001460:	22a4      	movs	r2, #164	@ 0xa4
 8001462:	4621      	mov	r1, r4
 8001464:	2078      	movs	r0, #120	@ 0x78
 8001466:	f7ff ff6d 	bl	8001344 <ssd1306_I2C_Write>
 800146a:	22d3      	movs	r2, #211	@ 0xd3
 800146c:	4621      	mov	r1, r4
 800146e:	2078      	movs	r0, #120	@ 0x78
 8001470:	f7ff ff68 	bl	8001344 <ssd1306_I2C_Write>
 8001474:	4622      	mov	r2, r4
 8001476:	4621      	mov	r1, r4
 8001478:	2078      	movs	r0, #120	@ 0x78
 800147a:	f7ff ff63 	bl	8001344 <ssd1306_I2C_Write>
 800147e:	22d5      	movs	r2, #213	@ 0xd5
 8001480:	4621      	mov	r1, r4
 8001482:	2078      	movs	r0, #120	@ 0x78
 8001484:	f7ff ff5e 	bl	8001344 <ssd1306_I2C_Write>
 8001488:	22f0      	movs	r2, #240	@ 0xf0
 800148a:	4621      	mov	r1, r4
 800148c:	2078      	movs	r0, #120	@ 0x78
 800148e:	f7ff ff59 	bl	8001344 <ssd1306_I2C_Write>
 8001492:	22d9      	movs	r2, #217	@ 0xd9
 8001494:	4621      	mov	r1, r4
 8001496:	2078      	movs	r0, #120	@ 0x78
 8001498:	f7ff ff54 	bl	8001344 <ssd1306_I2C_Write>
 800149c:	2222      	movs	r2, #34	@ 0x22
 800149e:	4621      	mov	r1, r4
 80014a0:	2078      	movs	r0, #120	@ 0x78
 80014a2:	f7ff ff4f 	bl	8001344 <ssd1306_I2C_Write>
 80014a6:	22da      	movs	r2, #218	@ 0xda
 80014a8:	4621      	mov	r1, r4
 80014aa:	2078      	movs	r0, #120	@ 0x78
 80014ac:	f7ff ff4a 	bl	8001344 <ssd1306_I2C_Write>
 80014b0:	2212      	movs	r2, #18
 80014b2:	4621      	mov	r1, r4
 80014b4:	2078      	movs	r0, #120	@ 0x78
 80014b6:	f7ff ff45 	bl	8001344 <ssd1306_I2C_Write>
 80014ba:	22db      	movs	r2, #219	@ 0xdb
 80014bc:	4621      	mov	r1, r4
 80014be:	2078      	movs	r0, #120	@ 0x78
 80014c0:	f7ff ff40 	bl	8001344 <ssd1306_I2C_Write>
 80014c4:	2220      	movs	r2, #32
 80014c6:	4621      	mov	r1, r4
 80014c8:	2078      	movs	r0, #120	@ 0x78
 80014ca:	f7ff ff3b 	bl	8001344 <ssd1306_I2C_Write>
 80014ce:	228d      	movs	r2, #141	@ 0x8d
 80014d0:	4621      	mov	r1, r4
 80014d2:	2078      	movs	r0, #120	@ 0x78
 80014d4:	f7ff ff36 	bl	8001344 <ssd1306_I2C_Write>
 80014d8:	2214      	movs	r2, #20
 80014da:	4621      	mov	r1, r4
 80014dc:	2078      	movs	r0, #120	@ 0x78
 80014de:	f7ff ff31 	bl	8001344 <ssd1306_I2C_Write>
 80014e2:	22af      	movs	r2, #175	@ 0xaf
 80014e4:	4621      	mov	r1, r4
 80014e6:	2078      	movs	r0, #120	@ 0x78
 80014e8:	f7ff ff2c 	bl	8001344 <ssd1306_I2C_Write>
 80014ec:	222e      	movs	r2, #46	@ 0x2e
 80014ee:	4621      	mov	r1, r4
 80014f0:	2078      	movs	r0, #120	@ 0x78
 80014f2:	f7ff ff27 	bl	8001344 <ssd1306_I2C_Write>
 80014f6:	4620      	mov	r0, r4
 80014f8:	f7ff fd5e 	bl	8000fb8 <SSD1306_Fill>
 80014fc:	f7ff ff34 	bl	8001368 <SSD1306_UpdateScreen>
 8001500:	4b04      	ldr	r3, [pc, #16]	@ (8001514 <SSD1306_Init+0x158>)
 8001502:	2001      	movs	r0, #1
 8001504:	801c      	strh	r4, [r3, #0]
 8001506:	805c      	strh	r4, [r3, #2]
 8001508:	7158      	strb	r0, [r3, #5]
 800150a:	bd10      	pop	{r4, pc}
 800150c:	2000      	movs	r0, #0
 800150e:	e7fc      	b.n	800150a <SSD1306_Init+0x14e>
 8001510:	20000ed0 	.word	0x20000ed0
 8001514:	20000f24 	.word	0x20000f24

08001518 <HAL_MspInit>:
 8001518:	b082      	sub	sp, #8
 800151a:	4b0e      	ldr	r3, [pc, #56]	@ (8001554 <HAL_MspInit+0x3c>)
 800151c:	2200      	movs	r2, #0
 800151e:	9200      	str	r2, [sp, #0]
 8001520:	6c59      	ldr	r1, [r3, #68]	@ 0x44
 8001522:	f441 4180 	orr.w	r1, r1, #16384	@ 0x4000
 8001526:	6459      	str	r1, [r3, #68]	@ 0x44
 8001528:	6c59      	ldr	r1, [r3, #68]	@ 0x44
 800152a:	f401 4180 	and.w	r1, r1, #16384	@ 0x4000
 800152e:	9100      	str	r1, [sp, #0]
 8001530:	9900      	ldr	r1, [sp, #0]
 8001532:	9201      	str	r2, [sp, #4]
 8001534:	6c19      	ldr	r1, [r3, #64]	@ 0x40
 8001536:	f041 5180 	orr.w	r1, r1, #268435456	@ 0x10000000
 800153a:	6419      	str	r1, [r3, #64]	@ 0x40
 800153c:	6c1b      	ldr	r3, [r3, #64]	@ 0x40
 800153e:	f003 5380 	and.w	r3, r3, #268435456	@ 0x10000000
 8001542:	9301      	str	r3, [sp, #4]
 8001544:	9b01      	ldr	r3, [sp, #4]
 8001546:	210f      	movs	r1, #15
 8001548:	f06f 0001 	mvn.w	r0, #1
 800154c:	b002      	add	sp, #8
 800154e:	f000 bdcd 	b.w	80020ec <HAL_NVIC_SetPriority>
 8001552:	bf00      	nop
 8001554:	40023800 	.word	0x40023800

08001558 <HAL_I2C_MspInit>:
 8001558:	b530      	push	{r4, r5, lr}
 800155a:	4604      	mov	r4, r0
 800155c:	b089      	sub	sp, #36	@ 0x24
 800155e:	2214      	movs	r2, #20
 8001560:	2100      	movs	r1, #0
 8001562:	a803      	add	r0, sp, #12
 8001564:	f005 fa7a 	bl	8006a5c <memset>
 8001568:	6822      	ldr	r2, [r4, #0]
 800156a:	4b13      	ldr	r3, [pc, #76]	@ (80015b8 <HAL_I2C_MspInit+0x60>)
 800156c:	429a      	cmp	r2, r3
 800156e:	d121      	bne.n	80015b4 <HAL_I2C_MspInit+0x5c>
 8001570:	4c12      	ldr	r4, [pc, #72]	@ (80015bc <HAL_I2C_MspInit+0x64>)
 8001572:	4813      	ldr	r0, [pc, #76]	@ (80015c0 <HAL_I2C_MspInit+0x68>)
 8001574:	2500      	movs	r5, #0
 8001576:	9501      	str	r5, [sp, #4]
 8001578:	6b23      	ldr	r3, [r4, #48]	@ 0x30
 800157a:	f043 0302 	orr.w	r3, r3, #2
 800157e:	6323      	str	r3, [r4, #48]	@ 0x30
 8001580:	6b23      	ldr	r3, [r4, #48]	@ 0x30
 8001582:	f003 0302 	and.w	r3, r3, #2
 8001586:	9301      	str	r3, [sp, #4]
 8001588:	9b01      	ldr	r3, [sp, #4]
 800158a:	22c0      	movs	r2, #192	@ 0xc0
 800158c:	2312      	movs	r3, #18
 800158e:	e9cd 2303 	strd	r2, r3, [sp, #12]
 8001592:	2103      	movs	r1, #3
 8001594:	2304      	movs	r3, #4
 8001596:	e9cd 1306 	strd	r1, r3, [sp, #24]
 800159a:	a903      	add	r1, sp, #12
 800159c:	f000 ffc2 	bl	8002524 <HAL_GPIO_Init>
 80015a0:	9502      	str	r5, [sp, #8]
 80015a2:	6c23      	ldr	r3, [r4, #64]	@ 0x40
 80015a4:	f443 1300 	orr.w	r3, r3, #2097152	@ 0x200000
 80015a8:	6423      	str	r3, [r4, #64]	@ 0x40
 80015aa:	6c23      	ldr	r3, [r4, #64]	@ 0x40
 80015ac:	f403 1300 	and.w	r3, r3, #2097152	@ 0x200000
 80015b0:	9302      	str	r3, [sp, #8]
 80015b2:	9b02      	ldr	r3, [sp, #8]
 80015b4:	b009      	add	sp, #36	@ 0x24
 80015b6:	bd30      	pop	{r4, r5, pc}
 80015b8:	40005400 	.word	0x40005400
 80015bc:	40023800 	.word	0x40023800
 80015c0:	40020400 	.word	0x40020400

080015c4 <HAL_SPI_MspInit>:
 80015c4:	b510      	push	{r4, lr}
 80015c6:	4604      	mov	r4, r0
 80015c8:	b088      	sub	sp, #32
 80015ca:	2214      	movs	r2, #20
 80015cc:	2100      	movs	r1, #0
 80015ce:	a803      	add	r0, sp, #12
 80015d0:	f005 fa44 	bl	8006a5c <memset>
 80015d4:	6822      	ldr	r2, [r4, #0]
 80015d6:	4b14      	ldr	r3, [pc, #80]	@ (8001628 <HAL_SPI_MspInit+0x64>)
 80015d8:	429a      	cmp	r2, r3
 80015da:	d122      	bne.n	8001622 <HAL_SPI_MspInit+0x5e>
 80015dc:	f503 3384 	add.w	r3, r3, #67584	@ 0x10800
 80015e0:	2100      	movs	r1, #0
 80015e2:	9101      	str	r1, [sp, #4]
 80015e4:	6c5a      	ldr	r2, [r3, #68]	@ 0x44
 80015e6:	4811      	ldr	r0, [pc, #68]	@ (800162c <HAL_SPI_MspInit+0x68>)
 80015e8:	f442 5280 	orr.w	r2, r2, #4096	@ 0x1000
 80015ec:	645a      	str	r2, [r3, #68]	@ 0x44
 80015ee:	6c5a      	ldr	r2, [r3, #68]	@ 0x44
 80015f0:	f402 5280 	and.w	r2, r2, #4096	@ 0x1000
 80015f4:	9201      	str	r2, [sp, #4]
 80015f6:	9a01      	ldr	r2, [sp, #4]
 80015f8:	9102      	str	r1, [sp, #8]
 80015fa:	6b1a      	ldr	r2, [r3, #48]	@ 0x30
 80015fc:	f042 0201 	orr.w	r2, r2, #1
 8001600:	631a      	str	r2, [r3, #48]	@ 0x30
 8001602:	6b1b      	ldr	r3, [r3, #48]	@ 0x30
 8001604:	f003 0301 	and.w	r3, r3, #1
 8001608:	9302      	str	r3, [sp, #8]
 800160a:	9b02      	ldr	r3, [sp, #8]
 800160c:	22e0      	movs	r2, #224	@ 0xe0
 800160e:	2302      	movs	r3, #2
 8001610:	2103      	movs	r1, #3
 8001612:	e9cd 2303 	strd	r2, r3, [sp, #12]
 8001616:	2305      	movs	r3, #5
 8001618:	e9cd 1306 	strd	r1, r3, [sp, #24]
 800161c:	a903      	add	r1, sp, #12
 800161e:	f000 ff81 	bl	8002524 <HAL_GPIO_Init>
 8001622:	b008      	add	sp, #32
 8001624:	bd10      	pop	{r4, pc}
 8001626:	bf00      	nop
 8001628:	40013000 	.word	0x40013000
 800162c:	40020000 	.word	0x40020000

08001630 <HAL_TIM_Base_MspInit>:
 8001630:	b507      	push	{r0, r1, r2, lr}
 8001632:	6803      	ldr	r3, [r0, #0]
 8001634:	4a18      	ldr	r2, [pc, #96]	@ (8001698 <HAL_TIM_Base_MspInit+0x68>)
 8001636:	4293      	cmp	r3, r2
 8001638:	d115      	bne.n	8001666 <HAL_TIM_Base_MspInit+0x36>
 800163a:	4b18      	ldr	r3, [pc, #96]	@ (800169c <HAL_TIM_Base_MspInit+0x6c>)
 800163c:	2200      	movs	r2, #0
 800163e:	9200      	str	r2, [sp, #0]
 8001640:	6c19      	ldr	r1, [r3, #64]	@ 0x40
 8001642:	f041 0102 	orr.w	r1, r1, #2
 8001646:	6419      	str	r1, [r3, #64]	@ 0x40
 8001648:	6c1b      	ldr	r3, [r3, #64]	@ 0x40
 800164a:	f003 0302 	and.w	r3, r3, #2
 800164e:	9300      	str	r3, [sp, #0]
 8001650:	201d      	movs	r0, #29
 8001652:	2105      	movs	r1, #5
 8001654:	9b00      	ldr	r3, [sp, #0]
 8001656:	f000 fd49 	bl	80020ec <HAL_NVIC_SetPriority>
 800165a:	201d      	movs	r0, #29
 800165c:	b003      	add	sp, #12
 800165e:	f85d eb04 	ldr.w	lr, [sp], #4
 8001662:	f000 bd75 	b.w	8002150 <HAL_NVIC_EnableIRQ>
 8001666:	4a0e      	ldr	r2, [pc, #56]	@ (80016a0 <HAL_TIM_Base_MspInit+0x70>)
 8001668:	4293      	cmp	r3, r2
 800166a:	d111      	bne.n	8001690 <HAL_TIM_Base_MspInit+0x60>
 800166c:	4b0b      	ldr	r3, [pc, #44]	@ (800169c <HAL_TIM_Base_MspInit+0x6c>)
 800166e:	2200      	movs	r2, #0
 8001670:	9201      	str	r2, [sp, #4]
 8001672:	6c59      	ldr	r1, [r3, #68]	@ 0x44
 8001674:	f441 3100 	orr.w	r1, r1, #131072	@ 0x20000
 8001678:	6459      	str	r1, [r3, #68]	@ 0x44
 800167a:	6c5b      	ldr	r3, [r3, #68]	@ 0x44
 800167c:	f403 3300 	and.w	r3, r3, #131072	@ 0x20000
 8001680:	9301      	str	r3, [sp, #4]
 8001682:	2019      	movs	r0, #25
 8001684:	2105      	movs	r1, #5
 8001686:	9b01      	ldr	r3, [sp, #4]
 8001688:	f000 fd30 	bl	80020ec <HAL_NVIC_SetPriority>
 800168c:	2019      	movs	r0, #25
 800168e:	e7e5      	b.n	800165c <HAL_TIM_Base_MspInit+0x2c>
 8001690:	b003      	add	sp, #12
 8001692:	f85d fb04 	ldr.w	pc, [sp], #4
 8001696:	bf00      	nop
 8001698:	40000400 	.word	0x40000400
 800169c:	40023800 	.word	0x40023800
 80016a0:	40014400 	.word	0x40014400

080016a4 <HAL_UART_MspInit>:
 80016a4:	b570      	push	{r4, r5, r6, lr}
 80016a6:	4606      	mov	r6, r0
 80016a8:	b088      	sub	sp, #32
 80016aa:	2214      	movs	r2, #20
 80016ac:	2100      	movs	r1, #0
 80016ae:	a803      	add	r0, sp, #12
 80016b0:	f005 f9d4 	bl	8006a5c <memset>
 80016b4:	6832      	ldr	r2, [r6, #0]
 80016b6:	4b25      	ldr	r3, [pc, #148]	@ (800174c <HAL_UART_MspInit+0xa8>)
 80016b8:	429a      	cmp	r2, r3
 80016ba:	d145      	bne.n	8001748 <HAL_UART_MspInit+0xa4>
 80016bc:	2500      	movs	r5, #0
 80016be:	f503 3394 	add.w	r3, r3, #75776	@ 0x12800
 80016c2:	9501      	str	r5, [sp, #4]
 80016c4:	6c5a      	ldr	r2, [r3, #68]	@ 0x44
 80016c6:	4822      	ldr	r0, [pc, #136]	@ (8001750 <HAL_UART_MspInit+0xac>)
 80016c8:	4c22      	ldr	r4, [pc, #136]	@ (8001754 <HAL_UART_MspInit+0xb0>)
 80016ca:	f042 0210 	orr.w	r2, r2, #16
 80016ce:	645a      	str	r2, [r3, #68]	@ 0x44
 80016d0:	6c5a      	ldr	r2, [r3, #68]	@ 0x44
 80016d2:	f002 0210 	and.w	r2, r2, #16
 80016d6:	9201      	str	r2, [sp, #4]
 80016d8:	9a01      	ldr	r2, [sp, #4]
 80016da:	9502      	str	r5, [sp, #8]
 80016dc:	6b1a      	ldr	r2, [r3, #48]	@ 0x30
 80016de:	f042 0201 	orr.w	r2, r2, #1
 80016e2:	631a      	str	r2, [r3, #48]	@ 0x30
 80016e4:	6b1b      	ldr	r3, [r3, #48]	@ 0x30
 80016e6:	f003 0301 	and.w	r3, r3, #1
 80016ea:	9302      	str	r3, [sp, #8]
 80016ec:	9b02      	ldr	r3, [sp, #8]
 80016ee:	f44f 62c0 	mov.w	r2, #1536	@ 0x600
 80016f2:	2302      	movs	r3, #2
 80016f4:	e9cd 2303 	strd	r2, r3, [sp, #12]
 80016f8:	2103      	movs	r1, #3
 80016fa:	2307      	movs	r3, #7
 80016fc:	e9cd 1306 	strd	r1, r3, [sp, #24]
 8001700:	a903      	add	r1, sp, #12
 8001702:	f000 ff0f 	bl	8002524 <HAL_GPIO_Init>
 8001706:	4814      	ldr	r0, [pc, #80]	@ (8001758 <HAL_UART_MspInit+0xb4>)
 8001708:	61a5      	str	r5, [r4, #24]
 800170a:	f04f 6300 	mov.w	r3, #134217728	@ 0x8000000
 800170e:	e9c4 0300 	strd	r0, r3, [r4]
 8001712:	f44f 6380 	mov.w	r3, #1024	@ 0x400
 8001716:	e9c4 3504 	strd	r3, r5, [r4, #16]
 800171a:	4620      	mov	r0, r4
 800171c:	f44f 7380 	mov.w	r3, #256	@ 0x100
 8001720:	e9c4 5502 	strd	r5, r5, [r4, #8]
 8001724:	e9c4 3507 	strd	r3, r5, [r4, #28]
 8001728:	6265      	str	r5, [r4, #36]	@ 0x24
 800172a:	f000 fd35 	bl	8002198 <HAL_DMA_Init>
 800172e:	b108      	cbz	r0, 8001734 <HAL_UART_MspInit+0x90>
 8001730:	f7ff fc40 	bl	8000fb4 <Error_Handler>
 8001734:	2025      	movs	r0, #37	@ 0x25
 8001736:	63f4      	str	r4, [r6, #60]	@ 0x3c
 8001738:	2200      	movs	r2, #0
 800173a:	2105      	movs	r1, #5
 800173c:	63a6      	str	r6, [r4, #56]	@ 0x38
 800173e:	f000 fcd5 	bl	80020ec <HAL_NVIC_SetPriority>
 8001742:	2025      	movs	r0, #37	@ 0x25
 8001744:	f000 fd04 	bl	8002150 <HAL_NVIC_EnableIRQ>
 8001748:	b008      	add	sp, #32
 800174a:	bd70      	pop	{r4, r5, r6, pc}
 800174c:	40011000 	.word	0x40011000
 8001750:	40020000 	.word	0x40020000
 8001754:	20000d40 	.word	0x20000d40
 8001758:	40026440 	.word	0x40026440

0800175c <HAL_InitTick>:
 800175c:	b570      	push	{r4, r5, r6, lr}
 800175e:	b088      	sub	sp, #32
 8001760:	2300      	movs	r3, #0
 8001762:	9302      	str	r3, [sp, #8]
 8001764:	4b20      	ldr	r3, [pc, #128]	@ (80017e8 <HAL_InitTick+0x8c>)
 8001766:	6c1a      	ldr	r2, [r3, #64]	@ 0x40
 8001768:	f042 0204 	orr.w	r2, r2, #4
 800176c:	641a      	str	r2, [r3, #64]	@ 0x40
 800176e:	6c1b      	ldr	r3, [r3, #64]	@ 0x40
 8001770:	f003 0304 	and.w	r3, r3, #4
 8001774:	9302      	str	r3, [sp, #8]
 8001776:	4605      	mov	r5, r0
 8001778:	a901      	add	r1, sp, #4
 800177a:	a803      	add	r0, sp, #12
 800177c:	9b02      	ldr	r3, [sp, #8]
 800177e:	f001 fd61 	bl	8003244 <HAL_RCC_GetClockConfig>
 8001782:	9b06      	ldr	r3, [sp, #24]
 8001784:	bb4b      	cbnz	r3, 80017da <HAL_InitTick+0x7e>
 8001786:	f001 fd3d 	bl	8003204 <HAL_RCC_GetPCLK1Freq>
 800178a:	4e18      	ldr	r6, [pc, #96]	@ (80017ec <HAL_InitTick+0x90>)
 800178c:	4b18      	ldr	r3, [pc, #96]	@ (80017f0 <HAL_InitTick+0x94>)
 800178e:	6033      	str	r3, [r6, #0]
 8001790:	f240 33e7 	movw	r3, #999	@ 0x3e7
 8001794:	60f3      	str	r3, [r6, #12]
 8001796:	4b17      	ldr	r3, [pc, #92]	@ (80017f4 <HAL_InitTick+0x98>)
 8001798:	fbb0 f3f3 	udiv	r3, r0, r3
 800179c:	3b01      	subs	r3, #1
 800179e:	6073      	str	r3, [r6, #4]
 80017a0:	4630      	mov	r0, r6
 80017a2:	2300      	movs	r3, #0
 80017a4:	6133      	str	r3, [r6, #16]
 80017a6:	60b3      	str	r3, [r6, #8]
 80017a8:	61b3      	str	r3, [r6, #24]
 80017aa:	f002 f9f9 	bl	8003ba0 <HAL_TIM_Base_Init>
 80017ae:	4604      	mov	r4, r0
 80017b0:	b980      	cbnz	r0, 80017d4 <HAL_InitTick+0x78>
 80017b2:	4630      	mov	r0, r6
 80017b4:	f002 f8d6 	bl	8003964 <HAL_TIM_Base_Start_IT>
 80017b8:	4604      	mov	r4, r0
 80017ba:	b958      	cbnz	r0, 80017d4 <HAL_InitTick+0x78>
 80017bc:	201e      	movs	r0, #30
 80017be:	f000 fcc7 	bl	8002150 <HAL_NVIC_EnableIRQ>
 80017c2:	2d0f      	cmp	r5, #15
 80017c4:	d80d      	bhi.n	80017e2 <HAL_InitTick+0x86>
 80017c6:	4622      	mov	r2, r4
 80017c8:	4629      	mov	r1, r5
 80017ca:	201e      	movs	r0, #30
 80017cc:	f000 fc8e 	bl	80020ec <HAL_NVIC_SetPriority>
 80017d0:	4b09      	ldr	r3, [pc, #36]	@ (80017f8 <HAL_InitTick+0x9c>)
 80017d2:	601d      	str	r5, [r3, #0]
 80017d4:	4620      	mov	r0, r4
 80017d6:	b008      	add	sp, #32
 80017d8:	bd70      	pop	{r4, r5, r6, pc}
 80017da:	f001 fd13 	bl	8003204 <HAL_RCC_GetPCLK1Freq>
 80017de:	0040      	lsls	r0, r0, #1
 80017e0:	e7d3      	b.n	800178a <HAL_InitTick+0x2e>
 80017e2:	2401      	movs	r4, #1
 80017e4:	e7f6      	b.n	80017d4 <HAL_InitTick+0x78>
 80017e6:	bf00      	nop
 80017e8:	40023800 	.word	0x40023800
 80017ec:	2000132c 	.word	0x2000132c
 80017f0:	40000800 	.word	0x40000800
 80017f4:	000f4240 	.word	0x000f4240
 80017f8:	200002b0 	.word	0x200002b0

080017fc <NMI_Handler>:
 80017fc:	e7fe      	b.n	80017fc <NMI_Handler>

080017fe <HardFault_Handler>:
 80017fe:	e7fe      	b.n	80017fe <HardFault_Handler>

08001800 <MemManage_Handler>:
 8001800:	e7fe      	b.n	8001800 <MemManage_Handler>

08001802 <BusFault_Handler>:
 8001802:	e7fe      	b.n	8001802 <BusFault_Handler>

08001804 <UsageFault_Handler>:
 8001804:	e7fe      	b.n	8001804 <UsageFault_Handler>

08001806 <DebugMon_Handler>:
 8001806:	4770      	bx	lr

08001808 <EXTI2_IRQHandler>:
 8001808:	2004      	movs	r0, #4
 800180a:	f000 bf57 	b.w	80026bc <HAL_GPIO_EXTI_IRQHandler>
	...

08001810 <TIM1_UP_TIM10_IRQHandler>:
 8001810:	4801      	ldr	r0, [pc, #4]	@ (8001818 <TIM1_UP_TIM10_IRQHandler+0x8>)
 8001812:	f002 b8dd 	b.w	80039d0 <HAL_TIM_IRQHandler>
 8001816:	bf00      	nop
 8001818:	20000de8 	.word	0x20000de8

0800181c <TIM3_IRQHandler>:
 800181c:	4801      	ldr	r0, [pc, #4]	@ (8001824 <TIM3_IRQHandler+0x8>)
 800181e:	f002 b8d7 	b.w	80039d0 <HAL_TIM_IRQHandler>
 8001822:	bf00      	nop
 8001824:	20000e30 	.word	0x20000e30

08001828 <TIM4_IRQHandler>:
 8001828:	4801      	ldr	r0, [pc, #4]	@ (8001830 <TIM4_IRQHandler+0x8>)
 800182a:	f002 b8d1 	b.w	80039d0 <HAL_TIM_IRQHandler>
 800182e:	bf00      	nop
 8001830:	2000132c 	.word	0x2000132c

08001834 <USART1_IRQHandler>:
 8001834:	4801      	ldr	r0, [pc, #4]	@ (800183c <USART1_IRQHandler+0x8>)
 8001836:	f002 bccd 	b.w	80041d4 <HAL_UART_IRQHandler>
 800183a:	bf00      	nop
 800183c:	20000da0 	.word	0x20000da0

08001840 <DMA2_Stream2_IRQHandler>:
 8001840:	4801      	ldr	r0, [pc, #4]	@ (8001848 <DMA2_Stream2_IRQHandler+0x8>)
 8001842:	f000 bdb1 	b.w	80023a8 <HAL_DMA_IRQHandler>
 8001846:	bf00      	nop
 8001848:	20000d40 	.word	0x20000d40

0800184c <SystemInit>:
 800184c:	4a03      	ldr	r2, [pc, #12]	@ (800185c <SystemInit+0x10>)
 800184e:	f8d2 3088 	ldr.w	r3, [r2, #136]	@ 0x88
 8001852:	f443 0370 	orr.w	r3, r3, #15728640	@ 0xf00000
 8001856:	f8c2 3088 	str.w	r3, [r2, #136]	@ 0x88
 800185a:	4770      	bx	lr
 800185c:	e000ed00 	.word	0xe000ed00

08001860 <Reset_Handler>:
 8001860:	f8df d034 	ldr.w	sp, [pc, #52]	@ 8001898 <LoopFillZerobss+0xe>
 8001864:	f7ff fff2 	bl	800184c <SystemInit>
 8001868:	480c      	ldr	r0, [pc, #48]	@ (800189c <LoopFillZerobss+0x12>)
 800186a:	490d      	ldr	r1, [pc, #52]	@ (80018a0 <LoopFillZerobss+0x16>)
 800186c:	4a0d      	ldr	r2, [pc, #52]	@ (80018a4 <LoopFillZerobss+0x1a>)
 800186e:	2300      	movs	r3, #0
 8001870:	e002      	b.n	8001878 <LoopCopyDataInit>

08001872 <CopyDataInit>:
 8001872:	58d4      	ldr	r4, [r2, r3]
 8001874:	50c4      	str	r4, [r0, r3]
 8001876:	3304      	adds	r3, #4

08001878 <LoopCopyDataInit>:
 8001878:	18c4      	adds	r4, r0, r3
 800187a:	428c      	cmp	r4, r1
 800187c:	d3f9      	bcc.n	8001872 <CopyDataInit>
 800187e:	4a0a      	ldr	r2, [pc, #40]	@ (80018a8 <LoopFillZerobss+0x1e>)
 8001880:	4c0a      	ldr	r4, [pc, #40]	@ (80018ac <LoopFillZerobss+0x22>)
 8001882:	2300      	movs	r3, #0
 8001884:	e001      	b.n	800188a <LoopFillZerobss>

08001886 <FillZerobss>:
 8001886:	6013      	str	r3, [r2, #0]
 8001888:	3204      	adds	r2, #4

0800188a <LoopFillZerobss>:
 800188a:	42a2      	cmp	r2, r4
 800188c:	d3fb      	bcc.n	8001886 <FillZerobss>
 800188e:	f005 f8f3 	bl	8006a78 <__libc_init_array>
 8001892:	f7fe ffc3 	bl	800081c <main>
 8001896:	4770      	bx	lr
 8001898:	20020000 	.word	0x20020000
 800189c:	20000000 	.word	0x20000000
 80018a0:	20000308 	.word	0x20000308
 80018a4:	0800760c 	.word	0x0800760c
 80018a8:	20000308 	.word	0x20000308
 80018ac:	20005e7c 	.word	0x20005e7c

080018b0 <ADC_IRQHandler>:
 80018b0:	e7fe      	b.n	80018b0 <ADC_IRQHandler>
	...

080018b4 <NRF24_csn.part.0>:
 80018b4:	4b03      	ldr	r3, [pc, #12]	@ (80018c4 <NRF24_csn.part.0+0x10>)
 80018b6:	8819      	ldrh	r1, [r3, #0]
 80018b8:	4b03      	ldr	r3, [pc, #12]	@ (80018c8 <NRF24_csn.part.0+0x14>)
 80018ba:	2201      	movs	r2, #1
 80018bc:	6818      	ldr	r0, [r3, #0]
 80018be:	f000 bef7 	b.w	80026b0 <HAL_GPIO_WritePin>
 80018c2:	bf00      	nop
 80018c4:	200013ce 	.word	0x200013ce
 80018c8:	200013d0 	.word	0x200013d0

080018cc <NRF24_ce.part.0>:
 80018cc:	4b03      	ldr	r3, [pc, #12]	@ (80018dc <NRF24_ce.part.0+0x10>)
 80018ce:	8819      	ldrh	r1, [r3, #0]
 80018d0:	4b03      	ldr	r3, [pc, #12]	@ (80018e0 <NRF24_ce.part.0+0x14>)
 80018d2:	2201      	movs	r2, #1
 80018d4:	6818      	ldr	r0, [r3, #0]
 80018d6:	f000 beeb 	b.w	80026b0 <HAL_GPIO_WritePin>
 80018da:	bf00      	nop
 80018dc:	200013cc 	.word	0x200013cc
 80018e0:	200013d0 	.word	0x200013d0

080018e4 <NRF24_csn>:
 80018e4:	4602      	mov	r2, r0
 80018e6:	b108      	cbz	r0, 80018ec <NRF24_csn+0x8>
 80018e8:	f7ff bfe4 	b.w	80018b4 <NRF24_csn.part.0>
 80018ec:	4b02      	ldr	r3, [pc, #8]	@ (80018f8 <NRF24_csn+0x14>)
 80018ee:	8819      	ldrh	r1, [r3, #0]
 80018f0:	4b02      	ldr	r3, [pc, #8]	@ (80018fc <NRF24_csn+0x18>)
 80018f2:	6818      	ldr	r0, [r3, #0]
 80018f4:	f000 bedc 	b.w	80026b0 <HAL_GPIO_WritePin>
 80018f8:	200013ce 	.word	0x200013ce
 80018fc:	200013d0 	.word	0x200013d0

08001900 <NRF24_ce>:
 8001900:	4602      	mov	r2, r0
 8001902:	b108      	cbz	r0, 8001908 <NRF24_ce+0x8>
 8001904:	f7ff bfe2 	b.w	80018cc <NRF24_ce.part.0>
 8001908:	4b02      	ldr	r3, [pc, #8]	@ (8001914 <NRF24_ce+0x14>)
 800190a:	8819      	ldrh	r1, [r3, #0]
 800190c:	4b02      	ldr	r3, [pc, #8]	@ (8001918 <NRF24_ce+0x18>)
 800190e:	6818      	ldr	r0, [r3, #0]
 8001910:	f000 bece 	b.w	80026b0 <HAL_GPIO_WritePin>
 8001914:	200013cc 	.word	0x200013cc
 8001918:	200013d0 	.word	0x200013d0

0800191c <NRF24_read_register>:
 800191c:	b513      	push	{r0, r1, r4, lr}
 800191e:	4604      	mov	r4, r0
 8001920:	f004 041f 	and.w	r4, r4, #31
 8001924:	2000      	movs	r0, #0
 8001926:	f7ff ffdd 	bl	80018e4 <NRF24_csn>
 800192a:	f88d 4004 	strb.w	r4, [sp, #4]
 800192e:	4c0a      	ldr	r4, [pc, #40]	@ (8001958 <NRF24_read_register+0x3c>)
 8001930:	a901      	add	r1, sp, #4
 8001932:	2364      	movs	r3, #100	@ 0x64
 8001934:	2201      	movs	r2, #1
 8001936:	4620      	mov	r0, r4
 8001938:	f001 fdc4 	bl	80034c4 <HAL_SPI_Transmit>
 800193c:	2364      	movs	r3, #100	@ 0x64
 800193e:	2201      	movs	r2, #1
 8001940:	f10d 0105 	add.w	r1, sp, #5
 8001944:	4620      	mov	r0, r4
 8001946:	f001 ff68 	bl	800381a <HAL_SPI_Receive>
 800194a:	f89d 4005 	ldrb.w	r4, [sp, #5]
 800194e:	f7ff ffb1 	bl	80018b4 <NRF24_csn.part.0>
 8001952:	4620      	mov	r0, r4
 8001954:	b002      	add	sp, #8
 8001956:	bd10      	pop	{r4, pc}
 8001958:	20001374 	.word	0x20001374

0800195c <NRF24_read_registerN>:
 800195c:	b573      	push	{r0, r1, r4, r5, r6, lr}
 800195e:	4604      	mov	r4, r0
 8001960:	f004 041f 	and.w	r4, r4, #31
 8001964:	2000      	movs	r0, #0
 8001966:	460d      	mov	r5, r1
 8001968:	4616      	mov	r6, r2
 800196a:	f7ff ffbb 	bl	80018e4 <NRF24_csn>
 800196e:	f88d 4004 	strb.w	r4, [sp, #4]
 8001972:	4c08      	ldr	r4, [pc, #32]	@ (8001994 <NRF24_read_registerN+0x38>)
 8001974:	a901      	add	r1, sp, #4
 8001976:	2364      	movs	r3, #100	@ 0x64
 8001978:	2201      	movs	r2, #1
 800197a:	4620      	mov	r0, r4
 800197c:	f001 fda2 	bl	80034c4 <HAL_SPI_Transmit>
 8001980:	2364      	movs	r3, #100	@ 0x64
 8001982:	4632      	mov	r2, r6
 8001984:	4629      	mov	r1, r5
 8001986:	4620      	mov	r0, r4
 8001988:	f001 ff47 	bl	800381a <HAL_SPI_Receive>
 800198c:	f7ff ff92 	bl	80018b4 <NRF24_csn.part.0>
 8001990:	b002      	add	sp, #8
 8001992:	bd70      	pop	{r4, r5, r6, pc}
 8001994:	20001374 	.word	0x20001374

08001998 <NRF24_write_register>:
 8001998:	b537      	push	{r0, r1, r2, r4, r5, lr}
 800199a:	4604      	mov	r4, r0
 800199c:	2000      	movs	r0, #0
 800199e:	460d      	mov	r5, r1
 80019a0:	f044 0420 	orr.w	r4, r4, #32
 80019a4:	f7ff ff9e 	bl	80018e4 <NRF24_csn>
 80019a8:	2364      	movs	r3, #100	@ 0x64
 80019aa:	2202      	movs	r2, #2
 80019ac:	a901      	add	r1, sp, #4
 80019ae:	4805      	ldr	r0, [pc, #20]	@ (80019c4 <NRF24_write_register+0x2c>)
 80019b0:	f88d 4004 	strb.w	r4, [sp, #4]
 80019b4:	f88d 5005 	strb.w	r5, [sp, #5]
 80019b8:	f001 fd84 	bl	80034c4 <HAL_SPI_Transmit>
 80019bc:	f7ff ff7a 	bl	80018b4 <NRF24_csn.part.0>
 80019c0:	b003      	add	sp, #12
 80019c2:	bd30      	pop	{r4, r5, pc}
 80019c4:	20001374 	.word	0x20001374

080019c8 <NRF24_write_registerN>:
 80019c8:	b573      	push	{r0, r1, r4, r5, r6, lr}
 80019ca:	4604      	mov	r4, r0
 80019cc:	f044 0420 	orr.w	r4, r4, #32
 80019d0:	2000      	movs	r0, #0
 80019d2:	460d      	mov	r5, r1
 80019d4:	4616      	mov	r6, r2
 80019d6:	f7ff ff85 	bl	80018e4 <NRF24_csn>
 80019da:	f88d 4004 	strb.w	r4, [sp, #4]
 80019de:	4c08      	ldr	r4, [pc, #32]	@ (8001a00 <NRF24_write_registerN+0x38>)
 80019e0:	a901      	add	r1, sp, #4
 80019e2:	2364      	movs	r3, #100	@ 0x64
 80019e4:	2201      	movs	r2, #1
 80019e6:	4620      	mov	r0, r4
 80019e8:	f001 fd6c 	bl	80034c4 <HAL_SPI_Transmit>
 80019ec:	2364      	movs	r3, #100	@ 0x64
 80019ee:	4632      	mov	r2, r6
 80019f0:	4629      	mov	r1, r5
 80019f2:	4620      	mov	r0, r4
 80019f4:	f001 fd66 	bl	80034c4 <HAL_SPI_Transmit>
 80019f8:	f7ff ff5c 	bl	80018b4 <NRF24_csn.part.0>
 80019fc:	b002      	add	sp, #8
 80019fe:	bd70      	pop	{r4, r5, r6, pc}
 8001a00:	20001374 	.word	0x20001374

08001a04 <NRF24_write_payload>:
 8001a04:	b573      	push	{r0, r1, r4, r5, r6, lr}
 8001a06:	4e0d      	ldr	r6, [pc, #52]	@ (8001a3c <NRF24_write_payload+0x38>)
 8001a08:	4604      	mov	r4, r0
 8001a0a:	2000      	movs	r0, #0
 8001a0c:	460d      	mov	r5, r1
 8001a0e:	f7ff ff69 	bl	80018e4 <NRF24_csn>
 8001a12:	23a0      	movs	r3, #160	@ 0xa0
 8001a14:	f88d 3007 	strb.w	r3, [sp, #7]
 8001a18:	f10d 0107 	add.w	r1, sp, #7
 8001a1c:	2364      	movs	r3, #100	@ 0x64
 8001a1e:	2201      	movs	r2, #1
 8001a20:	4630      	mov	r0, r6
 8001a22:	f001 fd4f 	bl	80034c4 <HAL_SPI_Transmit>
 8001a26:	2364      	movs	r3, #100	@ 0x64
 8001a28:	462a      	mov	r2, r5
 8001a2a:	4621      	mov	r1, r4
 8001a2c:	4630      	mov	r0, r6
 8001a2e:	f001 fd49 	bl	80034c4 <HAL_SPI_Transmit>
 8001a32:	f7ff ff3f 	bl	80018b4 <NRF24_csn.part.0>
 8001a36:	b002      	add	sp, #8
 8001a38:	bd70      	pop	{r4, r5, r6, pc}
 8001a3a:	bf00      	nop
 8001a3c:	20001374 	.word	0x20001374

08001a40 <NRF24_read_payload>:
 8001a40:	b573      	push	{r0, r1, r4, r5, r6, lr}
 8001a42:	4b0f      	ldr	r3, [pc, #60]	@ (8001a80 <NRF24_read_payload+0x40>)
 8001a44:	4e0f      	ldr	r6, [pc, #60]	@ (8001a84 <NRF24_read_payload+0x44>)
 8001a46:	781d      	ldrb	r5, [r3, #0]
 8001a48:	4604      	mov	r4, r0
 8001a4a:	428d      	cmp	r5, r1
 8001a4c:	f04f 0000 	mov.w	r0, #0
 8001a50:	bf28      	it	cs
 8001a52:	460d      	movcs	r5, r1
 8001a54:	f7ff ff46 	bl	80018e4 <NRF24_csn>
 8001a58:	2361      	movs	r3, #97	@ 0x61
 8001a5a:	f88d 3007 	strb.w	r3, [sp, #7]
 8001a5e:	f10d 0107 	add.w	r1, sp, #7
 8001a62:	2364      	movs	r3, #100	@ 0x64
 8001a64:	2201      	movs	r2, #1
 8001a66:	4630      	mov	r0, r6
 8001a68:	f001 fd2c 	bl	80034c4 <HAL_SPI_Transmit>
 8001a6c:	2364      	movs	r3, #100	@ 0x64
 8001a6e:	462a      	mov	r2, r5
 8001a70:	4621      	mov	r1, r4
 8001a72:	4630      	mov	r0, r6
 8001a74:	f001 fed1 	bl	800381a <HAL_SPI_Receive>
 8001a78:	f7ff ff1c 	bl	80018b4 <NRF24_csn.part.0>
 8001a7c:	b002      	add	sp, #8
 8001a7e:	bd70      	pop	{r4, r5, r6, pc}
 8001a80:	200013d4 	.word	0x200013d4
 8001a84:	20001374 	.word	0x20001374

08001a88 <NRF24_flush_tx>:
 8001a88:	21ff      	movs	r1, #255	@ 0xff
 8001a8a:	20e1      	movs	r0, #225	@ 0xe1
 8001a8c:	f7ff bf84 	b.w	8001998 <NRF24_write_register>

08001a90 <NRF24_flush_rx>:
 8001a90:	21ff      	movs	r1, #255	@ 0xff
 8001a92:	20e2      	movs	r0, #226	@ 0xe2
 8001a94:	f7ff bf80 	b.w	8001998 <NRF24_write_register>

08001a98 <NRF24_get_status>:
 8001a98:	2007      	movs	r0, #7
 8001a9a:	f7ff bf3f 	b.w	800191c <NRF24_read_register>
	...

08001aa0 <NRF24_startListening>:
 8001aa0:	b508      	push	{r3, lr}
 8001aa2:	2000      	movs	r0, #0
 8001aa4:	f7ff ff3a 	bl	800191c <NRF24_read_register>
 8001aa8:	f040 0103 	orr.w	r1, r0, #3
 8001aac:	b2c9      	uxtb	r1, r1
 8001aae:	2000      	movs	r0, #0
 8001ab0:	f7ff ff72 	bl	8001998 <NRF24_write_register>
 8001ab4:	4908      	ldr	r1, [pc, #32]	@ (8001ad8 <NRF24_startListening+0x38>)
 8001ab6:	e9d1 3200 	ldrd	r3, r2, [r1]
 8001aba:	4313      	orrs	r3, r2
 8001abc:	d003      	beq.n	8001ac6 <NRF24_startListening+0x26>
 8001abe:	2205      	movs	r2, #5
 8001ac0:	200a      	movs	r0, #10
 8001ac2:	f7ff ff81 	bl	80019c8 <NRF24_write_registerN>
 8001ac6:	f7ff ffdf 	bl	8001a88 <NRF24_flush_tx>
 8001aca:	f7ff ffe1 	bl	8001a90 <NRF24_flush_rx>
 8001ace:	e8bd 4008 	ldmia.w	sp!, {r3, lr}
 8001ad2:	f7ff befb 	b.w	80018cc <NRF24_ce.part.0>
 8001ad6:	bf00      	nop
 8001ad8:	200013d8 	.word	0x200013d8

08001adc <NRF24_stopListening>:
 8001adc:	b508      	push	{r3, lr}
 8001ade:	2000      	movs	r0, #0
 8001ae0:	f7ff ff0e 	bl	8001900 <NRF24_ce>
 8001ae4:	f7ff ffd0 	bl	8001a88 <NRF24_flush_tx>
 8001ae8:	e8bd 4008 	ldmia.w	sp!, {r3, lr}
 8001aec:	f7ff bfd0 	b.w	8001a90 <NRF24_flush_rx>

08001af0 <NRF24_openWritingPipe>:
 8001af0:	b507      	push	{r0, r1, r2, lr}
 8001af2:	2205      	movs	r2, #5
 8001af4:	e9cd 0100 	strd	r0, r1, [sp]
 8001af8:	4669      	mov	r1, sp
 8001afa:	200a      	movs	r0, #10
 8001afc:	f7ff ff64 	bl	80019c8 <NRF24_write_registerN>
 8001b00:	2205      	movs	r2, #5
 8001b02:	4669      	mov	r1, sp
 8001b04:	2010      	movs	r0, #16
 8001b06:	f7ff ff5f 	bl	80019c8 <NRF24_write_registerN>
 8001b0a:	4b05      	ldr	r3, [pc, #20]	@ (8001b20 <NRF24_openWritingPipe+0x30>)
 8001b0c:	7819      	ldrb	r1, [r3, #0]
 8001b0e:	2920      	cmp	r1, #32
 8001b10:	bf28      	it	cs
 8001b12:	2120      	movcs	r1, #32
 8001b14:	2011      	movs	r0, #17
 8001b16:	f7ff ff3f 	bl	8001998 <NRF24_write_register>
 8001b1a:	b003      	add	sp, #12
 8001b1c:	f85d fb04 	ldr.w	pc, [sp], #4
 8001b20:	200013d4 	.word	0x200013d4

08001b24 <NRF24_openReadingPipe>:
 8001b24:	b513      	push	{r0, r1, r4, lr}
 8001b26:	4604      	mov	r4, r0
 8001b28:	e9cd 2300 	strd	r2, r3, [sp]
 8001b2c:	b9e8      	cbnz	r0, 8001b6a <NRF24_openReadingPipe+0x46>
 8001b2e:	4619      	mov	r1, r3
 8001b30:	4b12      	ldr	r3, [pc, #72]	@ (8001b7c <NRF24_openReadingPipe+0x58>)
 8001b32:	4610      	mov	r0, r2
 8001b34:	e9c3 0100 	strd	r0, r1, [r3]
 8001b38:	4b11      	ldr	r3, [pc, #68]	@ (8001b80 <NRF24_openReadingPipe+0x5c>)
 8001b3a:	5d18      	ldrb	r0, [r3, r4]
 8001b3c:	2205      	movs	r2, #5
 8001b3e:	4669      	mov	r1, sp
 8001b40:	f7ff ff42 	bl	80019c8 <NRF24_write_registerN>
 8001b44:	4b0f      	ldr	r3, [pc, #60]	@ (8001b84 <NRF24_openReadingPipe+0x60>)
 8001b46:	7819      	ldrb	r1, [r3, #0]
 8001b48:	4b0f      	ldr	r3, [pc, #60]	@ (8001b88 <NRF24_openReadingPipe+0x64>)
 8001b4a:	5d18      	ldrb	r0, [r3, r4]
 8001b4c:	f7ff ff24 	bl	8001998 <NRF24_write_register>
 8001b50:	2002      	movs	r0, #2
 8001b52:	f7ff fee3 	bl	800191c <NRF24_read_register>
 8001b56:	2301      	movs	r3, #1
 8001b58:	40a3      	lsls	r3, r4
 8001b5a:	ea40 0103 	orr.w	r1, r0, r3
 8001b5e:	b2c9      	uxtb	r1, r1
 8001b60:	2002      	movs	r0, #2
 8001b62:	f7ff ff19 	bl	8001998 <NRF24_write_register>
 8001b66:	b002      	add	sp, #8
 8001b68:	bd10      	pop	{r4, pc}
 8001b6a:	2806      	cmp	r0, #6
 8001b6c:	d8fb      	bhi.n	8001b66 <NRF24_openReadingPipe+0x42>
 8001b6e:	4b04      	ldr	r3, [pc, #16]	@ (8001b80 <NRF24_openReadingPipe+0x5c>)
 8001b70:	2c01      	cmp	r4, #1
 8001b72:	5c18      	ldrb	r0, [r3, r0]
 8001b74:	d0e0      	beq.n	8001b38 <NRF24_openReadingPipe+0x14>
 8001b76:	2201      	movs	r2, #1
 8001b78:	4669      	mov	r1, sp
 8001b7a:	e7e1      	b.n	8001b40 <NRF24_openReadingPipe+0x1c>
 8001b7c:	200013d8 	.word	0x200013d8
 8001b80:	080074da 	.word	0x080074da
 8001b84:	200013d4 	.word	0x200013d4
 8001b88:	080074d4 	.word	0x080074d4

08001b8c <NRF24_setChannel>:
 8001b8c:	287f      	cmp	r0, #127	@ 0x7f
 8001b8e:	4601      	mov	r1, r0
 8001b90:	bf28      	it	cs
 8001b92:	217f      	movcs	r1, #127	@ 0x7f
 8001b94:	2005      	movs	r0, #5
 8001b96:	f7ff beff 	b.w	8001998 <NRF24_write_register>
	...

08001b9c <NRF24_setPayloadSize>:
 8001b9c:	4b02      	ldr	r3, [pc, #8]	@ (8001ba8 <NRF24_setPayloadSize+0xc>)
 8001b9e:	2820      	cmp	r0, #32
 8001ba0:	bf28      	it	cs
 8001ba2:	2020      	movcs	r0, #32
 8001ba4:	7018      	strb	r0, [r3, #0]
 8001ba6:	4770      	bx	lr
 8001ba8:	200013d4 	.word	0x200013d4

08001bac <NRF24_getDynamicPayloadSize>:
 8001bac:	2060      	movs	r0, #96	@ 0x60
 8001bae:	f7ff beb5 	b.w	800191c <NRF24_read_register>

08001bb2 <NRF24_read>:
 8001bb2:	b510      	push	{r4, lr}
 8001bb4:	f7ff ff44 	bl	8001a40 <NRF24_read_payload>
 8001bb8:	2017      	movs	r0, #23
 8001bba:	f7ff feaf 	bl	800191c <NRF24_read_register>
 8001bbe:	4604      	mov	r4, r0
 8001bc0:	f7ff ff66 	bl	8001a90 <NRF24_flush_rx>
 8001bc4:	f7ff fff2 	bl	8001bac <NRF24_getDynamicPayloadSize>
 8001bc8:	f004 0001 	and.w	r0, r4, #1
 8001bcc:	bd10      	pop	{r4, pc}

08001bce <NRF24_disableDynamicPayloads>:
 8001bce:	b508      	push	{r3, lr}
 8001bd0:	201d      	movs	r0, #29
 8001bd2:	f7ff fea3 	bl	800191c <NRF24_read_register>
 8001bd6:	f000 01fb 	and.w	r1, r0, #251	@ 0xfb
 8001bda:	201d      	movs	r0, #29
 8001bdc:	f7ff fedc 	bl	8001998 <NRF24_write_register>
 8001be0:	e8bd 4008 	ldmia.w	sp!, {r3, lr}
 8001be4:	2100      	movs	r1, #0
 8001be6:	201c      	movs	r0, #28
 8001be8:	f7ff bed6 	b.w	8001998 <NRF24_write_register>

08001bec <NRF24_setAutoAck>:
 8001bec:	4601      	mov	r1, r0
 8001bee:	b100      	cbz	r0, 8001bf2 <NRF24_setAutoAck+0x6>
 8001bf0:	213f      	movs	r1, #63	@ 0x3f
 8001bf2:	2001      	movs	r0, #1
 8001bf4:	f7ff bed0 	b.w	8001998 <NRF24_write_register>

08001bf8 <NRF24_setPALevel>:
 8001bf8:	b510      	push	{r4, lr}
 8001bfa:	4604      	mov	r4, r0
 8001bfc:	2006      	movs	r0, #6
 8001bfe:	f7ff fe8d 	bl	800191c <NRF24_read_register>
 8001c02:	2c03      	cmp	r4, #3
 8001c04:	f000 01f9 	and.w	r1, r0, #249	@ 0xf9
 8001c08:	d102      	bne.n	8001c10 <NRF24_setPALevel+0x18>
 8001c0a:	f041 0106 	orr.w	r1, r1, #6
 8001c0e:	e00a      	b.n	8001c26 <NRF24_setPALevel+0x2e>
 8001c10:	2c02      	cmp	r4, #2
 8001c12:	d006      	beq.n	8001c22 <NRF24_setPALevel+0x2a>
 8001c14:	2c04      	cmp	r4, #4
 8001c16:	d0f8      	beq.n	8001c0a <NRF24_setPALevel+0x12>
 8001c18:	2c01      	cmp	r4, #1
 8001c1a:	d104      	bne.n	8001c26 <NRF24_setPALevel+0x2e>
 8001c1c:	f041 0102 	orr.w	r1, r1, #2
 8001c20:	e001      	b.n	8001c26 <NRF24_setPALevel+0x2e>
 8001c22:	f041 0104 	orr.w	r1, r1, #4
 8001c26:	e8bd 4010 	ldmia.w	sp!, {r4, lr}
 8001c2a:	2006      	movs	r0, #6
 8001c2c:	f7ff beb4 	b.w	8001998 <NRF24_write_register>

08001c30 <NRF24_setDataRate>:
 8001c30:	b538      	push	{r3, r4, r5, lr}
 8001c32:	4605      	mov	r5, r0
 8001c34:	2006      	movs	r0, #6
 8001c36:	f7ff fe71 	bl	800191c <NRF24_read_register>
 8001c3a:	2d02      	cmp	r5, #2
 8001c3c:	f000 04d7 	and.w	r4, r0, #215	@ 0xd7
 8001c40:	d10c      	bne.n	8001c5c <NRF24_setDataRate+0x2c>
 8001c42:	f044 0420 	orr.w	r4, r4, #32
 8001c46:	4621      	mov	r1, r4
 8001c48:	2006      	movs	r0, #6
 8001c4a:	f7ff fea5 	bl	8001998 <NRF24_write_register>
 8001c4e:	2006      	movs	r0, #6
 8001c50:	f7ff fe64 	bl	800191c <NRF24_read_register>
 8001c54:	1b03      	subs	r3, r0, r4
 8001c56:	4258      	negs	r0, r3
 8001c58:	4158      	adcs	r0, r3
 8001c5a:	bd38      	pop	{r3, r4, r5, pc}
 8001c5c:	2d01      	cmp	r5, #1
 8001c5e:	bf08      	it	eq
 8001c60:	f044 0408 	orreq.w	r4, r4, #8
 8001c64:	e7ef      	b.n	8001c46 <NRF24_setDataRate+0x16>

08001c66 <NRF24_setCRCLength>:
 8001c66:	b510      	push	{r4, lr}
 8001c68:	4604      	mov	r4, r0
 8001c6a:	2000      	movs	r0, #0
 8001c6c:	f7ff fe56 	bl	800191c <NRF24_read_register>
 8001c70:	f000 01f3 	and.w	r1, r0, #243	@ 0xf3
 8001c74:	b12c      	cbz	r4, 8001c82 <NRF24_setCRCLength+0x1c>
 8001c76:	2c01      	cmp	r4, #1
 8001c78:	bf0c      	ite	eq
 8001c7a:	f041 0108 	orreq.w	r1, r1, #8
 8001c7e:	f041 010c 	orrne.w	r1, r1, #12
 8001c82:	e8bd 4010 	ldmia.w	sp!, {r4, lr}
 8001c86:	2000      	movs	r0, #0
 8001c88:	f7ff be86 	b.w	8001998 <NRF24_write_register>

08001c8c <NRF24_ActivateRXInterrupt>:
 8001c8c:	b508      	push	{r3, lr}
 8001c8e:	2000      	movs	r0, #0
 8001c90:	f7ff fe44 	bl	800191c <NRF24_read_register>
 8001c94:	f040 0140 	orr.w	r1, r0, #64	@ 0x40
 8001c98:	e8bd 4008 	ldmia.w	sp!, {r3, lr}
 8001c9c:	b2c9      	uxtb	r1, r1
 8001c9e:	2000      	movs	r0, #0
 8001ca0:	f7ff be7a 	b.w	8001998 <NRF24_write_register>

08001ca4 <NRF24_powerDown>:
 8001ca4:	b508      	push	{r3, lr}
 8001ca6:	2000      	movs	r0, #0
 8001ca8:	f7ff fe38 	bl	800191c <NRF24_read_register>
 8001cac:	e8bd 4008 	ldmia.w	sp!, {r3, lr}
 8001cb0:	f000 01fd 	and.w	r1, r0, #253	@ 0xfd
 8001cb4:	2000      	movs	r0, #0
 8001cb6:	f7ff be6f 	b.w	8001998 <NRF24_write_register>

08001cba <NRF24_availablePipe>:
 8001cba:	b570      	push	{r4, r5, r6, lr}
 8001cbc:	4605      	mov	r5, r0
 8001cbe:	f7ff feeb 	bl	8001a98 <NRF24_get_status>
 8001cc2:	f000 0340 	and.w	r3, r0, #64	@ 0x40
 8001cc6:	2b00      	cmp	r3, #0
 8001cc8:	4604      	mov	r4, r0
 8001cca:	bf14      	ite	ne
 8001ccc:	2601      	movne	r6, #1
 8001cce:	2600      	moveq	r6, #0
 8001cd0:	d00d      	beq.n	8001cee <NRF24_availablePipe+0x34>
 8001cd2:	b115      	cbz	r5, 8001cda <NRF24_availablePipe+0x20>
 8001cd4:	f3c0 0342 	ubfx	r3, r0, #1, #3
 8001cd8:	702b      	strb	r3, [r5, #0]
 8001cda:	2140      	movs	r1, #64	@ 0x40
 8001cdc:	2007      	movs	r0, #7
 8001cde:	f7ff fe5b 	bl	8001998 <NRF24_write_register>
 8001ce2:	06a3      	lsls	r3, r4, #26
 8001ce4:	d503      	bpl.n	8001cee <NRF24_availablePipe+0x34>
 8001ce6:	2120      	movs	r1, #32
 8001ce8:	2007      	movs	r0, #7
 8001cea:	f7ff fe55 	bl	8001998 <NRF24_write_register>
 8001cee:	4630      	mov	r0, r6
 8001cf0:	bd70      	pop	{r4, r5, r6, pc}

08001cf2 <NRF24_available>:
 8001cf2:	2000      	movs	r0, #0
 8001cf4:	f7ff bfe1 	b.w	8001cba <NRF24_availablePipe>

08001cf8 <NRF24_startWrite>:
 8001cf8:	b538      	push	{r3, r4, r5, lr}
 8001cfa:	4604      	mov	r4, r0
 8001cfc:	2000      	movs	r0, #0
 8001cfe:	460d      	mov	r5, r1
 8001d00:	f7ff fdfe 	bl	8001900 <NRF24_ce>
 8001d04:	2000      	movs	r0, #0
 8001d06:	f7ff fe09 	bl	800191c <NRF24_read_register>
 8001d0a:	f000 01fe 	and.w	r1, r0, #254	@ 0xfe
 8001d0e:	f041 0102 	orr.w	r1, r1, #2
 8001d12:	2000      	movs	r0, #0
 8001d14:	f7ff fe40 	bl	8001998 <NRF24_write_register>
 8001d18:	f7ff fdd8 	bl	80018cc <NRF24_ce.part.0>
 8001d1c:	4620      	mov	r0, r4
 8001d1e:	4629      	mov	r1, r5
 8001d20:	f7ff fe70 	bl	8001a04 <NRF24_write_payload>
 8001d24:	f7ff fdd2 	bl	80018cc <NRF24_ce.part.0>
 8001d28:	e8bd 4038 	ldmia.w	sp!, {r3, r4, r5, lr}
 8001d2c:	2000      	movs	r0, #0
 8001d2e:	f7ff bde7 	b.w	8001900 <NRF24_ce>

08001d32 <NRF24_writeAckPayload>:
 8001d32:	b570      	push	{r4, r5, r6, lr}
 8001d34:	4616      	mov	r6, r2
 8001d36:	4604      	mov	r4, r0
 8001d38:	2000      	movs	r0, #0
 8001d3a:	460d      	mov	r5, r1
 8001d3c:	f7ff fdd2 	bl	80018e4 <NRF24_csn>
 8001d40:	2e20      	cmp	r6, #32
 8001d42:	f004 0007 	and.w	r0, r4, #7
 8001d46:	4632      	mov	r2, r6
 8001d48:	4629      	mov	r1, r5
 8001d4a:	bf28      	it	cs
 8001d4c:	2220      	movcs	r2, #32
 8001d4e:	f040 00a8 	orr.w	r0, r0, #168	@ 0xa8
 8001d52:	f7ff fe39 	bl	80019c8 <NRF24_write_registerN>
 8001d56:	e8bd 4070 	ldmia.w	sp!, {r4, r5, r6, lr}
 8001d5a:	f7ff bdab 	b.w	80018b4 <NRF24_csn.part.0>

08001d5e <NRF24_whatHappened>:
 8001d5e:	b5f8      	push	{r3, r4, r5, r6, r7, lr}
 8001d60:	4605      	mov	r5, r0
 8001d62:	460f      	mov	r7, r1
 8001d64:	4616      	mov	r6, r2
 8001d66:	f7ff fe97 	bl	8001a98 <NRF24_get_status>
 8001d6a:	2300      	movs	r3, #0
 8001d6c:	4604      	mov	r4, r0
 8001d6e:	702b      	strb	r3, [r5, #0]
 8001d70:	2170      	movs	r1, #112	@ 0x70
 8001d72:	2007      	movs	r0, #7
 8001d74:	f7ff fe10 	bl	8001998 <NRF24_write_register>
 8001d78:	f3c4 1340 	ubfx	r3, r4, #5, #1
 8001d7c:	702b      	strb	r3, [r5, #0]
 8001d7e:	f3c4 1300 	ubfx	r3, r4, #4, #1
 8001d82:	f3c4 1480 	ubfx	r4, r4, #6, #1
 8001d86:	703b      	strb	r3, [r7, #0]
 8001d88:	7034      	strb	r4, [r6, #0]
 8001d8a:	bdf8      	pop	{r3, r4, r5, r6, r7, pc}

08001d8c <NRF24_resetStatus>:
 8001d8c:	2170      	movs	r1, #112	@ 0x70
 8001d8e:	2007      	movs	r0, #7
 8001d90:	f7ff be02 	b.w	8001998 <NRF24_write_register>

08001d94 <NRF24_write>:
 8001d94:	b537      	push	{r0, r1, r2, r4, r5, lr}
 8001d96:	4604      	mov	r4, r0
 8001d98:	460d      	mov	r5, r1
 8001d9a:	f7ff fff7 	bl	8001d8c <NRF24_resetStatus>
 8001d9e:	4620      	mov	r0, r4
 8001da0:	4629      	mov	r1, r5
 8001da2:	f7ff ffa9 	bl	8001cf8 <NRF24_startWrite>
 8001da6:	f000 f975 	bl	8002094 <HAL_GetTick>
 8001daa:	4604      	mov	r4, r0
 8001dac:	2201      	movs	r2, #1
 8001dae:	f10d 0105 	add.w	r1, sp, #5
 8001db2:	2008      	movs	r0, #8
 8001db4:	f7ff fdd2 	bl	800195c <NRF24_read_registerN>
 8001db8:	f7ff fe6e 	bl	8001a98 <NRF24_get_status>
 8001dbc:	f010 0f30 	tst.w	r0, #48	@ 0x30
 8001dc0:	d104      	bne.n	8001dcc <NRF24_write+0x38>
 8001dc2:	f000 f967 	bl	8002094 <HAL_GetTick>
 8001dc6:	1b03      	subs	r3, r0, r4
 8001dc8:	2b09      	cmp	r3, #9
 8001dca:	d9ef      	bls.n	8001dac <NRF24_write+0x18>
 8001dcc:	4c0b      	ldr	r4, [pc, #44]	@ (8001dfc <NRF24_write+0x68>)
 8001dce:	f10d 0107 	add.w	r1, sp, #7
 8001dd2:	4622      	mov	r2, r4
 8001dd4:	f10d 0006 	add.w	r0, sp, #6
 8001dd8:	f7ff ffc1 	bl	8001d5e <NRF24_whatHappened>
 8001ddc:	7823      	ldrb	r3, [r4, #0]
 8001dde:	f89d 5006 	ldrb.w	r5, [sp, #6]
 8001de2:	b11b      	cbz	r3, 8001dec <NRF24_write+0x58>
 8001de4:	f7ff fee2 	bl	8001bac <NRF24_getDynamicPayloadSize>
 8001de8:	4b05      	ldr	r3, [pc, #20]	@ (8001e00 <NRF24_write+0x6c>)
 8001dea:	7018      	strb	r0, [r3, #0]
 8001dec:	f7ff ff81 	bl	8001cf2 <NRF24_available>
 8001df0:	f7ff fe4a 	bl	8001a88 <NRF24_flush_tx>
 8001df4:	4628      	mov	r0, r5
 8001df6:	b003      	add	sp, #12
 8001df8:	bd30      	pop	{r4, r5, pc}
 8001dfa:	bf00      	nop
 8001dfc:	200013d6 	.word	0x200013d6
 8001e00:	200013d5 	.word	0x200013d5

08001e04 <NRF24_ACTIVATE_cmd>:
 8001e04:	b507      	push	{r0, r1, r2, lr}
 8001e06:	2000      	movs	r0, #0
 8001e08:	f7ff fd6c 	bl	80018e4 <NRF24_csn>
 8001e0c:	f247 3350 	movw	r3, #29520	@ 0x7350
 8001e10:	f8ad 3004 	strh.w	r3, [sp, #4]
 8001e14:	2202      	movs	r2, #2
 8001e16:	2364      	movs	r3, #100	@ 0x64
 8001e18:	a901      	add	r1, sp, #4
 8001e1a:	4804      	ldr	r0, [pc, #16]	@ (8001e2c <NRF24_ACTIVATE_cmd+0x28>)
 8001e1c:	f001 fb52 	bl	80034c4 <HAL_SPI_Transmit>
 8001e20:	f7ff fd48 	bl	80018b4 <NRF24_csn.part.0>
 8001e24:	b003      	add	sp, #12
 8001e26:	f85d fb04 	ldr.w	pc, [sp], #4
 8001e2a:	bf00      	nop
 8001e2c:	20001374 	.word	0x20001374

08001e30 <NRF24_begin>:
 8001e30:	b084      	sub	sp, #16
 8001e32:	b573      	push	{r0, r1, r4, r5, r6, lr}
 8001e34:	ac06      	add	r4, sp, #24
 8001e36:	e884 000f 	stmia.w	r4, {r0, r1, r2, r3}
 8001e3a:	4621      	mov	r1, r4
 8001e3c:	2258      	movs	r2, #88	@ 0x58
 8001e3e:	4858      	ldr	r0, [pc, #352]	@ (8001fa0 <NRF24_begin+0x170>)
 8001e40:	f004 fe3e 	bl	8006ac0 <memcpy>
 8001e44:	4b57      	ldr	r3, [pc, #348]	@ (8001fa4 <NRF24_begin+0x174>)
 8001e46:	4a58      	ldr	r2, [pc, #352]	@ (8001fa8 <NRF24_begin+0x178>)
 8001e48:	601a      	str	r2, [r3, #0]
 8001e4a:	4b58      	ldr	r3, [pc, #352]	@ (8001fac <NRF24_begin+0x17c>)
 8001e4c:	2408      	movs	r4, #8
 8001e4e:	801c      	strh	r4, [r3, #0]
 8001e50:	4b57      	ldr	r3, [pc, #348]	@ (8001fb0 <NRF24_begin+0x180>)
 8001e52:	2510      	movs	r5, #16
 8001e54:	801d      	strh	r5, [r3, #0]
 8001e56:	f7ff fd2d 	bl	80018b4 <NRF24_csn.part.0>
 8001e5a:	2000      	movs	r0, #0
 8001e5c:	f7ff fd50 	bl	8001900 <NRF24_ce>
 8001e60:	2005      	movs	r0, #5
 8001e62:	f000 f91d 	bl	80020a0 <HAL_Delay>
 8001e66:	4621      	mov	r1, r4
 8001e68:	2000      	movs	r0, #0
 8001e6a:	f7ff fd95 	bl	8001998 <NRF24_write_register>
 8001e6e:	213f      	movs	r1, #63	@ 0x3f
 8001e70:	2001      	movs	r0, #1
 8001e72:	f7ff fd91 	bl	8001998 <NRF24_write_register>
 8001e76:	2103      	movs	r1, #3
 8001e78:	2002      	movs	r0, #2
 8001e7a:	f7ff fd8d 	bl	8001998 <NRF24_write_register>
 8001e7e:	2103      	movs	r1, #3
 8001e80:	4608      	mov	r0, r1
 8001e82:	f7ff fd89 	bl	8001998 <NRF24_write_register>
 8001e86:	2103      	movs	r1, #3
 8001e88:	2004      	movs	r0, #4
 8001e8a:	f7ff fd85 	bl	8001998 <NRF24_write_register>
 8001e8e:	2102      	movs	r1, #2
 8001e90:	2005      	movs	r0, #5
 8001e92:	f7ff fd81 	bl	8001998 <NRF24_write_register>
 8001e96:	210f      	movs	r1, #15
 8001e98:	2006      	movs	r0, #6
 8001e9a:	f7ff fd7d 	bl	8001998 <NRF24_write_register>
 8001e9e:	210e      	movs	r1, #14
 8001ea0:	2007      	movs	r0, #7
 8001ea2:	f7ff fd79 	bl	8001998 <NRF24_write_register>
 8001ea6:	4620      	mov	r0, r4
 8001ea8:	2100      	movs	r1, #0
 8001eaa:	f7ff fd75 	bl	8001998 <NRF24_write_register>
 8001eae:	2100      	movs	r1, #0
 8001eb0:	2009      	movs	r0, #9
 8001eb2:	f7ff fd71 	bl	8001998 <NRF24_write_register>
 8001eb6:	f04f 36e7 	mov.w	r6, #3890735079	@ 0xe7e7e7e7
 8001eba:	24e7      	movs	r4, #231	@ 0xe7
 8001ebc:	4669      	mov	r1, sp
 8001ebe:	2205      	movs	r2, #5
 8001ec0:	200a      	movs	r0, #10
 8001ec2:	9600      	str	r6, [sp, #0]
 8001ec4:	f88d 4004 	strb.w	r4, [sp, #4]
 8001ec8:	f7ff fd7e 	bl	80019c8 <NRF24_write_registerN>
 8001ecc:	f04f 33c2 	mov.w	r3, #3267543746	@ 0xc2c2c2c2
 8001ed0:	2205      	movs	r2, #5
 8001ed2:	9300      	str	r3, [sp, #0]
 8001ed4:	4669      	mov	r1, sp
 8001ed6:	23c2      	movs	r3, #194	@ 0xc2
 8001ed8:	200b      	movs	r0, #11
 8001eda:	f88d 3004 	strb.w	r3, [sp, #4]
 8001ede:	f7ff fd73 	bl	80019c8 <NRF24_write_registerN>
 8001ee2:	21c3      	movs	r1, #195	@ 0xc3
 8001ee4:	200c      	movs	r0, #12
 8001ee6:	f7ff fd57 	bl	8001998 <NRF24_write_register>
 8001eea:	21c4      	movs	r1, #196	@ 0xc4
 8001eec:	200d      	movs	r0, #13
 8001eee:	f7ff fd53 	bl	8001998 <NRF24_write_register>
 8001ef2:	21c5      	movs	r1, #197	@ 0xc5
 8001ef4:	200e      	movs	r0, #14
 8001ef6:	f7ff fd4f 	bl	8001998 <NRF24_write_register>
 8001efa:	21c6      	movs	r1, #198	@ 0xc6
 8001efc:	200f      	movs	r0, #15
 8001efe:	f7ff fd4b 	bl	8001998 <NRF24_write_register>
 8001f02:	2205      	movs	r2, #5
 8001f04:	4669      	mov	r1, sp
 8001f06:	4628      	mov	r0, r5
 8001f08:	9600      	str	r6, [sp, #0]
 8001f0a:	f88d 4004 	strb.w	r4, [sp, #4]
 8001f0e:	f7ff fd5b 	bl	80019c8 <NRF24_write_registerN>
 8001f12:	2100      	movs	r1, #0
 8001f14:	2011      	movs	r0, #17
 8001f16:	f7ff fd3f 	bl	8001998 <NRF24_write_register>
 8001f1a:	2100      	movs	r1, #0
 8001f1c:	2012      	movs	r0, #18
 8001f1e:	f7ff fd3b 	bl	8001998 <NRF24_write_register>
 8001f22:	2100      	movs	r1, #0
 8001f24:	2013      	movs	r0, #19
 8001f26:	f7ff fd37 	bl	8001998 <NRF24_write_register>
 8001f2a:	2100      	movs	r1, #0
 8001f2c:	2014      	movs	r0, #20
 8001f2e:	f7ff fd33 	bl	8001998 <NRF24_write_register>
 8001f32:	2100      	movs	r1, #0
 8001f34:	2015      	movs	r0, #21
 8001f36:	f7ff fd2f 	bl	8001998 <NRF24_write_register>
 8001f3a:	2100      	movs	r1, #0
 8001f3c:	2016      	movs	r0, #22
 8001f3e:	f7ff fd2b 	bl	8001998 <NRF24_write_register>
 8001f42:	f7ff ff5f 	bl	8001e04 <NRF24_ACTIVATE_cmd>
 8001f46:	2100      	movs	r1, #0
 8001f48:	201c      	movs	r0, #28
 8001f4a:	f7ff fd25 	bl	8001998 <NRF24_write_register>
 8001f4e:	2100      	movs	r1, #0
 8001f50:	201d      	movs	r0, #29
 8001f52:	f7ff fd21 	bl	8001998 <NRF24_write_register>
 8001f56:	21ff      	movs	r1, #255	@ 0xff
 8001f58:	2004      	movs	r0, #4
 8001f5a:	f7ff fd1d 	bl	8001998 <NRF24_write_register>
 8001f5e:	2003      	movs	r0, #3
 8001f60:	f7ff fe4a 	bl	8001bf8 <NRF24_setPALevel>
 8001f64:	2000      	movs	r0, #0
 8001f66:	f7ff fe63 	bl	8001c30 <NRF24_setDataRate>
 8001f6a:	2002      	movs	r0, #2
 8001f6c:	f7ff fe7b 	bl	8001c66 <NRF24_setCRCLength>
 8001f70:	f7ff fe2d 	bl	8001bce <NRF24_disableDynamicPayloads>
 8001f74:	4b0f      	ldr	r3, [pc, #60]	@ (8001fb4 <NRF24_begin+0x184>)
 8001f76:	2220      	movs	r2, #32
 8001f78:	701a      	strb	r2, [r3, #0]
 8001f7a:	f7ff fe87 	bl	8001c8c <NRF24_ActivateRXInterrupt>
 8001f7e:	f7ff ff05 	bl	8001d8c <NRF24_resetStatus>
 8001f82:	204c      	movs	r0, #76	@ 0x4c
 8001f84:	f7ff fe02 	bl	8001b8c <NRF24_setChannel>
 8001f88:	f7ff fd7e 	bl	8001a88 <NRF24_flush_tx>
 8001f8c:	f7ff fd80 	bl	8001a90 <NRF24_flush_rx>
 8001f90:	f7ff fe88 	bl	8001ca4 <NRF24_powerDown>
 8001f94:	b002      	add	sp, #8
 8001f96:	e8bd 4070 	ldmia.w	sp!, {r4, r5, r6, lr}
 8001f9a:	b004      	add	sp, #16
 8001f9c:	4770      	bx	lr
 8001f9e:	bf00      	nop
 8001fa0:	20001374 	.word	0x20001374
 8001fa4:	200013d0 	.word	0x200013d0
 8001fa8:	40020000 	.word	0x40020000
 8001fac:	200013ce 	.word	0x200013ce
 8001fb0:	200013cc 	.word	0x200013cc
 8001fb4:	200013d4 	.word	0x200013d4

08001fb8 <NRF24_enableAckPayload>:
 8001fb8:	b508      	push	{r3, lr}
 8001fba:	201d      	movs	r0, #29
 8001fbc:	f7ff fcae 	bl	800191c <NRF24_read_register>
 8001fc0:	f040 0106 	orr.w	r1, r0, #6
 8001fc4:	b2c9      	uxtb	r1, r1
 8001fc6:	201d      	movs	r0, #29
 8001fc8:	f7ff fce6 	bl	8001998 <NRF24_write_register>
 8001fcc:	201d      	movs	r0, #29
 8001fce:	f7ff fca5 	bl	800191c <NRF24_read_register>
 8001fd2:	b950      	cbnz	r0, 8001fea <NRF24_enableAckPayload+0x32>
 8001fd4:	f7ff ff16 	bl	8001e04 <NRF24_ACTIVATE_cmd>
 8001fd8:	201d      	movs	r0, #29
 8001fda:	f7ff fc9f 	bl	800191c <NRF24_read_register>
 8001fde:	f040 0106 	orr.w	r1, r0, #6
 8001fe2:	b2c9      	uxtb	r1, r1
 8001fe4:	201d      	movs	r0, #29
 8001fe6:	f7ff fcd7 	bl	8001998 <NRF24_write_register>
 8001fea:	201c      	movs	r0, #28
 8001fec:	f7ff fc96 	bl	800191c <NRF24_read_register>
 8001ff0:	f040 0103 	orr.w	r1, r0, #3
 8001ff4:	e8bd 4008 	ldmia.w	sp!, {r3, lr}
 8001ff8:	b2c9      	uxtb	r1, r1
 8001ffa:	201c      	movs	r0, #28
 8001ffc:	f7ff bccc 	b.w	8001998 <NRF24_write_register>

08002000 <NRF24_enableDynamicPayloads>:
 8002000:	b508      	push	{r3, lr}
 8002002:	201d      	movs	r0, #29
 8002004:	f7ff fc8a 	bl	800191c <NRF24_read_register>
 8002008:	f040 0104 	orr.w	r1, r0, #4
 800200c:	b2c9      	uxtb	r1, r1
 800200e:	201d      	movs	r0, #29
 8002010:	f7ff fcc2 	bl	8001998 <NRF24_write_register>
 8002014:	201d      	movs	r0, #29
 8002016:	f7ff fc81 	bl	800191c <NRF24_read_register>
 800201a:	b950      	cbnz	r0, 8002032 <NRF24_enableDynamicPayloads+0x32>
 800201c:	f7ff fef2 	bl	8001e04 <NRF24_ACTIVATE_cmd>
 8002020:	201d      	movs	r0, #29
 8002022:	f7ff fc7b 	bl	800191c <NRF24_read_register>
 8002026:	f040 0104 	orr.w	r1, r0, #4
 800202a:	b2c9      	uxtb	r1, r1
 800202c:	201d      	movs	r0, #29
 800202e:	f7ff fcb3 	bl	8001998 <NRF24_write_register>
 8002032:	201c      	movs	r0, #28
 8002034:	f7ff fc72 	bl	800191c <NRF24_read_register>
 8002038:	f040 013f 	orr.w	r1, r0, #63	@ 0x3f
 800203c:	e8bd 4008 	ldmia.w	sp!, {r3, lr}
 8002040:	b2c9      	uxtb	r1, r1
 8002042:	201c      	movs	r0, #28
 8002044:	f7ff bca8 	b.w	8001998 <NRF24_write_register>

08002048 <HAL_Init>:
 8002048:	b508      	push	{r3, lr}
 800204a:	4b0b      	ldr	r3, [pc, #44]	@ (8002078 <HAL_Init+0x30>)
 800204c:	681a      	ldr	r2, [r3, #0]
 800204e:	f442 7200 	orr.w	r2, r2, #512	@ 0x200
 8002052:	601a      	str	r2, [r3, #0]
 8002054:	681a      	ldr	r2, [r3, #0]
 8002056:	f442 6280 	orr.w	r2, r2, #1024	@ 0x400
 800205a:	601a      	str	r2, [r3, #0]
 800205c:	681a      	ldr	r2, [r3, #0]
 800205e:	f442 7280 	orr.w	r2, r2, #256	@ 0x100
 8002062:	601a      	str	r2, [r3, #0]
 8002064:	2003      	movs	r0, #3
 8002066:	f000 f82f 	bl	80020c8 <HAL_NVIC_SetPriorityGrouping>
 800206a:	200f      	movs	r0, #15
 800206c:	f7ff fb76 	bl	800175c <HAL_InitTick>
 8002070:	f7ff fa52 	bl	8001518 <HAL_MspInit>
 8002074:	2000      	movs	r0, #0
 8002076:	bd08      	pop	{r3, pc}
 8002078:	40023c00 	.word	0x40023c00

0800207c <HAL_IncTick>:
 800207c:	4a03      	ldr	r2, [pc, #12]	@ (800208c <HAL_IncTick+0x10>)
 800207e:	4b04      	ldr	r3, [pc, #16]	@ (8002090 <HAL_IncTick+0x14>)
 8002080:	6811      	ldr	r1, [r2, #0]
 8002082:	781b      	ldrb	r3, [r3, #0]
 8002084:	440b      	add	r3, r1
 8002086:	6013      	str	r3, [r2, #0]
 8002088:	4770      	bx	lr
 800208a:	bf00      	nop
 800208c:	200013e0 	.word	0x200013e0
 8002090:	200002ac 	.word	0x200002ac

08002094 <HAL_GetTick>:
 8002094:	4b01      	ldr	r3, [pc, #4]	@ (800209c <HAL_GetTick+0x8>)
 8002096:	6818      	ldr	r0, [r3, #0]
 8002098:	4770      	bx	lr
 800209a:	bf00      	nop
 800209c:	200013e0 	.word	0x200013e0

080020a0 <HAL_Delay>:
 80020a0:	b538      	push	{r3, r4, r5, lr}
 80020a2:	4604      	mov	r4, r0
 80020a4:	f7ff fff6 	bl	8002094 <HAL_GetTick>
 80020a8:	1c63      	adds	r3, r4, #1
 80020aa:	bf1c      	itt	ne
 80020ac:	4b05      	ldrne	r3, [pc, #20]	@ (80020c4 <HAL_Delay+0x24>)
 80020ae:	781b      	ldrbne	r3, [r3, #0]
 80020b0:	4605      	mov	r5, r0
 80020b2:	bf18      	it	ne
 80020b4:	18e4      	addne	r4, r4, r3
 80020b6:	f7ff ffed 	bl	8002094 <HAL_GetTick>
 80020ba:	1b43      	subs	r3, r0, r5
 80020bc:	42a3      	cmp	r3, r4
 80020be:	d3fa      	bcc.n	80020b6 <HAL_Delay+0x16>
 80020c0:	bd38      	pop	{r3, r4, r5, pc}
 80020c2:	bf00      	nop
 80020c4:	200002ac 	.word	0x200002ac

080020c8 <HAL_NVIC_SetPriorityGrouping>:
 80020c8:	4907      	ldr	r1, [pc, #28]	@ (80020e8 <HAL_NVIC_SetPriorityGrouping+0x20>)
 80020ca:	68ca      	ldr	r2, [r1, #12]
 80020cc:	f422 62e0 	bic.w	r2, r2, #1792	@ 0x700
 80020d0:	0203      	lsls	r3, r0, #8
 80020d2:	0412      	lsls	r2, r2, #16
 80020d4:	f403 63e0 	and.w	r3, r3, #1792	@ 0x700
 80020d8:	0c12      	lsrs	r2, r2, #16
 80020da:	4313      	orrs	r3, r2
 80020dc:	f043 63bf 	orr.w	r3, r3, #100139008	@ 0x5f80000
 80020e0:	f443 3300 	orr.w	r3, r3, #131072	@ 0x20000
 80020e4:	60cb      	str	r3, [r1, #12]
 80020e6:	4770      	bx	lr
 80020e8:	e000ed00 	.word	0xe000ed00

080020ec <HAL_NVIC_SetPriority>:
 80020ec:	4b16      	ldr	r3, [pc, #88]	@ (8002148 <HAL_NVIC_SetPriority+0x5c>)
 80020ee:	b530      	push	{r4, r5, lr}
 80020f0:	68dc      	ldr	r4, [r3, #12]
 80020f2:	f3c4 2402 	ubfx	r4, r4, #8, #3
 80020f6:	f1c4 0307 	rsb	r3, r4, #7
 80020fa:	1d25      	adds	r5, r4, #4
 80020fc:	2b04      	cmp	r3, #4
 80020fe:	bf28      	it	cs
 8002100:	2304      	movcs	r3, #4
 8002102:	2d06      	cmp	r5, #6
 8002104:	f04f 35ff 	mov.w	r5, #4294967295
 8002108:	bf8c      	ite	hi
 800210a:	3c03      	subhi	r4, #3
 800210c:	2400      	movls	r4, #0
 800210e:	fa05 f303 	lsl.w	r3, r5, r3
 8002112:	ea21 0303 	bic.w	r3, r1, r3
 8002116:	40a5      	lsls	r5, r4
 8002118:	ea22 0205 	bic.w	r2, r2, r5
 800211c:	40a3      	lsls	r3, r4
 800211e:	2800      	cmp	r0, #0
 8002120:	ea43 0302 	orr.w	r3, r3, r2
 8002124:	bfac      	ite	ge
 8002126:	f100 4060 	addge.w	r0, r0, #3758096384	@ 0xe0000000
 800212a:	4a08      	ldrlt	r2, [pc, #32]	@ (800214c <HAL_NVIC_SetPriority+0x60>)
 800212c:	ea4f 1303 	mov.w	r3, r3, lsl #4
 8002130:	bfb8      	it	lt
 8002132:	f000 000f 	andlt.w	r0, r0, #15
 8002136:	b2db      	uxtb	r3, r3
 8002138:	bfaa      	itet	ge
 800213a:	f500 4061 	addge.w	r0, r0, #57600	@ 0xe100
 800213e:	5413      	strblt	r3, [r2, r0]
 8002140:	f880 3300 	strbge.w	r3, [r0, #768]	@ 0x300
 8002144:	bd30      	pop	{r4, r5, pc}
 8002146:	bf00      	nop
 8002148:	e000ed00 	.word	0xe000ed00
 800214c:	e000ed14 	.word	0xe000ed14

08002150 <HAL_NVIC_EnableIRQ>:
 8002150:	2800      	cmp	r0, #0
 8002152:	db07      	blt.n	8002164 <HAL_NVIC_EnableIRQ+0x14>
 8002154:	4a04      	ldr	r2, [pc, #16]	@ (8002168 <HAL_NVIC_EnableIRQ+0x18>)
 8002156:	0941      	lsrs	r1, r0, #5
 8002158:	2301      	movs	r3, #1
 800215a:	f000 001f 	and.w	r0, r0, #31
 800215e:	4083      	lsls	r3, r0
 8002160:	f842 3021 	str.w	r3, [r2, r1, lsl #2]
 8002164:	4770      	bx	lr
 8002166:	bf00      	nop
 8002168:	e000e100 	.word	0xe000e100

0800216c <DMA_CalcBaseAndBitshift>:
 800216c:	6803      	ldr	r3, [r0, #0]
 800216e:	b510      	push	{r4, lr}
 8002170:	4c08      	ldr	r4, [pc, #32]	@ (8002194 <DMA_CalcBaseAndBitshift+0x28>)
 8002172:	4602      	mov	r2, r0
 8002174:	b2d9      	uxtb	r1, r3
 8002176:	3910      	subs	r1, #16
 8002178:	2018      	movs	r0, #24
 800217a:	fbb1 f0f0 	udiv	r0, r1, r0
 800217e:	5c20      	ldrb	r0, [r4, r0]
 8002180:	65d0      	str	r0, [r2, #92]	@ 0x5c
 8002182:	f423 707f 	bic.w	r0, r3, #1020	@ 0x3fc
 8002186:	f020 0003 	bic.w	r0, r0, #3
 800218a:	295f      	cmp	r1, #95	@ 0x5f
 800218c:	bf88      	it	hi
 800218e:	3004      	addhi	r0, #4
 8002190:	6590      	str	r0, [r2, #88]	@ 0x58
 8002192:	bd10      	pop	{r4, pc}
 8002194:	080074e1 	.word	0x080074e1

08002198 <HAL_DMA_Init>:
 8002198:	b570      	push	{r4, r5, r6, lr}
 800219a:	4604      	mov	r4, r0
 800219c:	f7ff ff7a 	bl	8002094 <HAL_GetTick>
 80021a0:	4605      	mov	r5, r0
 80021a2:	2c00      	cmp	r4, #0
 80021a4:	d060      	beq.n	8002268 <HAL_DMA_Init+0xd0>
 80021a6:	2302      	movs	r3, #2
 80021a8:	f884 3035 	strb.w	r3, [r4, #53]	@ 0x35
 80021ac:	6822      	ldr	r2, [r4, #0]
 80021ae:	2300      	movs	r3, #0
 80021b0:	f884 3034 	strb.w	r3, [r4, #52]	@ 0x34
 80021b4:	6813      	ldr	r3, [r2, #0]
 80021b6:	f023 0301 	bic.w	r3, r3, #1
 80021ba:	6013      	str	r3, [r2, #0]
 80021bc:	6822      	ldr	r2, [r4, #0]
 80021be:	6813      	ldr	r3, [r2, #0]
 80021c0:	07d8      	lsls	r0, r3, #31
 80021c2:	d42e      	bmi.n	8002222 <HAL_DMA_Init+0x8a>
 80021c4:	6813      	ldr	r3, [r2, #0]
 80021c6:	4832      	ldr	r0, [pc, #200]	@ (8002290 <HAL_DMA_Init+0xf8>)
 80021c8:	69a1      	ldr	r1, [r4, #24]
 80021ca:	4018      	ands	r0, r3
 80021cc:	e9d4 3501 	ldrd	r3, r5, [r4, #4]
 80021d0:	432b      	orrs	r3, r5
 80021d2:	68e5      	ldr	r5, [r4, #12]
 80021d4:	432b      	orrs	r3, r5
 80021d6:	6925      	ldr	r5, [r4, #16]
 80021d8:	432b      	orrs	r3, r5
 80021da:	6965      	ldr	r5, [r4, #20]
 80021dc:	432b      	orrs	r3, r5
 80021de:	69e5      	ldr	r5, [r4, #28]
 80021e0:	430b      	orrs	r3, r1
 80021e2:	432b      	orrs	r3, r5
 80021e4:	6a25      	ldr	r5, [r4, #32]
 80021e6:	432b      	orrs	r3, r5
 80021e8:	4303      	orrs	r3, r0
 80021ea:	6a60      	ldr	r0, [r4, #36]	@ 0x24
 80021ec:	2804      	cmp	r0, #4
 80021ee:	bf02      	ittt	eq
 80021f0:	e9d4 560b 	ldrdeq	r5, r6, [r4, #44]	@ 0x2c
 80021f4:	4335      	orreq	r5, r6
 80021f6:	432b      	orreq	r3, r5
 80021f8:	6013      	str	r3, [r2, #0]
 80021fa:	6953      	ldr	r3, [r2, #20]
 80021fc:	2804      	cmp	r0, #4
 80021fe:	f023 0307 	bic.w	r3, r3, #7
 8002202:	ea43 0300 	orr.w	r3, r3, r0
 8002206:	d135      	bne.n	8002274 <HAL_DMA_Init+0xdc>
 8002208:	6aa0      	ldr	r0, [r4, #40]	@ 0x28
 800220a:	6ae5      	ldr	r5, [r4, #44]	@ 0x2c
 800220c:	4303      	orrs	r3, r0
 800220e:	b38d      	cbz	r5, 8002274 <HAL_DMA_Init+0xdc>
 8002210:	b991      	cbnz	r1, 8002238 <HAL_DMA_Init+0xa0>
 8002212:	2801      	cmp	r0, #1
 8002214:	d020      	beq.n	8002258 <HAL_DMA_Init+0xc0>
 8002216:	f030 0102 	bics.w	r1, r0, #2
 800221a:	d12b      	bne.n	8002274 <HAL_DMA_Init+0xdc>
 800221c:	01e9      	lsls	r1, r5, #7
 800221e:	d529      	bpl.n	8002274 <HAL_DMA_Init+0xdc>
 8002220:	e01d      	b.n	800225e <HAL_DMA_Init+0xc6>
 8002222:	f7ff ff37 	bl	8002094 <HAL_GetTick>
 8002226:	1b40      	subs	r0, r0, r5
 8002228:	2805      	cmp	r0, #5
 800222a:	d9c7      	bls.n	80021bc <HAL_DMA_Init+0x24>
 800222c:	2320      	movs	r3, #32
 800222e:	2003      	movs	r0, #3
 8002230:	6563      	str	r3, [r4, #84]	@ 0x54
 8002232:	f884 0035 	strb.w	r0, [r4, #53]	@ 0x35
 8002236:	bd70      	pop	{r4, r5, r6, pc}
 8002238:	f5b1 5f00 	cmp.w	r1, #8192	@ 0x2000
 800223c:	d116      	bne.n	800226c <HAL_DMA_Init+0xd4>
 800223e:	2803      	cmp	r0, #3
 8002240:	d818      	bhi.n	8002274 <HAL_DMA_Init+0xdc>
 8002242:	a101      	add	r1, pc, #4	@ (adr r1, 8002248 <HAL_DMA_Init+0xb0>)
 8002244:	f851 f020 	ldr.w	pc, [r1, r0, lsl #2]
 8002248:	0800225f 	.word	0x0800225f
 800224c:	0800221d 	.word	0x0800221d
 8002250:	0800225f 	.word	0x0800225f
 8002254:	08002259 	.word	0x08002259
 8002258:	f1b5 7fc0 	cmp.w	r5, #25165824	@ 0x1800000
 800225c:	d10a      	bne.n	8002274 <HAL_DMA_Init+0xdc>
 800225e:	2340      	movs	r3, #64	@ 0x40
 8002260:	6563      	str	r3, [r4, #84]	@ 0x54
 8002262:	2301      	movs	r3, #1
 8002264:	f884 3035 	strb.w	r3, [r4, #53]	@ 0x35
 8002268:	2001      	movs	r0, #1
 800226a:	e7e4      	b.n	8002236 <HAL_DMA_Init+0x9e>
 800226c:	2802      	cmp	r0, #2
 800226e:	d9f6      	bls.n	800225e <HAL_DMA_Init+0xc6>
 8002270:	2803      	cmp	r0, #3
 8002272:	d0d3      	beq.n	800221c <HAL_DMA_Init+0x84>
 8002274:	6153      	str	r3, [r2, #20]
 8002276:	4620      	mov	r0, r4
 8002278:	f7ff ff78 	bl	800216c <DMA_CalcBaseAndBitshift>
 800227c:	6de2      	ldr	r2, [r4, #92]	@ 0x5c
 800227e:	233f      	movs	r3, #63	@ 0x3f
 8002280:	4093      	lsls	r3, r2
 8002282:	6083      	str	r3, [r0, #8]
 8002284:	2000      	movs	r0, #0
 8002286:	2301      	movs	r3, #1
 8002288:	6560      	str	r0, [r4, #84]	@ 0x54
 800228a:	f884 3035 	strb.w	r3, [r4, #53]	@ 0x35
 800228e:	e7d2      	b.n	8002236 <HAL_DMA_Init+0x9e>
 8002290:	f010803f 	.word	0xf010803f

08002294 <HAL_DMA_Start_IT>:
 8002294:	b570      	push	{r4, r5, r6, lr}
 8002296:	f890 4034 	ldrb.w	r4, [r0, #52]	@ 0x34
 800229a:	6d86      	ldr	r6, [r0, #88]	@ 0x58
 800229c:	2c01      	cmp	r4, #1
 800229e:	d030      	beq.n	8002302 <HAL_DMA_Start_IT+0x6e>
 80022a0:	2401      	movs	r4, #1
 80022a2:	f880 4034 	strb.w	r4, [r0, #52]	@ 0x34
 80022a6:	f890 4035 	ldrb.w	r4, [r0, #53]	@ 0x35
 80022aa:	2c01      	cmp	r4, #1
 80022ac:	f04f 0400 	mov.w	r4, #0
 80022b0:	d125      	bne.n	80022fe <HAL_DMA_Start_IT+0x6a>
 80022b2:	2502      	movs	r5, #2
 80022b4:	f880 5035 	strb.w	r5, [r0, #53]	@ 0x35
 80022b8:	6544      	str	r4, [r0, #84]	@ 0x54
 80022ba:	6804      	ldr	r4, [r0, #0]
 80022bc:	6825      	ldr	r5, [r4, #0]
 80022be:	f425 2580 	bic.w	r5, r5, #262144	@ 0x40000
 80022c2:	6025      	str	r5, [r4, #0]
 80022c4:	6063      	str	r3, [r4, #4]
 80022c6:	6883      	ldr	r3, [r0, #8]
 80022c8:	2b40      	cmp	r3, #64	@ 0x40
 80022ca:	bf0e      	itee	eq
 80022cc:	60a2      	streq	r2, [r4, #8]
 80022ce:	60a1      	strne	r1, [r4, #8]
 80022d0:	60e2      	strne	r2, [r4, #12]
 80022d2:	6dc2      	ldr	r2, [r0, #92]	@ 0x5c
 80022d4:	bf08      	it	eq
 80022d6:	60e1      	streq	r1, [r4, #12]
 80022d8:	233f      	movs	r3, #63	@ 0x3f
 80022da:	4093      	lsls	r3, r2
 80022dc:	60b3      	str	r3, [r6, #8]
 80022de:	6823      	ldr	r3, [r4, #0]
 80022e0:	f043 0316 	orr.w	r3, r3, #22
 80022e4:	6023      	str	r3, [r4, #0]
 80022e6:	6c03      	ldr	r3, [r0, #64]	@ 0x40
 80022e8:	b11b      	cbz	r3, 80022f2 <HAL_DMA_Start_IT+0x5e>
 80022ea:	6823      	ldr	r3, [r4, #0]
 80022ec:	f043 0308 	orr.w	r3, r3, #8
 80022f0:	6023      	str	r3, [r4, #0]
 80022f2:	6823      	ldr	r3, [r4, #0]
 80022f4:	f043 0301 	orr.w	r3, r3, #1
 80022f8:	6023      	str	r3, [r4, #0]
 80022fa:	2000      	movs	r0, #0
 80022fc:	bd70      	pop	{r4, r5, r6, pc}
 80022fe:	f880 4034 	strb.w	r4, [r0, #52]	@ 0x34
 8002302:	2002      	movs	r0, #2
 8002304:	e7fa      	b.n	80022fc <HAL_DMA_Start_IT+0x68>

08002306 <HAL_DMA_Abort>:
 8002306:	b570      	push	{r4, r5, r6, lr}
 8002308:	4604      	mov	r4, r0
 800230a:	6d86      	ldr	r6, [r0, #88]	@ 0x58
 800230c:	f7ff fec2 	bl	8002094 <HAL_GetTick>
 8002310:	f894 3035 	ldrb.w	r3, [r4, #53]	@ 0x35
 8002314:	2b02      	cmp	r3, #2
 8002316:	4605      	mov	r5, r0
 8002318:	d006      	beq.n	8002328 <HAL_DMA_Abort+0x22>
 800231a:	2380      	movs	r3, #128	@ 0x80
 800231c:	6563      	str	r3, [r4, #84]	@ 0x54
 800231e:	2001      	movs	r0, #1
 8002320:	2300      	movs	r3, #0
 8002322:	f884 3034 	strb.w	r3, [r4, #52]	@ 0x34
 8002326:	bd70      	pop	{r4, r5, r6, pc}
 8002328:	6823      	ldr	r3, [r4, #0]
 800232a:	681a      	ldr	r2, [r3, #0]
 800232c:	f022 0216 	bic.w	r2, r2, #22
 8002330:	601a      	str	r2, [r3, #0]
 8002332:	695a      	ldr	r2, [r3, #20]
 8002334:	f022 0280 	bic.w	r2, r2, #128	@ 0x80
 8002338:	615a      	str	r2, [r3, #20]
 800233a:	6c22      	ldr	r2, [r4, #64]	@ 0x40
 800233c:	b90a      	cbnz	r2, 8002342 <HAL_DMA_Abort+0x3c>
 800233e:	6ca2      	ldr	r2, [r4, #72]	@ 0x48
 8002340:	b11a      	cbz	r2, 800234a <HAL_DMA_Abort+0x44>
 8002342:	681a      	ldr	r2, [r3, #0]
 8002344:	f022 0208 	bic.w	r2, r2, #8
 8002348:	601a      	str	r2, [r3, #0]
 800234a:	681a      	ldr	r2, [r3, #0]
 800234c:	f022 0201 	bic.w	r2, r2, #1
 8002350:	601a      	str	r2, [r3, #0]
 8002352:	6823      	ldr	r3, [r4, #0]
 8002354:	6818      	ldr	r0, [r3, #0]
 8002356:	f010 0001 	ands.w	r0, r0, #1
 800235a:	d107      	bne.n	800236c <HAL_DMA_Abort+0x66>
 800235c:	6de2      	ldr	r2, [r4, #92]	@ 0x5c
 800235e:	233f      	movs	r3, #63	@ 0x3f
 8002360:	4093      	lsls	r3, r2
 8002362:	60b3      	str	r3, [r6, #8]
 8002364:	2301      	movs	r3, #1
 8002366:	f884 3035 	strb.w	r3, [r4, #53]	@ 0x35
 800236a:	e7d9      	b.n	8002320 <HAL_DMA_Abort+0x1a>
 800236c:	f7ff fe92 	bl	8002094 <HAL_GetTick>
 8002370:	1b40      	subs	r0, r0, r5
 8002372:	2805      	cmp	r0, #5
 8002374:	d9ed      	bls.n	8002352 <HAL_DMA_Abort+0x4c>
 8002376:	2320      	movs	r3, #32
 8002378:	2003      	movs	r0, #3
 800237a:	6563      	str	r3, [r4, #84]	@ 0x54
 800237c:	f884 0035 	strb.w	r0, [r4, #53]	@ 0x35
 8002380:	e7ce      	b.n	8002320 <HAL_DMA_Abort+0x1a>

08002382 <HAL_DMA_Abort_IT>:
 8002382:	f890 3035 	ldrb.w	r3, [r0, #53]	@ 0x35
 8002386:	2b02      	cmp	r3, #2
 8002388:	d003      	beq.n	8002392 <HAL_DMA_Abort_IT+0x10>
 800238a:	2380      	movs	r3, #128	@ 0x80
 800238c:	6543      	str	r3, [r0, #84]	@ 0x54
 800238e:	2001      	movs	r0, #1
 8002390:	4770      	bx	lr
 8002392:	6802      	ldr	r2, [r0, #0]
 8002394:	2305      	movs	r3, #5
 8002396:	f880 3035 	strb.w	r3, [r0, #53]	@ 0x35
 800239a:	6813      	ldr	r3, [r2, #0]
 800239c:	f023 0301 	bic.w	r3, r3, #1
 80023a0:	6013      	str	r3, [r2, #0]
 80023a2:	2000      	movs	r0, #0
 80023a4:	4770      	bx	lr
	...

080023a8 <HAL_DMA_IRQHandler>:
 80023a8:	b5f7      	push	{r0, r1, r2, r4, r5, r6, r7, lr}
 80023aa:	2300      	movs	r3, #0
 80023ac:	9301      	str	r3, [sp, #4]
 80023ae:	4b5c      	ldr	r3, [pc, #368]	@ (8002520 <HAL_DMA_IRQHandler+0x178>)
 80023b0:	6d85      	ldr	r5, [r0, #88]	@ 0x58
 80023b2:	681f      	ldr	r7, [r3, #0]
 80023b4:	6dc3      	ldr	r3, [r0, #92]	@ 0x5c
 80023b6:	682e      	ldr	r6, [r5, #0]
 80023b8:	2208      	movs	r2, #8
 80023ba:	409a      	lsls	r2, r3
 80023bc:	4232      	tst	r2, r6
 80023be:	4604      	mov	r4, r0
 80023c0:	d00c      	beq.n	80023dc <HAL_DMA_IRQHandler+0x34>
 80023c2:	6801      	ldr	r1, [r0, #0]
 80023c4:	6808      	ldr	r0, [r1, #0]
 80023c6:	0740      	lsls	r0, r0, #29
 80023c8:	d508      	bpl.n	80023dc <HAL_DMA_IRQHandler+0x34>
 80023ca:	6808      	ldr	r0, [r1, #0]
 80023cc:	f020 0004 	bic.w	r0, r0, #4
 80023d0:	6008      	str	r0, [r1, #0]
 80023d2:	60aa      	str	r2, [r5, #8]
 80023d4:	6d62      	ldr	r2, [r4, #84]	@ 0x54
 80023d6:	f042 0201 	orr.w	r2, r2, #1
 80023da:	6562      	str	r2, [r4, #84]	@ 0x54
 80023dc:	2201      	movs	r2, #1
 80023de:	409a      	lsls	r2, r3
 80023e0:	4232      	tst	r2, r6
 80023e2:	d008      	beq.n	80023f6 <HAL_DMA_IRQHandler+0x4e>
 80023e4:	6821      	ldr	r1, [r4, #0]
 80023e6:	6949      	ldr	r1, [r1, #20]
 80023e8:	0609      	lsls	r1, r1, #24
 80023ea:	bf41      	itttt	mi
 80023ec:	60aa      	strmi	r2, [r5, #8]
 80023ee:	6d62      	ldrmi	r2, [r4, #84]	@ 0x54
 80023f0:	f042 0202 	orrmi.w	r2, r2, #2
 80023f4:	6562      	strmi	r2, [r4, #84]	@ 0x54
 80023f6:	2204      	movs	r2, #4
 80023f8:	409a      	lsls	r2, r3
 80023fa:	4232      	tst	r2, r6
 80023fc:	d008      	beq.n	8002410 <HAL_DMA_IRQHandler+0x68>
 80023fe:	6821      	ldr	r1, [r4, #0]
 8002400:	6809      	ldr	r1, [r1, #0]
 8002402:	0788      	lsls	r0, r1, #30
 8002404:	bf41      	itttt	mi
 8002406:	60aa      	strmi	r2, [r5, #8]
 8002408:	6d62      	ldrmi	r2, [r4, #84]	@ 0x54
 800240a:	f042 0204 	orrmi.w	r2, r2, #4
 800240e:	6562      	strmi	r2, [r4, #84]	@ 0x54
 8002410:	2210      	movs	r2, #16
 8002412:	409a      	lsls	r2, r3
 8002414:	4232      	tst	r2, r6
 8002416:	d010      	beq.n	800243a <HAL_DMA_IRQHandler+0x92>
 8002418:	6823      	ldr	r3, [r4, #0]
 800241a:	6819      	ldr	r1, [r3, #0]
 800241c:	0709      	lsls	r1, r1, #28
 800241e:	d50c      	bpl.n	800243a <HAL_DMA_IRQHandler+0x92>
 8002420:	60aa      	str	r2, [r5, #8]
 8002422:	681a      	ldr	r2, [r3, #0]
 8002424:	0350      	lsls	r0, r2, #13
 8002426:	d537      	bpl.n	8002498 <HAL_DMA_IRQHandler+0xf0>
 8002428:	681b      	ldr	r3, [r3, #0]
 800242a:	0319      	lsls	r1, r3, #12
 800242c:	d401      	bmi.n	8002432 <HAL_DMA_IRQHandler+0x8a>
 800242e:	6c23      	ldr	r3, [r4, #64]	@ 0x40
 8002430:	e000      	b.n	8002434 <HAL_DMA_IRQHandler+0x8c>
 8002432:	6ca3      	ldr	r3, [r4, #72]	@ 0x48
 8002434:	b10b      	cbz	r3, 800243a <HAL_DMA_IRQHandler+0x92>
 8002436:	4620      	mov	r0, r4
 8002438:	4798      	blx	r3
 800243a:	6de1      	ldr	r1, [r4, #92]	@ 0x5c
 800243c:	2220      	movs	r2, #32
 800243e:	408a      	lsls	r2, r1
 8002440:	4232      	tst	r2, r6
 8002442:	d03a      	beq.n	80024ba <HAL_DMA_IRQHandler+0x112>
 8002444:	6823      	ldr	r3, [r4, #0]
 8002446:	6818      	ldr	r0, [r3, #0]
 8002448:	06c6      	lsls	r6, r0, #27
 800244a:	d536      	bpl.n	80024ba <HAL_DMA_IRQHandler+0x112>
 800244c:	60aa      	str	r2, [r5, #8]
 800244e:	f894 2035 	ldrb.w	r2, [r4, #53]	@ 0x35
 8002452:	2a05      	cmp	r2, #5
 8002454:	681a      	ldr	r2, [r3, #0]
 8002456:	d127      	bne.n	80024a8 <HAL_DMA_IRQHandler+0x100>
 8002458:	f022 0216 	bic.w	r2, r2, #22
 800245c:	601a      	str	r2, [r3, #0]
 800245e:	695a      	ldr	r2, [r3, #20]
 8002460:	f022 0280 	bic.w	r2, r2, #128	@ 0x80
 8002464:	615a      	str	r2, [r3, #20]
 8002466:	6c22      	ldr	r2, [r4, #64]	@ 0x40
 8002468:	b90a      	cbnz	r2, 800246e <HAL_DMA_IRQHandler+0xc6>
 800246a:	6ca2      	ldr	r2, [r4, #72]	@ 0x48
 800246c:	b11a      	cbz	r2, 8002476 <HAL_DMA_IRQHandler+0xce>
 800246e:	681a      	ldr	r2, [r3, #0]
 8002470:	f022 0208 	bic.w	r2, r2, #8
 8002474:	601a      	str	r2, [r3, #0]
 8002476:	233f      	movs	r3, #63	@ 0x3f
 8002478:	408b      	lsls	r3, r1
 800247a:	60ab      	str	r3, [r5, #8]
 800247c:	2301      	movs	r3, #1
 800247e:	f884 3035 	strb.w	r3, [r4, #53]	@ 0x35
 8002482:	2300      	movs	r3, #0
 8002484:	f884 3034 	strb.w	r3, [r4, #52]	@ 0x34
 8002488:	6d23      	ldr	r3, [r4, #80]	@ 0x50
 800248a:	2b00      	cmp	r3, #0
 800248c:	d045      	beq.n	800251a <HAL_DMA_IRQHandler+0x172>
 800248e:	4620      	mov	r0, r4
 8002490:	b003      	add	sp, #12
 8002492:	e8bd 40f0 	ldmia.w	sp!, {r4, r5, r6, r7, lr}
 8002496:	4718      	bx	r3
 8002498:	681a      	ldr	r2, [r3, #0]
 800249a:	05d2      	lsls	r2, r2, #23
 800249c:	bf5e      	ittt	pl
 800249e:	681a      	ldrpl	r2, [r3, #0]
 80024a0:	f022 0208 	bicpl.w	r2, r2, #8
 80024a4:	601a      	strpl	r2, [r3, #0]
 80024a6:	e7c2      	b.n	800242e <HAL_DMA_IRQHandler+0x86>
 80024a8:	0350      	lsls	r0, r2, #13
 80024aa:	d527      	bpl.n	80024fc <HAL_DMA_IRQHandler+0x154>
 80024ac:	681b      	ldr	r3, [r3, #0]
 80024ae:	0319      	lsls	r1, r3, #12
 80024b0:	d431      	bmi.n	8002516 <HAL_DMA_IRQHandler+0x16e>
 80024b2:	6c63      	ldr	r3, [r4, #68]	@ 0x44
 80024b4:	b10b      	cbz	r3, 80024ba <HAL_DMA_IRQHandler+0x112>
 80024b6:	4620      	mov	r0, r4
 80024b8:	4798      	blx	r3
 80024ba:	6d63      	ldr	r3, [r4, #84]	@ 0x54
 80024bc:	b36b      	cbz	r3, 800251a <HAL_DMA_IRQHandler+0x172>
 80024be:	6d63      	ldr	r3, [r4, #84]	@ 0x54
 80024c0:	07da      	lsls	r2, r3, #31
 80024c2:	d519      	bpl.n	80024f8 <HAL_DMA_IRQHandler+0x150>
 80024c4:	6822      	ldr	r2, [r4, #0]
 80024c6:	f44f 5316 	mov.w	r3, #9600	@ 0x2580
 80024ca:	fbb7 f7f3 	udiv	r7, r7, r3
 80024ce:	2305      	movs	r3, #5
 80024d0:	f884 3035 	strb.w	r3, [r4, #53]	@ 0x35
 80024d4:	6813      	ldr	r3, [r2, #0]
 80024d6:	f023 0301 	bic.w	r3, r3, #1
 80024da:	6013      	str	r3, [r2, #0]
 80024dc:	9b01      	ldr	r3, [sp, #4]
 80024de:	3301      	adds	r3, #1
 80024e0:	42bb      	cmp	r3, r7
 80024e2:	9301      	str	r3, [sp, #4]
 80024e4:	d802      	bhi.n	80024ec <HAL_DMA_IRQHandler+0x144>
 80024e6:	6813      	ldr	r3, [r2, #0]
 80024e8:	07db      	lsls	r3, r3, #31
 80024ea:	d4f7      	bmi.n	80024dc <HAL_DMA_IRQHandler+0x134>
 80024ec:	2301      	movs	r3, #1
 80024ee:	f884 3035 	strb.w	r3, [r4, #53]	@ 0x35
 80024f2:	2300      	movs	r3, #0
 80024f4:	f884 3034 	strb.w	r3, [r4, #52]	@ 0x34
 80024f8:	6ce3      	ldr	r3, [r4, #76]	@ 0x4c
 80024fa:	e7c6      	b.n	800248a <HAL_DMA_IRQHandler+0xe2>
 80024fc:	681a      	ldr	r2, [r3, #0]
 80024fe:	f412 7280 	ands.w	r2, r2, #256	@ 0x100
 8002502:	d108      	bne.n	8002516 <HAL_DMA_IRQHandler+0x16e>
 8002504:	6819      	ldr	r1, [r3, #0]
 8002506:	f021 0110 	bic.w	r1, r1, #16
 800250a:	6019      	str	r1, [r3, #0]
 800250c:	2301      	movs	r3, #1
 800250e:	f884 3035 	strb.w	r3, [r4, #53]	@ 0x35
 8002512:	f884 2034 	strb.w	r2, [r4, #52]	@ 0x34
 8002516:	6be3      	ldr	r3, [r4, #60]	@ 0x3c
 8002518:	e7cc      	b.n	80024b4 <HAL_DMA_IRQHandler+0x10c>
 800251a:	b003      	add	sp, #12
 800251c:	bdf0      	pop	{r4, r5, r6, r7, pc}
 800251e:	bf00      	nop
 8002520:	200002a8 	.word	0x200002a8

08002524 <HAL_GPIO_Init>:
 8002524:	e92d 4ff7 	stmdb	sp!, {r0, r1, r2, r4, r5, r6, r7, r8, r9, sl, fp, lr}
 8002528:	f8df 9180 	ldr.w	r9, [pc, #384]	@ 80026ac <HAL_GPIO_Init+0x188>
 800252c:	4a5d      	ldr	r2, [pc, #372]	@ (80026a4 <HAL_GPIO_Init+0x180>)
 800252e:	2300      	movs	r3, #0
 8002530:	680d      	ldr	r5, [r1, #0]
 8002532:	2401      	movs	r4, #1
 8002534:	409c      	lsls	r4, r3
 8002536:	ea04 0605 	and.w	r6, r4, r5
 800253a:	43ac      	bics	r4, r5
 800253c:	f040 80a3 	bne.w	8002686 <HAL_GPIO_Init+0x162>
 8002540:	684d      	ldr	r5, [r1, #4]
 8002542:	2703      	movs	r7, #3
 8002544:	f005 0403 	and.w	r4, r5, #3
 8002548:	ea4f 0843 	mov.w	r8, r3, lsl #1
 800254c:	fa07 fc08 	lsl.w	ip, r7, r8
 8002550:	1e67      	subs	r7, r4, #1
 8002552:	2f01      	cmp	r7, #1
 8002554:	ea6f 0c0c 	mvn.w	ip, ip
 8002558:	d834      	bhi.n	80025c4 <HAL_GPIO_Init+0xa0>
 800255a:	6887      	ldr	r7, [r0, #8]
 800255c:	ea07 0e0c 	and.w	lr, r7, ip
 8002560:	68cf      	ldr	r7, [r1, #12]
 8002562:	fa07 f708 	lsl.w	r7, r7, r8
 8002566:	ea47 070e 	orr.w	r7, r7, lr
 800256a:	6087      	str	r7, [r0, #8]
 800256c:	6847      	ldr	r7, [r0, #4]
 800256e:	ea27 0e06 	bic.w	lr, r7, r6
 8002572:	f3c5 1700 	ubfx	r7, r5, #4, #1
 8002576:	409f      	lsls	r7, r3
 8002578:	ea47 070e 	orr.w	r7, r7, lr
 800257c:	6047      	str	r7, [r0, #4]
 800257e:	68c7      	ldr	r7, [r0, #12]
 8002580:	ea07 0e0c 	and.w	lr, r7, ip
 8002584:	688f      	ldr	r7, [r1, #8]
 8002586:	fa07 f708 	lsl.w	r7, r7, r8
 800258a:	ea47 070e 	orr.w	r7, r7, lr
 800258e:	2c02      	cmp	r4, #2
 8002590:	60c7      	str	r7, [r0, #12]
 8002592:	d119      	bne.n	80025c8 <HAL_GPIO_Init+0xa4>
 8002594:	ea4f 0ad3 	mov.w	sl, r3, lsr #3
 8002598:	eb00 0a8a 	add.w	sl, r0, sl, lsl #2
 800259c:	f003 0b07 	and.w	fp, r3, #7
 80025a0:	f8da 7020 	ldr.w	r7, [sl, #32]
 80025a4:	ea4f 0b8b 	mov.w	fp, fp, lsl #2
 80025a8:	f04f 0e0f 	mov.w	lr, #15
 80025ac:	fa0e fe0b 	lsl.w	lr, lr, fp
 80025b0:	ea27 0e0e 	bic.w	lr, r7, lr
 80025b4:	690f      	ldr	r7, [r1, #16]
 80025b6:	fa07 f70b 	lsl.w	r7, r7, fp
 80025ba:	ea47 070e 	orr.w	r7, r7, lr
 80025be:	f8ca 7020 	str.w	r7, [sl, #32]
 80025c2:	e001      	b.n	80025c8 <HAL_GPIO_Init+0xa4>
 80025c4:	2c03      	cmp	r4, #3
 80025c6:	d1da      	bne.n	800257e <HAL_GPIO_Init+0x5a>
 80025c8:	6807      	ldr	r7, [r0, #0]
 80025ca:	fa04 f408 	lsl.w	r4, r4, r8
 80025ce:	ea07 070c 	and.w	r7, r7, ip
 80025d2:	433c      	orrs	r4, r7
 80025d4:	f415 3f40 	tst.w	r5, #196608	@ 0x30000
 80025d8:	6004      	str	r4, [r0, #0]
 80025da:	d054      	beq.n	8002686 <HAL_GPIO_Init+0x162>
 80025dc:	2400      	movs	r4, #0
 80025de:	9401      	str	r4, [sp, #4]
 80025e0:	f8d9 4044 	ldr.w	r4, [r9, #68]	@ 0x44
 80025e4:	f444 4480 	orr.w	r4, r4, #16384	@ 0x4000
 80025e8:	f8c9 4044 	str.w	r4, [r9, #68]	@ 0x44
 80025ec:	f8d9 4044 	ldr.w	r4, [r9, #68]	@ 0x44
 80025f0:	f023 0703 	bic.w	r7, r3, #3
 80025f4:	f107 4780 	add.w	r7, r7, #1073741824	@ 0x40000000
 80025f8:	f404 4480 	and.w	r4, r4, #16384	@ 0x4000
 80025fc:	f507 379c 	add.w	r7, r7, #79872	@ 0x13800
 8002600:	9401      	str	r4, [sp, #4]
 8002602:	f003 0c03 	and.w	ip, r3, #3
 8002606:	9c01      	ldr	r4, [sp, #4]
 8002608:	f8d7 e008 	ldr.w	lr, [r7, #8]
 800260c:	ea4f 0c8c 	mov.w	ip, ip, lsl #2
 8002610:	240f      	movs	r4, #15
 8002612:	fa04 f40c 	lsl.w	r4, r4, ip
 8002616:	ea2e 0e04 	bic.w	lr, lr, r4
 800261a:	4c23      	ldr	r4, [pc, #140]	@ (80026a8 <HAL_GPIO_Init+0x184>)
 800261c:	42a0      	cmp	r0, r4
 800261e:	d039      	beq.n	8002694 <HAL_GPIO_Init+0x170>
 8002620:	f504 6480 	add.w	r4, r4, #1024	@ 0x400
 8002624:	42a0      	cmp	r0, r4
 8002626:	d037      	beq.n	8002698 <HAL_GPIO_Init+0x174>
 8002628:	f504 6480 	add.w	r4, r4, #1024	@ 0x400
 800262c:	42a0      	cmp	r0, r4
 800262e:	d035      	beq.n	800269c <HAL_GPIO_Init+0x178>
 8002630:	f504 6480 	add.w	r4, r4, #1024	@ 0x400
 8002634:	42a0      	cmp	r0, r4
 8002636:	d033      	beq.n	80026a0 <HAL_GPIO_Init+0x17c>
 8002638:	f504 6480 	add.w	r4, r4, #1024	@ 0x400
 800263c:	42a0      	cmp	r0, r4
 800263e:	bf14      	ite	ne
 8002640:	2407      	movne	r4, #7
 8002642:	2404      	moveq	r4, #4
 8002644:	fa04 f40c 	lsl.w	r4, r4, ip
 8002648:	ea44 040e 	orr.w	r4, r4, lr
 800264c:	60bc      	str	r4, [r7, #8]
 800264e:	6894      	ldr	r4, [r2, #8]
 8002650:	43f7      	mvns	r7, r6
 8002652:	f415 1f80 	tst.w	r5, #1048576	@ 0x100000
 8002656:	bf0c      	ite	eq
 8002658:	403c      	andeq	r4, r7
 800265a:	4334      	orrne	r4, r6
 800265c:	6094      	str	r4, [r2, #8]
 800265e:	68d4      	ldr	r4, [r2, #12]
 8002660:	f415 1f00 	tst.w	r5, #2097152	@ 0x200000
 8002664:	bf0c      	ite	eq
 8002666:	403c      	andeq	r4, r7
 8002668:	4334      	orrne	r4, r6
 800266a:	60d4      	str	r4, [r2, #12]
 800266c:	6854      	ldr	r4, [r2, #4]
 800266e:	f415 3f00 	tst.w	r5, #131072	@ 0x20000
 8002672:	bf0c      	ite	eq
 8002674:	403c      	andeq	r4, r7
 8002676:	4334      	orrne	r4, r6
 8002678:	6054      	str	r4, [r2, #4]
 800267a:	6814      	ldr	r4, [r2, #0]
 800267c:	03ed      	lsls	r5, r5, #15
 800267e:	bf54      	ite	pl
 8002680:	403c      	andpl	r4, r7
 8002682:	4334      	orrmi	r4, r6
 8002684:	6014      	str	r4, [r2, #0]
 8002686:	3301      	adds	r3, #1
 8002688:	2b10      	cmp	r3, #16
 800268a:	f47f af51 	bne.w	8002530 <HAL_GPIO_Init+0xc>
 800268e:	b003      	add	sp, #12
 8002690:	e8bd 8ff0 	ldmia.w	sp!, {r4, r5, r6, r7, r8, r9, sl, fp, pc}
 8002694:	2400      	movs	r4, #0
 8002696:	e7d5      	b.n	8002644 <HAL_GPIO_Init+0x120>
 8002698:	2401      	movs	r4, #1
 800269a:	e7d3      	b.n	8002644 <HAL_GPIO_Init+0x120>
 800269c:	2402      	movs	r4, #2
 800269e:	e7d1      	b.n	8002644 <HAL_GPIO_Init+0x120>
 80026a0:	2403      	movs	r4, #3
 80026a2:	e7cf      	b.n	8002644 <HAL_GPIO_Init+0x120>
 80026a4:	40013c00 	.word	0x40013c00
 80026a8:	40020000 	.word	0x40020000
 80026ac:	40023800 	.word	0x40023800

080026b0 <HAL_GPIO_WritePin>:
 80026b0:	b10a      	cbz	r2, 80026b6 <HAL_GPIO_WritePin+0x6>
 80026b2:	6181      	str	r1, [r0, #24]
 80026b4:	4770      	bx	lr
 80026b6:	0409      	lsls	r1, r1, #16
 80026b8:	e7fb      	b.n	80026b2 <HAL_GPIO_WritePin+0x2>
	...

080026bc <HAL_GPIO_EXTI_IRQHandler>:
 80026bc:	4a04      	ldr	r2, [pc, #16]	@ (80026d0 <HAL_GPIO_EXTI_IRQHandler+0x14>)
 80026be:	6951      	ldr	r1, [r2, #20]
 80026c0:	4201      	tst	r1, r0
 80026c2:	b508      	push	{r3, lr}
 80026c4:	d002      	beq.n	80026cc <HAL_GPIO_EXTI_IRQHandler+0x10>
 80026c6:	6150      	str	r0, [r2, #20]
 80026c8:	f7fe fa32 	bl	8000b30 <HAL_GPIO_EXTI_Callback>
 80026cc:	bd08      	pop	{r3, pc}
 80026ce:	bf00      	nop
 80026d0:	40013c00 	.word	0x40013c00

080026d4 <I2C_IsAcknowledgeFailed>:
 80026d4:	6801      	ldr	r1, [r0, #0]
 80026d6:	694b      	ldr	r3, [r1, #20]
 80026d8:	f413 6380 	ands.w	r3, r3, #1024	@ 0x400
 80026dc:	f04f 0200 	mov.w	r2, #0
 80026e0:	d010      	beq.n	8002704 <I2C_IsAcknowledgeFailed+0x30>
 80026e2:	f46f 6380 	mvn.w	r3, #1024	@ 0x400
 80026e6:	614b      	str	r3, [r1, #20]
 80026e8:	2320      	movs	r3, #32
 80026ea:	6302      	str	r2, [r0, #48]	@ 0x30
 80026ec:	f880 303d 	strb.w	r3, [r0, #61]	@ 0x3d
 80026f0:	f880 203e 	strb.w	r2, [r0, #62]	@ 0x3e
 80026f4:	6c03      	ldr	r3, [r0, #64]	@ 0x40
 80026f6:	f880 203c 	strb.w	r2, [r0, #60]	@ 0x3c
 80026fa:	f043 0304 	orr.w	r3, r3, #4
 80026fe:	6403      	str	r3, [r0, #64]	@ 0x40
 8002700:	2001      	movs	r0, #1
 8002702:	4770      	bx	lr
 8002704:	4618      	mov	r0, r3
 8002706:	4770      	bx	lr

08002708 <I2C_WaitOnFlagUntilTimeout>:
 8002708:	e92d 46f8 	stmdb	sp!, {r3, r4, r5, r6, r7, r9, sl, lr}
 800270c:	4606      	mov	r6, r0
 800270e:	460f      	mov	r7, r1
 8002710:	4691      	mov	r9, r2
 8002712:	461d      	mov	r5, r3
 8002714:	ea4f 4a11 	mov.w	sl, r1, lsr #16
 8002718:	6833      	ldr	r3, [r6, #0]
 800271a:	f1ba 0f01 	cmp.w	sl, #1
 800271e:	bf0c      	ite	eq
 8002720:	695c      	ldreq	r4, [r3, #20]
 8002722:	699c      	ldrne	r4, [r3, #24]
 8002724:	ea27 0404 	bic.w	r4, r7, r4
 8002728:	b2a4      	uxth	r4, r4
 800272a:	fab4 f484 	clz	r4, r4
 800272e:	0964      	lsrs	r4, r4, #5
 8002730:	45a1      	cmp	r9, r4
 8002732:	d001      	beq.n	8002738 <I2C_WaitOnFlagUntilTimeout+0x30>
 8002734:	2000      	movs	r0, #0
 8002736:	e025      	b.n	8002784 <I2C_WaitOnFlagUntilTimeout+0x7c>
 8002738:	1c6a      	adds	r2, r5, #1
 800273a:	d0ee      	beq.n	800271a <I2C_WaitOnFlagUntilTimeout+0x12>
 800273c:	f7ff fcaa 	bl	8002094 <HAL_GetTick>
 8002740:	9b08      	ldr	r3, [sp, #32]
 8002742:	1ac0      	subs	r0, r0, r3
 8002744:	42a8      	cmp	r0, r5
 8002746:	d801      	bhi.n	800274c <I2C_WaitOnFlagUntilTimeout+0x44>
 8002748:	2d00      	cmp	r5, #0
 800274a:	d1e5      	bne.n	8002718 <I2C_WaitOnFlagUntilTimeout+0x10>
 800274c:	6833      	ldr	r3, [r6, #0]
 800274e:	f1ba 0f01 	cmp.w	sl, #1
 8002752:	bf0c      	ite	eq
 8002754:	695b      	ldreq	r3, [r3, #20]
 8002756:	699b      	ldrne	r3, [r3, #24]
 8002758:	ea27 0303 	bic.w	r3, r7, r3
 800275c:	b29b      	uxth	r3, r3
 800275e:	fab3 f383 	clz	r3, r3
 8002762:	095b      	lsrs	r3, r3, #5
 8002764:	4599      	cmp	r9, r3
 8002766:	d1d7      	bne.n	8002718 <I2C_WaitOnFlagUntilTimeout+0x10>
 8002768:	2300      	movs	r3, #0
 800276a:	2220      	movs	r2, #32
 800276c:	6333      	str	r3, [r6, #48]	@ 0x30
 800276e:	f886 203d 	strb.w	r2, [r6, #61]	@ 0x3d
 8002772:	f886 303e 	strb.w	r3, [r6, #62]	@ 0x3e
 8002776:	6c32      	ldr	r2, [r6, #64]	@ 0x40
 8002778:	f886 303c 	strb.w	r3, [r6, #60]	@ 0x3c
 800277c:	f042 0220 	orr.w	r2, r2, #32
 8002780:	6432      	str	r2, [r6, #64]	@ 0x40
 8002782:	2001      	movs	r0, #1
 8002784:	e8bd 86f8 	ldmia.w	sp!, {r3, r4, r5, r6, r7, r9, sl, pc}

08002788 <I2C_WaitOnMasterAddressFlagUntilTimeout>:
 8002788:	e92d 41f0 	stmdb	sp!, {r4, r5, r6, r7, r8, lr}
 800278c:	4604      	mov	r4, r0
 800278e:	460f      	mov	r7, r1
 8002790:	4616      	mov	r6, r2
 8002792:	4698      	mov	r8, r3
 8002794:	6825      	ldr	r5, [r4, #0]
 8002796:	6968      	ldr	r0, [r5, #20]
 8002798:	ea27 0000 	bic.w	r0, r7, r0
 800279c:	b280      	uxth	r0, r0
 800279e:	b1c0      	cbz	r0, 80027d2 <I2C_WaitOnMasterAddressFlagUntilTimeout+0x4a>
 80027a0:	696b      	ldr	r3, [r5, #20]
 80027a2:	055a      	lsls	r2, r3, #21
 80027a4:	d517      	bpl.n	80027d6 <I2C_WaitOnMasterAddressFlagUntilTimeout+0x4e>
 80027a6:	682b      	ldr	r3, [r5, #0]
 80027a8:	f443 7300 	orr.w	r3, r3, #512	@ 0x200
 80027ac:	602b      	str	r3, [r5, #0]
 80027ae:	f46f 6380 	mvn.w	r3, #1024	@ 0x400
 80027b2:	616b      	str	r3, [r5, #20]
 80027b4:	2220      	movs	r2, #32
 80027b6:	2300      	movs	r3, #0
 80027b8:	6323      	str	r3, [r4, #48]	@ 0x30
 80027ba:	f884 203d 	strb.w	r2, [r4, #61]	@ 0x3d
 80027be:	f884 303e 	strb.w	r3, [r4, #62]	@ 0x3e
 80027c2:	6c23      	ldr	r3, [r4, #64]	@ 0x40
 80027c4:	f043 0304 	orr.w	r3, r3, #4
 80027c8:	6423      	str	r3, [r4, #64]	@ 0x40
 80027ca:	2300      	movs	r3, #0
 80027cc:	f884 303c 	strb.w	r3, [r4, #60]	@ 0x3c
 80027d0:	2001      	movs	r0, #1
 80027d2:	e8bd 81f0 	ldmia.w	sp!, {r4, r5, r6, r7, r8, pc}
 80027d6:	1c73      	adds	r3, r6, #1
 80027d8:	d0dd      	beq.n	8002796 <I2C_WaitOnMasterAddressFlagUntilTimeout+0xe>
 80027da:	f7ff fc5b 	bl	8002094 <HAL_GetTick>
 80027de:	eba0 0008 	sub.w	r0, r0, r8
 80027e2:	42b0      	cmp	r0, r6
 80027e4:	d801      	bhi.n	80027ea <I2C_WaitOnMasterAddressFlagUntilTimeout+0x62>
 80027e6:	2e00      	cmp	r6, #0
 80027e8:	d1d4      	bne.n	8002794 <I2C_WaitOnMasterAddressFlagUntilTimeout+0xc>
 80027ea:	6823      	ldr	r3, [r4, #0]
 80027ec:	695a      	ldr	r2, [r3, #20]
 80027ee:	ea27 0202 	bic.w	r2, r7, r2
 80027f2:	b292      	uxth	r2, r2
 80027f4:	2a00      	cmp	r2, #0
 80027f6:	d0cd      	beq.n	8002794 <I2C_WaitOnMasterAddressFlagUntilTimeout+0xc>
 80027f8:	2300      	movs	r3, #0
 80027fa:	2220      	movs	r2, #32
 80027fc:	6323      	str	r3, [r4, #48]	@ 0x30
 80027fe:	f884 203d 	strb.w	r2, [r4, #61]	@ 0x3d
 8002802:	f884 303e 	strb.w	r3, [r4, #62]	@ 0x3e
 8002806:	6c23      	ldr	r3, [r4, #64]	@ 0x40
 8002808:	4313      	orrs	r3, r2
 800280a:	e7dd      	b.n	80027c8 <I2C_WaitOnMasterAddressFlagUntilTimeout+0x40>

0800280c <I2C_WaitOnTXEFlagUntilTimeout>:
 800280c:	b570      	push	{r4, r5, r6, lr}
 800280e:	4604      	mov	r4, r0
 8002810:	460d      	mov	r5, r1
 8002812:	4616      	mov	r6, r2
 8002814:	6823      	ldr	r3, [r4, #0]
 8002816:	695b      	ldr	r3, [r3, #20]
 8002818:	061b      	lsls	r3, r3, #24
 800281a:	d501      	bpl.n	8002820 <I2C_WaitOnTXEFlagUntilTimeout+0x14>
 800281c:	2000      	movs	r0, #0
 800281e:	e01e      	b.n	800285e <I2C_WaitOnTXEFlagUntilTimeout+0x52>
 8002820:	4620      	mov	r0, r4
 8002822:	f7ff ff57 	bl	80026d4 <I2C_IsAcknowledgeFailed>
 8002826:	b9c8      	cbnz	r0, 800285c <I2C_WaitOnTXEFlagUntilTimeout+0x50>
 8002828:	1c6a      	adds	r2, r5, #1
 800282a:	d0f3      	beq.n	8002814 <I2C_WaitOnTXEFlagUntilTimeout+0x8>
 800282c:	f7ff fc32 	bl	8002094 <HAL_GetTick>
 8002830:	1b80      	subs	r0, r0, r6
 8002832:	42a8      	cmp	r0, r5
 8002834:	d801      	bhi.n	800283a <I2C_WaitOnTXEFlagUntilTimeout+0x2e>
 8002836:	2d00      	cmp	r5, #0
 8002838:	d1ec      	bne.n	8002814 <I2C_WaitOnTXEFlagUntilTimeout+0x8>
 800283a:	6823      	ldr	r3, [r4, #0]
 800283c:	695b      	ldr	r3, [r3, #20]
 800283e:	f013 0380 	ands.w	r3, r3, #128	@ 0x80
 8002842:	d1e7      	bne.n	8002814 <I2C_WaitOnTXEFlagUntilTimeout+0x8>
 8002844:	2220      	movs	r2, #32
 8002846:	6323      	str	r3, [r4, #48]	@ 0x30
 8002848:	f884 203d 	strb.w	r2, [r4, #61]	@ 0x3d
 800284c:	f884 303e 	strb.w	r3, [r4, #62]	@ 0x3e
 8002850:	6c22      	ldr	r2, [r4, #64]	@ 0x40
 8002852:	f884 303c 	strb.w	r3, [r4, #60]	@ 0x3c
 8002856:	f042 0220 	orr.w	r2, r2, #32
 800285a:	6422      	str	r2, [r4, #64]	@ 0x40
 800285c:	2001      	movs	r0, #1
 800285e:	bd70      	pop	{r4, r5, r6, pc}

08002860 <I2C_WaitOnBTFFlagUntilTimeout>:
 8002860:	b570      	push	{r4, r5, r6, lr}
 8002862:	4604      	mov	r4, r0
 8002864:	460d      	mov	r5, r1
 8002866:	4616      	mov	r6, r2
 8002868:	6823      	ldr	r3, [r4, #0]
 800286a:	695b      	ldr	r3, [r3, #20]
 800286c:	075b      	lsls	r3, r3, #29
 800286e:	d501      	bpl.n	8002874 <I2C_WaitOnBTFFlagUntilTimeout+0x14>
 8002870:	2000      	movs	r0, #0
 8002872:	e01e      	b.n	80028b2 <I2C_WaitOnBTFFlagUntilTimeout+0x52>
 8002874:	4620      	mov	r0, r4
 8002876:	f7ff ff2d 	bl	80026d4 <I2C_IsAcknowledgeFailed>
 800287a:	b9c8      	cbnz	r0, 80028b0 <I2C_WaitOnBTFFlagUntilTimeout+0x50>
 800287c:	1c6a      	adds	r2, r5, #1
 800287e:	d0f3      	beq.n	8002868 <I2C_WaitOnBTFFlagUntilTimeout+0x8>
 8002880:	f7ff fc08 	bl	8002094 <HAL_GetTick>
 8002884:	1b80      	subs	r0, r0, r6
 8002886:	42a8      	cmp	r0, r5
 8002888:	d801      	bhi.n	800288e <I2C_WaitOnBTFFlagUntilTimeout+0x2e>
 800288a:	2d00      	cmp	r5, #0
 800288c:	d1ec      	bne.n	8002868 <I2C_WaitOnBTFFlagUntilTimeout+0x8>
 800288e:	6823      	ldr	r3, [r4, #0]
 8002890:	695b      	ldr	r3, [r3, #20]
 8002892:	f013 0304 	ands.w	r3, r3, #4
 8002896:	d1e7      	bne.n	8002868 <I2C_WaitOnBTFFlagUntilTimeout+0x8>
 8002898:	2220      	movs	r2, #32
 800289a:	6323      	str	r3, [r4, #48]	@ 0x30
 800289c:	f884 203d 	strb.w	r2, [r4, #61]	@ 0x3d
 80028a0:	f884 303e 	strb.w	r3, [r4, #62]	@ 0x3e
 80028a4:	6c22      	ldr	r2, [r4, #64]	@ 0x40
 80028a6:	f884 303c 	strb.w	r3, [r4, #60]	@ 0x3c
 80028aa:	f042 0220 	orr.w	r2, r2, #32
 80028ae:	6422      	str	r2, [r4, #64]	@ 0x40
 80028b0:	2001      	movs	r0, #1
 80028b2:	bd70      	pop	{r4, r5, r6, pc}

080028b4 <HAL_I2C_Init>:
 80028b4:	b570      	push	{r4, r5, r6, lr}
 80028b6:	4604      	mov	r4, r0
 80028b8:	b908      	cbnz	r0, 80028be <HAL_I2C_Init+0xa>
 80028ba:	2001      	movs	r0, #1
 80028bc:	bd70      	pop	{r4, r5, r6, pc}
 80028be:	f890 303d 	ldrb.w	r3, [r0, #61]	@ 0x3d
 80028c2:	f003 02ff 	and.w	r2, r3, #255	@ 0xff
 80028c6:	b91b      	cbnz	r3, 80028d0 <HAL_I2C_Init+0x1c>
 80028c8:	f880 203c 	strb.w	r2, [r0, #60]	@ 0x3c
 80028cc:	f7fe fe44 	bl	8001558 <HAL_I2C_MspInit>
 80028d0:	2324      	movs	r3, #36	@ 0x24
 80028d2:	f884 303d 	strb.w	r3, [r4, #61]	@ 0x3d
 80028d6:	6823      	ldr	r3, [r4, #0]
 80028d8:	681a      	ldr	r2, [r3, #0]
 80028da:	f022 0201 	bic.w	r2, r2, #1
 80028de:	601a      	str	r2, [r3, #0]
 80028e0:	681a      	ldr	r2, [r3, #0]
 80028e2:	f442 4200 	orr.w	r2, r2, #32768	@ 0x8000
 80028e6:	601a      	str	r2, [r3, #0]
 80028e8:	681a      	ldr	r2, [r3, #0]
 80028ea:	f422 4200 	bic.w	r2, r2, #32768	@ 0x8000
 80028ee:	601a      	str	r2, [r3, #0]
 80028f0:	f000 fc88 	bl	8003204 <HAL_RCC_GetPCLK1Freq>
 80028f4:	4b3f      	ldr	r3, [pc, #252]	@ (80029f4 <HAL_I2C_Init+0x140>)
 80028f6:	6865      	ldr	r5, [r4, #4]
 80028f8:	429d      	cmp	r5, r3
 80028fa:	bf94      	ite	ls
 80028fc:	4b3e      	ldrls	r3, [pc, #248]	@ (80029f8 <HAL_I2C_Init+0x144>)
 80028fe:	4b3f      	ldrhi	r3, [pc, #252]	@ (80029fc <HAL_I2C_Init+0x148>)
 8002900:	4298      	cmp	r0, r3
 8002902:	bf8c      	ite	hi
 8002904:	2300      	movhi	r3, #0
 8002906:	2301      	movls	r3, #1
 8002908:	2b00      	cmp	r3, #0
 800290a:	d1d6      	bne.n	80028ba <HAL_I2C_Init+0x6>
 800290c:	6822      	ldr	r2, [r4, #0]
 800290e:	4e39      	ldr	r6, [pc, #228]	@ (80029f4 <HAL_I2C_Init+0x140>)
 8002910:	6851      	ldr	r1, [r2, #4]
 8002912:	4b3b      	ldr	r3, [pc, #236]	@ (8002a00 <HAL_I2C_Init+0x14c>)
 8002914:	fbb0 f3f3 	udiv	r3, r0, r3
 8002918:	f021 013f 	bic.w	r1, r1, #63	@ 0x3f
 800291c:	4319      	orrs	r1, r3
 800291e:	42b5      	cmp	r5, r6
 8002920:	6051      	str	r1, [r2, #4]
 8002922:	bf88      	it	hi
 8002924:	f44f 7696 	movhi.w	r6, #300	@ 0x12c
 8002928:	6a11      	ldr	r1, [r2, #32]
 800292a:	bf88      	it	hi
 800292c:	4373      	mulhi	r3, r6
 800292e:	f021 013f 	bic.w	r1, r1, #63	@ 0x3f
 8002932:	bf84      	itt	hi
 8002934:	f44f 767a 	movhi.w	r6, #1000	@ 0x3e8
 8002938:	fbb3 f3f6 	udivhi	r3, r3, r6
 800293c:	3301      	adds	r3, #1
 800293e:	430b      	orrs	r3, r1
 8002940:	6213      	str	r3, [r2, #32]
 8002942:	69d1      	ldr	r1, [r2, #28]
 8002944:	1e43      	subs	r3, r0, #1
 8002946:	482b      	ldr	r0, [pc, #172]	@ (80029f4 <HAL_I2C_Init+0x140>)
 8002948:	f421 414f 	bic.w	r1, r1, #52992	@ 0xcf00
 800294c:	4285      	cmp	r5, r0
 800294e:	f021 01ff 	bic.w	r1, r1, #255	@ 0xff
 8002952:	d832      	bhi.n	80029ba <HAL_I2C_Init+0x106>
 8002954:	006d      	lsls	r5, r5, #1
 8002956:	f640 70fc 	movw	r0, #4092	@ 0xffc
 800295a:	fbb3 f3f5 	udiv	r3, r3, r5
 800295e:	3301      	adds	r3, #1
 8002960:	4203      	tst	r3, r0
 8002962:	d042      	beq.n	80029ea <HAL_I2C_Init+0x136>
 8002964:	f3c3 030b 	ubfx	r3, r3, #0, #12
 8002968:	4319      	orrs	r1, r3
 800296a:	61d1      	str	r1, [r2, #28]
 800296c:	e9d4 3007 	ldrd	r3, r0, [r4, #28]
 8002970:	6811      	ldr	r1, [r2, #0]
 8002972:	4303      	orrs	r3, r0
 8002974:	f021 01c0 	bic.w	r1, r1, #192	@ 0xc0
 8002978:	430b      	orrs	r3, r1
 800297a:	6013      	str	r3, [r2, #0]
 800297c:	6891      	ldr	r1, [r2, #8]
 800297e:	e9d4 0303 	ldrd	r0, r3, [r4, #12]
 8002982:	f421 4103 	bic.w	r1, r1, #33536	@ 0x8300
 8002986:	4303      	orrs	r3, r0
 8002988:	f021 01ff 	bic.w	r1, r1, #255	@ 0xff
 800298c:	430b      	orrs	r3, r1
 800298e:	6093      	str	r3, [r2, #8]
 8002990:	e9d4 3005 	ldrd	r3, r0, [r4, #20]
 8002994:	68d1      	ldr	r1, [r2, #12]
 8002996:	4303      	orrs	r3, r0
 8002998:	f021 01ff 	bic.w	r1, r1, #255	@ 0xff
 800299c:	430b      	orrs	r3, r1
 800299e:	60d3      	str	r3, [r2, #12]
 80029a0:	6813      	ldr	r3, [r2, #0]
 80029a2:	f043 0301 	orr.w	r3, r3, #1
 80029a6:	6013      	str	r3, [r2, #0]
 80029a8:	2000      	movs	r0, #0
 80029aa:	2320      	movs	r3, #32
 80029ac:	6420      	str	r0, [r4, #64]	@ 0x40
 80029ae:	f884 303d 	strb.w	r3, [r4, #61]	@ 0x3d
 80029b2:	6320      	str	r0, [r4, #48]	@ 0x30
 80029b4:	f884 003e 	strb.w	r0, [r4, #62]	@ 0x3e
 80029b8:	e780      	b.n	80028bc <HAL_I2C_Init+0x8>
 80029ba:	68a0      	ldr	r0, [r4, #8]
 80029bc:	b950      	cbnz	r0, 80029d4 <HAL_I2C_Init+0x120>
 80029be:	eb05 0545 	add.w	r5, r5, r5, lsl #1
 80029c2:	fbb3 f3f5 	udiv	r3, r3, r5
 80029c6:	3301      	adds	r3, #1
 80029c8:	f3c3 030b 	ubfx	r3, r3, #0, #12
 80029cc:	b17b      	cbz	r3, 80029ee <HAL_I2C_Init+0x13a>
 80029ce:	f443 4300 	orr.w	r3, r3, #32768	@ 0x8000
 80029d2:	e7c9      	b.n	8002968 <HAL_I2C_Init+0xb4>
 80029d4:	2019      	movs	r0, #25
 80029d6:	4368      	muls	r0, r5
 80029d8:	fbb3 f3f0 	udiv	r3, r3, r0
 80029dc:	3301      	adds	r3, #1
 80029de:	f3c3 030b 	ubfx	r3, r3, #0, #12
 80029e2:	b123      	cbz	r3, 80029ee <HAL_I2C_Init+0x13a>
 80029e4:	f443 4340 	orr.w	r3, r3, #49152	@ 0xc000
 80029e8:	e7be      	b.n	8002968 <HAL_I2C_Init+0xb4>
 80029ea:	2304      	movs	r3, #4
 80029ec:	e7bc      	b.n	8002968 <HAL_I2C_Init+0xb4>
 80029ee:	2301      	movs	r3, #1
 80029f0:	e7ba      	b.n	8002968 <HAL_I2C_Init+0xb4>
 80029f2:	bf00      	nop
 80029f4:	000186a0 	.word	0x000186a0
 80029f8:	001e847f 	.word	0x001e847f
 80029fc:	003d08ff 	.word	0x003d08ff
 8002a00:	000f4240 	.word	0x000f4240

08002a04 <HAL_I2C_Master_Transmit>:
 8002a04:	e92d 43f0 	stmdb	sp!, {r4, r5, r6, r7, r8, r9, lr}
 8002a08:	4604      	mov	r4, r0
 8002a0a:	b085      	sub	sp, #20
 8002a0c:	4698      	mov	r8, r3
 8002a0e:	9f0c      	ldr	r7, [sp, #48]	@ 0x30
 8002a10:	460d      	mov	r5, r1
 8002a12:	4691      	mov	r9, r2
 8002a14:	f7ff fb3e 	bl	8002094 <HAL_GetTick>
 8002a18:	f894 303d 	ldrb.w	r3, [r4, #61]	@ 0x3d
 8002a1c:	2b20      	cmp	r3, #32
 8002a1e:	4606      	mov	r6, r0
 8002a20:	d004      	beq.n	8002a2c <HAL_I2C_Master_Transmit+0x28>
 8002a22:	2502      	movs	r5, #2
 8002a24:	4628      	mov	r0, r5
 8002a26:	b005      	add	sp, #20
 8002a28:	e8bd 83f0 	ldmia.w	sp!, {r4, r5, r6, r7, r8, r9, pc}
 8002a2c:	9000      	str	r0, [sp, #0]
 8002a2e:	495e      	ldr	r1, [pc, #376]	@ (8002ba8 <HAL_I2C_Master_Transmit+0x1a4>)
 8002a30:	2319      	movs	r3, #25
 8002a32:	2201      	movs	r2, #1
 8002a34:	4620      	mov	r0, r4
 8002a36:	f7ff fe67 	bl	8002708 <I2C_WaitOnFlagUntilTimeout>
 8002a3a:	2800      	cmp	r0, #0
 8002a3c:	d1f1      	bne.n	8002a22 <HAL_I2C_Master_Transmit+0x1e>
 8002a3e:	f894 303c 	ldrb.w	r3, [r4, #60]	@ 0x3c
 8002a42:	2b01      	cmp	r3, #1
 8002a44:	d0ed      	beq.n	8002a22 <HAL_I2C_Master_Transmit+0x1e>
 8002a46:	6821      	ldr	r1, [r4, #0]
 8002a48:	2301      	movs	r3, #1
 8002a4a:	f884 303c 	strb.w	r3, [r4, #60]	@ 0x3c
 8002a4e:	680b      	ldr	r3, [r1, #0]
 8002a50:	07da      	lsls	r2, r3, #31
 8002a52:	bf5e      	ittt	pl
 8002a54:	680b      	ldrpl	r3, [r1, #0]
 8002a56:	f043 0301 	orrpl.w	r3, r3, #1
 8002a5a:	600b      	strpl	r3, [r1, #0]
 8002a5c:	680b      	ldr	r3, [r1, #0]
 8002a5e:	f423 6300 	bic.w	r3, r3, #2048	@ 0x800
 8002a62:	600b      	str	r3, [r1, #0]
 8002a64:	2321      	movs	r3, #33	@ 0x21
 8002a66:	f884 303d 	strb.w	r3, [r4, #61]	@ 0x3d
 8002a6a:	2310      	movs	r3, #16
 8002a6c:	f884 303e 	strb.w	r3, [r4, #62]	@ 0x3e
 8002a70:	2300      	movs	r3, #0
 8002a72:	6423      	str	r3, [r4, #64]	@ 0x40
 8002a74:	f8a4 802a 	strh.w	r8, [r4, #42]	@ 0x2a
 8002a78:	8d63      	ldrh	r3, [r4, #42]	@ 0x2a
 8002a7a:	8523      	strh	r3, [r4, #40]	@ 0x28
 8002a7c:	4b4b      	ldr	r3, [pc, #300]	@ (8002bac <HAL_I2C_Master_Transmit+0x1a8>)
 8002a7e:	62e3      	str	r3, [r4, #44]	@ 0x2c
 8002a80:	6ae3      	ldr	r3, [r4, #44]	@ 0x2c
 8002a82:	f8c4 9024 	str.w	r9, [r4, #36]	@ 0x24
 8002a86:	2b08      	cmp	r3, #8
 8002a88:	d004      	beq.n	8002a94 <HAL_I2C_Master_Transmit+0x90>
 8002a8a:	2b01      	cmp	r3, #1
 8002a8c:	d002      	beq.n	8002a94 <HAL_I2C_Master_Transmit+0x90>
 8002a8e:	f513 3f80 	cmn.w	r3, #65536	@ 0x10000
 8002a92:	d104      	bne.n	8002a9e <HAL_I2C_Master_Transmit+0x9a>
 8002a94:	680b      	ldr	r3, [r1, #0]
 8002a96:	f443 7380 	orr.w	r3, r3, #256	@ 0x100
 8002a9a:	600b      	str	r3, [r1, #0]
 8002a9c:	e002      	b.n	8002aa4 <HAL_I2C_Master_Transmit+0xa0>
 8002a9e:	6b23      	ldr	r3, [r4, #48]	@ 0x30
 8002aa0:	2b12      	cmp	r3, #18
 8002aa2:	d0f7      	beq.n	8002a94 <HAL_I2C_Master_Transmit+0x90>
 8002aa4:	2200      	movs	r2, #0
 8002aa6:	9600      	str	r6, [sp, #0]
 8002aa8:	463b      	mov	r3, r7
 8002aaa:	f04f 1101 	mov.w	r1, #65537	@ 0x10001
 8002aae:	4620      	mov	r0, r4
 8002ab0:	f7ff fe2a 	bl	8002708 <I2C_WaitOnFlagUntilTimeout>
 8002ab4:	6822      	ldr	r2, [r4, #0]
 8002ab6:	b140      	cbz	r0, 8002aca <HAL_I2C_Master_Transmit+0xc6>
 8002ab8:	6813      	ldr	r3, [r2, #0]
 8002aba:	05db      	lsls	r3, r3, #23
 8002abc:	d401      	bmi.n	8002ac2 <HAL_I2C_Master_Transmit+0xbe>
 8002abe:	2501      	movs	r5, #1
 8002ac0:	e7b0      	b.n	8002a24 <HAL_I2C_Master_Transmit+0x20>
 8002ac2:	f44f 7300 	mov.w	r3, #512	@ 0x200
 8002ac6:	6423      	str	r3, [r4, #64]	@ 0x40
 8002ac8:	e7f9      	b.n	8002abe <HAL_I2C_Master_Transmit+0xba>
 8002aca:	6923      	ldr	r3, [r4, #16]
 8002acc:	f5b3 4f80 	cmp.w	r3, #16384	@ 0x4000
 8002ad0:	d121      	bne.n	8002b16 <HAL_I2C_Master_Transmit+0x112>
 8002ad2:	f005 05fe 	and.w	r5, r5, #254	@ 0xfe
 8002ad6:	6115      	str	r5, [r2, #16]
 8002ad8:	4935      	ldr	r1, [pc, #212]	@ (8002bb0 <HAL_I2C_Master_Transmit+0x1ac>)
 8002ada:	4633      	mov	r3, r6
 8002adc:	463a      	mov	r2, r7
 8002ade:	4620      	mov	r0, r4
 8002ae0:	f7ff fe52 	bl	8002788 <I2C_WaitOnMasterAddressFlagUntilTimeout>
 8002ae4:	4605      	mov	r5, r0
 8002ae6:	2800      	cmp	r0, #0
 8002ae8:	d1e9      	bne.n	8002abe <HAL_I2C_Master_Transmit+0xba>
 8002aea:	6823      	ldr	r3, [r4, #0]
 8002aec:	9003      	str	r0, [sp, #12]
 8002aee:	695a      	ldr	r2, [r3, #20]
 8002af0:	9203      	str	r2, [sp, #12]
 8002af2:	699b      	ldr	r3, [r3, #24]
 8002af4:	9303      	str	r3, [sp, #12]
 8002af6:	9b03      	ldr	r3, [sp, #12]
 8002af8:	8d23      	ldrh	r3, [r4, #40]	@ 0x28
 8002afa:	b9f3      	cbnz	r3, 8002b3a <HAL_I2C_Master_Transmit+0x136>
 8002afc:	6821      	ldr	r1, [r4, #0]
 8002afe:	680a      	ldr	r2, [r1, #0]
 8002b00:	f442 7200 	orr.w	r2, r2, #512	@ 0x200
 8002b04:	600a      	str	r2, [r1, #0]
 8002b06:	2220      	movs	r2, #32
 8002b08:	f884 203d 	strb.w	r2, [r4, #61]	@ 0x3d
 8002b0c:	f884 303c 	strb.w	r3, [r4, #60]	@ 0x3c
 8002b10:	f884 303e 	strb.w	r3, [r4, #62]	@ 0x3e
 8002b14:	e786      	b.n	8002a24 <HAL_I2C_Master_Transmit+0x20>
 8002b16:	11eb      	asrs	r3, r5, #7
 8002b18:	f003 0306 	and.w	r3, r3, #6
 8002b1c:	f043 03f0 	orr.w	r3, r3, #240	@ 0xf0
 8002b20:	6113      	str	r3, [r2, #16]
 8002b22:	4924      	ldr	r1, [pc, #144]	@ (8002bb4 <HAL_I2C_Master_Transmit+0x1b0>)
 8002b24:	4633      	mov	r3, r6
 8002b26:	463a      	mov	r2, r7
 8002b28:	4620      	mov	r0, r4
 8002b2a:	f7ff fe2d 	bl	8002788 <I2C_WaitOnMasterAddressFlagUntilTimeout>
 8002b2e:	2800      	cmp	r0, #0
 8002b30:	d1c5      	bne.n	8002abe <HAL_I2C_Master_Transmit+0xba>
 8002b32:	6823      	ldr	r3, [r4, #0]
 8002b34:	b2ed      	uxtb	r5, r5
 8002b36:	611d      	str	r5, [r3, #16]
 8002b38:	e7ce      	b.n	8002ad8 <HAL_I2C_Master_Transmit+0xd4>
 8002b3a:	4632      	mov	r2, r6
 8002b3c:	4639      	mov	r1, r7
 8002b3e:	4620      	mov	r0, r4
 8002b40:	f7ff fe64 	bl	800280c <I2C_WaitOnTXEFlagUntilTimeout>
 8002b44:	b140      	cbz	r0, 8002b58 <HAL_I2C_Master_Transmit+0x154>
 8002b46:	6c23      	ldr	r3, [r4, #64]	@ 0x40
 8002b48:	2b04      	cmp	r3, #4
 8002b4a:	d1b8      	bne.n	8002abe <HAL_I2C_Master_Transmit+0xba>
 8002b4c:	6822      	ldr	r2, [r4, #0]
 8002b4e:	6813      	ldr	r3, [r2, #0]
 8002b50:	f443 7300 	orr.w	r3, r3, #512	@ 0x200
 8002b54:	6013      	str	r3, [r2, #0]
 8002b56:	e7b2      	b.n	8002abe <HAL_I2C_Master_Transmit+0xba>
 8002b58:	6a63      	ldr	r3, [r4, #36]	@ 0x24
 8002b5a:	6820      	ldr	r0, [r4, #0]
 8002b5c:	461a      	mov	r2, r3
 8002b5e:	f812 1b01 	ldrb.w	r1, [r2], #1
 8002b62:	6101      	str	r1, [r0, #16]
 8002b64:	6262      	str	r2, [r4, #36]	@ 0x24
 8002b66:	8d62      	ldrh	r2, [r4, #42]	@ 0x2a
 8002b68:	3a01      	subs	r2, #1
 8002b6a:	b292      	uxth	r2, r2
 8002b6c:	8562      	strh	r2, [r4, #42]	@ 0x2a
 8002b6e:	8d22      	ldrh	r2, [r4, #40]	@ 0x28
 8002b70:	f8d0 c014 	ldr.w	ip, [r0, #20]
 8002b74:	1e51      	subs	r1, r2, #1
 8002b76:	b289      	uxth	r1, r1
 8002b78:	f01c 0f04 	tst.w	ip, #4
 8002b7c:	8521      	strh	r1, [r4, #40]	@ 0x28
 8002b7e:	d00a      	beq.n	8002b96 <HAL_I2C_Master_Transmit+0x192>
 8002b80:	b149      	cbz	r1, 8002b96 <HAL_I2C_Master_Transmit+0x192>
 8002b82:	7859      	ldrb	r1, [r3, #1]
 8002b84:	6101      	str	r1, [r0, #16]
 8002b86:	3302      	adds	r3, #2
 8002b88:	6263      	str	r3, [r4, #36]	@ 0x24
 8002b8a:	8d63      	ldrh	r3, [r4, #42]	@ 0x2a
 8002b8c:	3b01      	subs	r3, #1
 8002b8e:	b29b      	uxth	r3, r3
 8002b90:	3a02      	subs	r2, #2
 8002b92:	8563      	strh	r3, [r4, #42]	@ 0x2a
 8002b94:	8522      	strh	r2, [r4, #40]	@ 0x28
 8002b96:	4632      	mov	r2, r6
 8002b98:	4639      	mov	r1, r7
 8002b9a:	4620      	mov	r0, r4
 8002b9c:	f7ff fe60 	bl	8002860 <I2C_WaitOnBTFFlagUntilTimeout>
 8002ba0:	2800      	cmp	r0, #0
 8002ba2:	d0a9      	beq.n	8002af8 <HAL_I2C_Master_Transmit+0xf4>
 8002ba4:	e7cf      	b.n	8002b46 <HAL_I2C_Master_Transmit+0x142>
 8002ba6:	bf00      	nop
 8002ba8:	00100002 	.word	0x00100002
 8002bac:	ffff0000 	.word	0xffff0000
 8002bb0:	00010002 	.word	0x00010002
 8002bb4:	00010008 	.word	0x00010008

08002bb8 <HAL_I2C_IsDeviceReady>:
 8002bb8:	e92d 4ff0 	stmdb	sp!, {r4, r5, r6, r7, r8, r9, sl, fp, lr}
 8002bbc:	4604      	mov	r4, r0
 8002bbe:	b085      	sub	sp, #20
 8002bc0:	461f      	mov	r7, r3
 8002bc2:	4688      	mov	r8, r1
 8002bc4:	4692      	mov	sl, r2
 8002bc6:	f7ff fa65 	bl	8002094 <HAL_GetTick>
 8002bca:	f894 303d 	ldrb.w	r3, [r4, #61]	@ 0x3d
 8002bce:	2b20      	cmp	r3, #32
 8002bd0:	4605      	mov	r5, r0
 8002bd2:	d003      	beq.n	8002bdc <HAL_I2C_IsDeviceReady+0x24>
 8002bd4:	2002      	movs	r0, #2
 8002bd6:	b005      	add	sp, #20
 8002bd8:	e8bd 8ff0 	ldmia.w	sp!, {r4, r5, r6, r7, r8, r9, sl, fp, pc}
 8002bdc:	9000      	str	r0, [sp, #0]
 8002bde:	494c      	ldr	r1, [pc, #304]	@ (8002d10 <HAL_I2C_IsDeviceReady+0x158>)
 8002be0:	2319      	movs	r3, #25
 8002be2:	2201      	movs	r2, #1
 8002be4:	4620      	mov	r0, r4
 8002be6:	f7ff fd8f 	bl	8002708 <I2C_WaitOnFlagUntilTimeout>
 8002bea:	2800      	cmp	r0, #0
 8002bec:	d1f2      	bne.n	8002bd4 <HAL_I2C_IsDeviceReady+0x1c>
 8002bee:	f894 303c 	ldrb.w	r3, [r4, #60]	@ 0x3c
 8002bf2:	2b01      	cmp	r3, #1
 8002bf4:	d0ee      	beq.n	8002bd4 <HAL_I2C_IsDeviceReady+0x1c>
 8002bf6:	2301      	movs	r3, #1
 8002bf8:	f884 303c 	strb.w	r3, [r4, #60]	@ 0x3c
 8002bfc:	6823      	ldr	r3, [r4, #0]
 8002bfe:	f8df b110 	ldr.w	fp, [pc, #272]	@ 8002d10 <HAL_I2C_IsDeviceReady+0x158>
 8002c02:	681a      	ldr	r2, [r3, #0]
 8002c04:	07d2      	lsls	r2, r2, #31
 8002c06:	bf5e      	ittt	pl
 8002c08:	681a      	ldrpl	r2, [r3, #0]
 8002c0a:	f042 0201 	orrpl.w	r2, r2, #1
 8002c0e:	601a      	strpl	r2, [r3, #0]
 8002c10:	681a      	ldr	r2, [r3, #0]
 8002c12:	f422 6200 	bic.w	r2, r2, #2048	@ 0x800
 8002c16:	601a      	str	r2, [r3, #0]
 8002c18:	2324      	movs	r3, #36	@ 0x24
 8002c1a:	f884 303d 	strb.w	r3, [r4, #61]	@ 0x3d
 8002c1e:	2600      	movs	r6, #0
 8002c20:	4b3c      	ldr	r3, [pc, #240]	@ (8002d14 <HAL_I2C_IsDeviceReady+0x15c>)
 8002c22:	6426      	str	r6, [r4, #64]	@ 0x40
 8002c24:	f008 08fe 	and.w	r8, r8, #254	@ 0xfe
 8002c28:	62e3      	str	r3, [r4, #44]	@ 0x2c
 8002c2a:	6822      	ldr	r2, [r4, #0]
 8002c2c:	6813      	ldr	r3, [r2, #0]
 8002c2e:	f443 7380 	orr.w	r3, r3, #256	@ 0x100
 8002c32:	6013      	str	r3, [r2, #0]
 8002c34:	f04f 1101 	mov.w	r1, #65537	@ 0x10001
 8002c38:	463b      	mov	r3, r7
 8002c3a:	9500      	str	r5, [sp, #0]
 8002c3c:	2200      	movs	r2, #0
 8002c3e:	4620      	mov	r0, r4
 8002c40:	f7ff fd62 	bl	8002708 <I2C_WaitOnFlagUntilTimeout>
 8002c44:	6823      	ldr	r3, [r4, #0]
 8002c46:	b138      	cbz	r0, 8002c58 <HAL_I2C_IsDeviceReady+0xa0>
 8002c48:	681b      	ldr	r3, [r3, #0]
 8002c4a:	05db      	lsls	r3, r3, #23
 8002c4c:	bf44      	itt	mi
 8002c4e:	f44f 7300 	movmi.w	r3, #512	@ 0x200
 8002c52:	6423      	strmi	r3, [r4, #64]	@ 0x40
 8002c54:	2003      	movs	r0, #3
 8002c56:	e7be      	b.n	8002bd6 <HAL_I2C_IsDeviceReady+0x1e>
 8002c58:	f8c3 8010 	str.w	r8, [r3, #16]
 8002c5c:	f7ff fa1a 	bl	8002094 <HAL_GetTick>
 8002c60:	6823      	ldr	r3, [r4, #0]
 8002c62:	695a      	ldr	r2, [r3, #20]
 8002c64:	695b      	ldr	r3, [r3, #20]
 8002c66:	4605      	mov	r5, r0
 8002c68:	f3c2 0240 	ubfx	r2, r2, #1, #1
 8002c6c:	f3c3 2380 	ubfx	r3, r3, #10, #1
 8002c70:	f04f 09a0 	mov.w	r9, #160	@ 0xa0
 8002c74:	f894 103d 	ldrb.w	r1, [r4, #61]	@ 0x3d
 8002c78:	29a0      	cmp	r1, #160	@ 0xa0
 8002c7a:	d001      	beq.n	8002c80 <HAL_I2C_IsDeviceReady+0xc8>
 8002c7c:	4313      	orrs	r3, r2
 8002c7e:	d01d      	beq.n	8002cbc <HAL_I2C_IsDeviceReady+0x104>
 8002c80:	6823      	ldr	r3, [r4, #0]
 8002c82:	f04f 0920 	mov.w	r9, #32
 8002c86:	f884 903d 	strb.w	r9, [r4, #61]	@ 0x3d
 8002c8a:	695a      	ldr	r2, [r3, #20]
 8002c8c:	f012 0f02 	tst.w	r2, #2
 8002c90:	681a      	ldr	r2, [r3, #0]
 8002c92:	f442 7200 	orr.w	r2, r2, #512	@ 0x200
 8002c96:	601a      	str	r2, [r3, #0]
 8002c98:	d025      	beq.n	8002ce6 <HAL_I2C_IsDeviceReady+0x12e>
 8002c9a:	2200      	movs	r2, #0
 8002c9c:	9203      	str	r2, [sp, #12]
 8002c9e:	695a      	ldr	r2, [r3, #20]
 8002ca0:	9203      	str	r2, [sp, #12]
 8002ca2:	699b      	ldr	r3, [r3, #24]
 8002ca4:	9303      	str	r3, [sp, #12]
 8002ca6:	9b03      	ldr	r3, [sp, #12]
 8002ca8:	4919      	ldr	r1, [pc, #100]	@ (8002d10 <HAL_I2C_IsDeviceReady+0x158>)
 8002caa:	9500      	str	r5, [sp, #0]
 8002cac:	2319      	movs	r3, #25
 8002cae:	2201      	movs	r2, #1
 8002cb0:	4620      	mov	r0, r4
 8002cb2:	f7ff fd29 	bl	8002708 <I2C_WaitOnFlagUntilTimeout>
 8002cb6:	b188      	cbz	r0, 8002cdc <HAL_I2C_IsDeviceReady+0x124>
 8002cb8:	2001      	movs	r0, #1
 8002cba:	e78c      	b.n	8002bd6 <HAL_I2C_IsDeviceReady+0x1e>
 8002cbc:	f7ff f9ea 	bl	8002094 <HAL_GetTick>
 8002cc0:	1b40      	subs	r0, r0, r5
 8002cc2:	42b8      	cmp	r0, r7
 8002cc4:	d800      	bhi.n	8002cc8 <HAL_I2C_IsDeviceReady+0x110>
 8002cc6:	b90f      	cbnz	r7, 8002ccc <HAL_I2C_IsDeviceReady+0x114>
 8002cc8:	f884 903d 	strb.w	r9, [r4, #61]	@ 0x3d
 8002ccc:	6823      	ldr	r3, [r4, #0]
 8002cce:	695a      	ldr	r2, [r3, #20]
 8002cd0:	695b      	ldr	r3, [r3, #20]
 8002cd2:	f3c2 0240 	ubfx	r2, r2, #1, #1
 8002cd6:	f3c3 2380 	ubfx	r3, r3, #10, #1
 8002cda:	e7cb      	b.n	8002c74 <HAL_I2C_IsDeviceReady+0xbc>
 8002cdc:	f884 903d 	strb.w	r9, [r4, #61]	@ 0x3d
 8002ce0:	f884 003c 	strb.w	r0, [r4, #60]	@ 0x3c
 8002ce4:	e777      	b.n	8002bd6 <HAL_I2C_IsDeviceReady+0x1e>
 8002ce6:	f46f 6280 	mvn.w	r2, #1024	@ 0x400
 8002cea:	615a      	str	r2, [r3, #20]
 8002cec:	4659      	mov	r1, fp
 8002cee:	9500      	str	r5, [sp, #0]
 8002cf0:	2319      	movs	r3, #25
 8002cf2:	2201      	movs	r2, #1
 8002cf4:	4620      	mov	r0, r4
 8002cf6:	f7ff fd07 	bl	8002708 <I2C_WaitOnFlagUntilTimeout>
 8002cfa:	2800      	cmp	r0, #0
 8002cfc:	d1dc      	bne.n	8002cb8 <HAL_I2C_IsDeviceReady+0x100>
 8002cfe:	3601      	adds	r6, #1
 8002d00:	4556      	cmp	r6, sl
 8002d02:	d392      	bcc.n	8002c2a <HAL_I2C_IsDeviceReady+0x72>
 8002d04:	f884 903d 	strb.w	r9, [r4, #61]	@ 0x3d
 8002d08:	f884 003c 	strb.w	r0, [r4, #60]	@ 0x3c
 8002d0c:	e7d4      	b.n	8002cb8 <HAL_I2C_IsDeviceReady+0x100>
 8002d0e:	bf00      	nop
 8002d10:	00100002 	.word	0x00100002
 8002d14:	ffff0000 	.word	0xffff0000

08002d18 <HAL_RCC_OscConfig>:
 8002d18:	e92d 41f3 	stmdb	sp!, {r0, r1, r4, r5, r6, r7, r8, lr}
 8002d1c:	4604      	mov	r4, r0
 8002d1e:	b340      	cbz	r0, 8002d72 <HAL_RCC_OscConfig+0x5a>
 8002d20:	6803      	ldr	r3, [r0, #0]
 8002d22:	07de      	lsls	r6, r3, #31
 8002d24:	d410      	bmi.n	8002d48 <HAL_RCC_OscConfig+0x30>
 8002d26:	6823      	ldr	r3, [r4, #0]
 8002d28:	079d      	lsls	r5, r3, #30
 8002d2a:	d45b      	bmi.n	8002de4 <HAL_RCC_OscConfig+0xcc>
 8002d2c:	6823      	ldr	r3, [r4, #0]
 8002d2e:	0719      	lsls	r1, r3, #28
 8002d30:	f100 809d 	bmi.w	8002e6e <HAL_RCC_OscConfig+0x156>
 8002d34:	6823      	ldr	r3, [r4, #0]
 8002d36:	075a      	lsls	r2, r3, #29
 8002d38:	f100 80bd 	bmi.w	8002eb6 <HAL_RCC_OscConfig+0x19e>
 8002d3c:	69a3      	ldr	r3, [r4, #24]
 8002d3e:	2b00      	cmp	r3, #0
 8002d40:	f040 8124 	bne.w	8002f8c <HAL_RCC_OscConfig+0x274>
 8002d44:	2000      	movs	r0, #0
 8002d46:	e02c      	b.n	8002da2 <HAL_RCC_OscConfig+0x8a>
 8002d48:	4b8d      	ldr	r3, [pc, #564]	@ (8002f80 <HAL_RCC_OscConfig+0x268>)
 8002d4a:	689a      	ldr	r2, [r3, #8]
 8002d4c:	f002 020c 	and.w	r2, r2, #12
 8002d50:	2a04      	cmp	r2, #4
 8002d52:	d007      	beq.n	8002d64 <HAL_RCC_OscConfig+0x4c>
 8002d54:	689a      	ldr	r2, [r3, #8]
 8002d56:	f002 020c 	and.w	r2, r2, #12
 8002d5a:	2a08      	cmp	r2, #8
 8002d5c:	d10b      	bne.n	8002d76 <HAL_RCC_OscConfig+0x5e>
 8002d5e:	685b      	ldr	r3, [r3, #4]
 8002d60:	0259      	lsls	r1, r3, #9
 8002d62:	d508      	bpl.n	8002d76 <HAL_RCC_OscConfig+0x5e>
 8002d64:	4b86      	ldr	r3, [pc, #536]	@ (8002f80 <HAL_RCC_OscConfig+0x268>)
 8002d66:	681b      	ldr	r3, [r3, #0]
 8002d68:	039a      	lsls	r2, r3, #14
 8002d6a:	d5dc      	bpl.n	8002d26 <HAL_RCC_OscConfig+0xe>
 8002d6c:	6863      	ldr	r3, [r4, #4]
 8002d6e:	2b00      	cmp	r3, #0
 8002d70:	d1d9      	bne.n	8002d26 <HAL_RCC_OscConfig+0xe>
 8002d72:	2001      	movs	r0, #1
 8002d74:	e015      	b.n	8002da2 <HAL_RCC_OscConfig+0x8a>
 8002d76:	6863      	ldr	r3, [r4, #4]
 8002d78:	4d81      	ldr	r5, [pc, #516]	@ (8002f80 <HAL_RCC_OscConfig+0x268>)
 8002d7a:	f5b3 3f80 	cmp.w	r3, #65536	@ 0x10000
 8002d7e:	d113      	bne.n	8002da8 <HAL_RCC_OscConfig+0x90>
 8002d80:	682b      	ldr	r3, [r5, #0]
 8002d82:	f443 3380 	orr.w	r3, r3, #65536	@ 0x10000
 8002d86:	602b      	str	r3, [r5, #0]
 8002d88:	f7ff f984 	bl	8002094 <HAL_GetTick>
 8002d8c:	4e7c      	ldr	r6, [pc, #496]	@ (8002f80 <HAL_RCC_OscConfig+0x268>)
 8002d8e:	4605      	mov	r5, r0
 8002d90:	6833      	ldr	r3, [r6, #0]
 8002d92:	039b      	lsls	r3, r3, #14
 8002d94:	d4c7      	bmi.n	8002d26 <HAL_RCC_OscConfig+0xe>
 8002d96:	f7ff f97d 	bl	8002094 <HAL_GetTick>
 8002d9a:	1b40      	subs	r0, r0, r5
 8002d9c:	2864      	cmp	r0, #100	@ 0x64
 8002d9e:	d9f7      	bls.n	8002d90 <HAL_RCC_OscConfig+0x78>
 8002da0:	2003      	movs	r0, #3
 8002da2:	b002      	add	sp, #8
 8002da4:	e8bd 81f0 	ldmia.w	sp!, {r4, r5, r6, r7, r8, pc}
 8002da8:	f5b3 2fa0 	cmp.w	r3, #327680	@ 0x50000
 8002dac:	d104      	bne.n	8002db8 <HAL_RCC_OscConfig+0xa0>
 8002dae:	682b      	ldr	r3, [r5, #0]
 8002db0:	f443 2380 	orr.w	r3, r3, #262144	@ 0x40000
 8002db4:	602b      	str	r3, [r5, #0]
 8002db6:	e7e3      	b.n	8002d80 <HAL_RCC_OscConfig+0x68>
 8002db8:	682a      	ldr	r2, [r5, #0]
 8002dba:	f422 3280 	bic.w	r2, r2, #65536	@ 0x10000
 8002dbe:	602a      	str	r2, [r5, #0]
 8002dc0:	682a      	ldr	r2, [r5, #0]
 8002dc2:	f422 2280 	bic.w	r2, r2, #262144	@ 0x40000
 8002dc6:	602a      	str	r2, [r5, #0]
 8002dc8:	2b00      	cmp	r3, #0
 8002dca:	d1dd      	bne.n	8002d88 <HAL_RCC_OscConfig+0x70>
 8002dcc:	f7ff f962 	bl	8002094 <HAL_GetTick>
 8002dd0:	4606      	mov	r6, r0
 8002dd2:	682b      	ldr	r3, [r5, #0]
 8002dd4:	039f      	lsls	r7, r3, #14
 8002dd6:	d5a6      	bpl.n	8002d26 <HAL_RCC_OscConfig+0xe>
 8002dd8:	f7ff f95c 	bl	8002094 <HAL_GetTick>
 8002ddc:	1b80      	subs	r0, r0, r6
 8002dde:	2864      	cmp	r0, #100	@ 0x64
 8002de0:	d9f7      	bls.n	8002dd2 <HAL_RCC_OscConfig+0xba>
 8002de2:	e7dd      	b.n	8002da0 <HAL_RCC_OscConfig+0x88>
 8002de4:	4b66      	ldr	r3, [pc, #408]	@ (8002f80 <HAL_RCC_OscConfig+0x268>)
 8002de6:	689a      	ldr	r2, [r3, #8]
 8002de8:	f012 0f0c 	tst.w	r2, #12
 8002dec:	d007      	beq.n	8002dfe <HAL_RCC_OscConfig+0xe6>
 8002dee:	689a      	ldr	r2, [r3, #8]
 8002df0:	f002 020c 	and.w	r2, r2, #12
 8002df4:	2a08      	cmp	r2, #8
 8002df6:	d111      	bne.n	8002e1c <HAL_RCC_OscConfig+0x104>
 8002df8:	685b      	ldr	r3, [r3, #4]
 8002dfa:	025d      	lsls	r5, r3, #9
 8002dfc:	d40e      	bmi.n	8002e1c <HAL_RCC_OscConfig+0x104>
 8002dfe:	4a60      	ldr	r2, [pc, #384]	@ (8002f80 <HAL_RCC_OscConfig+0x268>)
 8002e00:	6813      	ldr	r3, [r2, #0]
 8002e02:	0799      	lsls	r1, r3, #30
 8002e04:	d502      	bpl.n	8002e0c <HAL_RCC_OscConfig+0xf4>
 8002e06:	68e3      	ldr	r3, [r4, #12]
 8002e08:	2b01      	cmp	r3, #1
 8002e0a:	d1b2      	bne.n	8002d72 <HAL_RCC_OscConfig+0x5a>
 8002e0c:	6813      	ldr	r3, [r2, #0]
 8002e0e:	6921      	ldr	r1, [r4, #16]
 8002e10:	f023 03f8 	bic.w	r3, r3, #248	@ 0xf8
 8002e14:	ea43 03c1 	orr.w	r3, r3, r1, lsl #3
 8002e18:	6013      	str	r3, [r2, #0]
 8002e1a:	e787      	b.n	8002d2c <HAL_RCC_OscConfig+0x14>
 8002e1c:	68e2      	ldr	r2, [r4, #12]
 8002e1e:	4b59      	ldr	r3, [pc, #356]	@ (8002f84 <HAL_RCC_OscConfig+0x26c>)
 8002e20:	b1b2      	cbz	r2, 8002e50 <HAL_RCC_OscConfig+0x138>
 8002e22:	2201      	movs	r2, #1
 8002e24:	601a      	str	r2, [r3, #0]
 8002e26:	f7ff f935 	bl	8002094 <HAL_GetTick>
 8002e2a:	4d55      	ldr	r5, [pc, #340]	@ (8002f80 <HAL_RCC_OscConfig+0x268>)
 8002e2c:	4606      	mov	r6, r0
 8002e2e:	682b      	ldr	r3, [r5, #0]
 8002e30:	079b      	lsls	r3, r3, #30
 8002e32:	d507      	bpl.n	8002e44 <HAL_RCC_OscConfig+0x12c>
 8002e34:	682b      	ldr	r3, [r5, #0]
 8002e36:	6922      	ldr	r2, [r4, #16]
 8002e38:	f023 03f8 	bic.w	r3, r3, #248	@ 0xf8
 8002e3c:	ea43 03c2 	orr.w	r3, r3, r2, lsl #3
 8002e40:	602b      	str	r3, [r5, #0]
 8002e42:	e773      	b.n	8002d2c <HAL_RCC_OscConfig+0x14>
 8002e44:	f7ff f926 	bl	8002094 <HAL_GetTick>
 8002e48:	1b80      	subs	r0, r0, r6
 8002e4a:	2802      	cmp	r0, #2
 8002e4c:	d9ef      	bls.n	8002e2e <HAL_RCC_OscConfig+0x116>
 8002e4e:	e7a7      	b.n	8002da0 <HAL_RCC_OscConfig+0x88>
 8002e50:	601a      	str	r2, [r3, #0]
 8002e52:	f7ff f91f 	bl	8002094 <HAL_GetTick>
 8002e56:	4e4a      	ldr	r6, [pc, #296]	@ (8002f80 <HAL_RCC_OscConfig+0x268>)
 8002e58:	4605      	mov	r5, r0
 8002e5a:	6833      	ldr	r3, [r6, #0]
 8002e5c:	079f      	lsls	r7, r3, #30
 8002e5e:	f57f af65 	bpl.w	8002d2c <HAL_RCC_OscConfig+0x14>
 8002e62:	f7ff f917 	bl	8002094 <HAL_GetTick>
 8002e66:	1b40      	subs	r0, r0, r5
 8002e68:	2802      	cmp	r0, #2
 8002e6a:	d9f6      	bls.n	8002e5a <HAL_RCC_OscConfig+0x142>
 8002e6c:	e798      	b.n	8002da0 <HAL_RCC_OscConfig+0x88>
 8002e6e:	6962      	ldr	r2, [r4, #20]
 8002e70:	4b44      	ldr	r3, [pc, #272]	@ (8002f84 <HAL_RCC_OscConfig+0x26c>)
 8002e72:	b182      	cbz	r2, 8002e96 <HAL_RCC_OscConfig+0x17e>
 8002e74:	2201      	movs	r2, #1
 8002e76:	f8c3 2e80 	str.w	r2, [r3, #3712]	@ 0xe80
 8002e7a:	f7ff f90b 	bl	8002094 <HAL_GetTick>
 8002e7e:	4e40      	ldr	r6, [pc, #256]	@ (8002f80 <HAL_RCC_OscConfig+0x268>)
 8002e80:	4605      	mov	r5, r0
 8002e82:	6f73      	ldr	r3, [r6, #116]	@ 0x74
 8002e84:	079b      	lsls	r3, r3, #30
 8002e86:	f53f af55 	bmi.w	8002d34 <HAL_RCC_OscConfig+0x1c>
 8002e8a:	f7ff f903 	bl	8002094 <HAL_GetTick>
 8002e8e:	1b40      	subs	r0, r0, r5
 8002e90:	2802      	cmp	r0, #2
 8002e92:	d9f6      	bls.n	8002e82 <HAL_RCC_OscConfig+0x16a>
 8002e94:	e784      	b.n	8002da0 <HAL_RCC_OscConfig+0x88>
 8002e96:	f8c3 2e80 	str.w	r2, [r3, #3712]	@ 0xe80
 8002e9a:	f7ff f8fb 	bl	8002094 <HAL_GetTick>
 8002e9e:	4e38      	ldr	r6, [pc, #224]	@ (8002f80 <HAL_RCC_OscConfig+0x268>)
 8002ea0:	4605      	mov	r5, r0
 8002ea2:	6f73      	ldr	r3, [r6, #116]	@ 0x74
 8002ea4:	079f      	lsls	r7, r3, #30
 8002ea6:	f57f af45 	bpl.w	8002d34 <HAL_RCC_OscConfig+0x1c>
 8002eaa:	f7ff f8f3 	bl	8002094 <HAL_GetTick>
 8002eae:	1b40      	subs	r0, r0, r5
 8002eb0:	2802      	cmp	r0, #2
 8002eb2:	d9f6      	bls.n	8002ea2 <HAL_RCC_OscConfig+0x18a>
 8002eb4:	e774      	b.n	8002da0 <HAL_RCC_OscConfig+0x88>
 8002eb6:	4b32      	ldr	r3, [pc, #200]	@ (8002f80 <HAL_RCC_OscConfig+0x268>)
 8002eb8:	6c1a      	ldr	r2, [r3, #64]	@ 0x40
 8002eba:	f012 5280 	ands.w	r2, r2, #268435456	@ 0x10000000
 8002ebe:	d128      	bne.n	8002f12 <HAL_RCC_OscConfig+0x1fa>
 8002ec0:	9201      	str	r2, [sp, #4]
 8002ec2:	6c1a      	ldr	r2, [r3, #64]	@ 0x40
 8002ec4:	f042 5280 	orr.w	r2, r2, #268435456	@ 0x10000000
 8002ec8:	641a      	str	r2, [r3, #64]	@ 0x40
 8002eca:	6c1b      	ldr	r3, [r3, #64]	@ 0x40
 8002ecc:	f003 5380 	and.w	r3, r3, #268435456	@ 0x10000000
 8002ed0:	9301      	str	r3, [sp, #4]
 8002ed2:	9b01      	ldr	r3, [sp, #4]
 8002ed4:	2701      	movs	r7, #1
 8002ed6:	4d2c      	ldr	r5, [pc, #176]	@ (8002f88 <HAL_RCC_OscConfig+0x270>)
 8002ed8:	682b      	ldr	r3, [r5, #0]
 8002eda:	05d8      	lsls	r0, r3, #23
 8002edc:	d51b      	bpl.n	8002f16 <HAL_RCC_OscConfig+0x1fe>
 8002ede:	68a3      	ldr	r3, [r4, #8]
 8002ee0:	4d27      	ldr	r5, [pc, #156]	@ (8002f80 <HAL_RCC_OscConfig+0x268>)
 8002ee2:	2b01      	cmp	r3, #1
 8002ee4:	d127      	bne.n	8002f36 <HAL_RCC_OscConfig+0x21e>
 8002ee6:	6f2b      	ldr	r3, [r5, #112]	@ 0x70
 8002ee8:	f043 0301 	orr.w	r3, r3, #1
 8002eec:	672b      	str	r3, [r5, #112]	@ 0x70
 8002eee:	f7ff f8d1 	bl	8002094 <HAL_GetTick>
 8002ef2:	4e23      	ldr	r6, [pc, #140]	@ (8002f80 <HAL_RCC_OscConfig+0x268>)
 8002ef4:	4605      	mov	r5, r0
 8002ef6:	f241 3888 	movw	r8, #5000	@ 0x1388
 8002efa:	6f33      	ldr	r3, [r6, #112]	@ 0x70
 8002efc:	079a      	lsls	r2, r3, #30
 8002efe:	d539      	bpl.n	8002f74 <HAL_RCC_OscConfig+0x25c>
 8002f00:	2f00      	cmp	r7, #0
 8002f02:	f43f af1b 	beq.w	8002d3c <HAL_RCC_OscConfig+0x24>
 8002f06:	4a1e      	ldr	r2, [pc, #120]	@ (8002f80 <HAL_RCC_OscConfig+0x268>)
 8002f08:	6c13      	ldr	r3, [r2, #64]	@ 0x40
 8002f0a:	f023 5380 	bic.w	r3, r3, #268435456	@ 0x10000000
 8002f0e:	6413      	str	r3, [r2, #64]	@ 0x40
 8002f10:	e714      	b.n	8002d3c <HAL_RCC_OscConfig+0x24>
 8002f12:	2700      	movs	r7, #0
 8002f14:	e7df      	b.n	8002ed6 <HAL_RCC_OscConfig+0x1be>
 8002f16:	682b      	ldr	r3, [r5, #0]
 8002f18:	f443 7380 	orr.w	r3, r3, #256	@ 0x100
 8002f1c:	602b      	str	r3, [r5, #0]
 8002f1e:	f7ff f8b9 	bl	8002094 <HAL_GetTick>
 8002f22:	4606      	mov	r6, r0
 8002f24:	682b      	ldr	r3, [r5, #0]
 8002f26:	05d9      	lsls	r1, r3, #23
 8002f28:	d4d9      	bmi.n	8002ede <HAL_RCC_OscConfig+0x1c6>
 8002f2a:	f7ff f8b3 	bl	8002094 <HAL_GetTick>
 8002f2e:	1b80      	subs	r0, r0, r6
 8002f30:	2802      	cmp	r0, #2
 8002f32:	d9f7      	bls.n	8002f24 <HAL_RCC_OscConfig+0x20c>
 8002f34:	e734      	b.n	8002da0 <HAL_RCC_OscConfig+0x88>
 8002f36:	2b05      	cmp	r3, #5
 8002f38:	d104      	bne.n	8002f44 <HAL_RCC_OscConfig+0x22c>
 8002f3a:	6f2b      	ldr	r3, [r5, #112]	@ 0x70
 8002f3c:	f043 0304 	orr.w	r3, r3, #4
 8002f40:	672b      	str	r3, [r5, #112]	@ 0x70
 8002f42:	e7d0      	b.n	8002ee6 <HAL_RCC_OscConfig+0x1ce>
 8002f44:	6f2a      	ldr	r2, [r5, #112]	@ 0x70
 8002f46:	f022 0201 	bic.w	r2, r2, #1
 8002f4a:	672a      	str	r2, [r5, #112]	@ 0x70
 8002f4c:	6f2a      	ldr	r2, [r5, #112]	@ 0x70
 8002f4e:	f022 0204 	bic.w	r2, r2, #4
 8002f52:	672a      	str	r2, [r5, #112]	@ 0x70
 8002f54:	2b00      	cmp	r3, #0
 8002f56:	d1ca      	bne.n	8002eee <HAL_RCC_OscConfig+0x1d6>
 8002f58:	f7ff f89c 	bl	8002094 <HAL_GetTick>
 8002f5c:	f241 3888 	movw	r8, #5000	@ 0x1388
 8002f60:	4606      	mov	r6, r0
 8002f62:	6f2b      	ldr	r3, [r5, #112]	@ 0x70
 8002f64:	079b      	lsls	r3, r3, #30
 8002f66:	d5cb      	bpl.n	8002f00 <HAL_RCC_OscConfig+0x1e8>
 8002f68:	f7ff f894 	bl	8002094 <HAL_GetTick>
 8002f6c:	1b80      	subs	r0, r0, r6
 8002f6e:	4540      	cmp	r0, r8
 8002f70:	d9f7      	bls.n	8002f62 <HAL_RCC_OscConfig+0x24a>
 8002f72:	e715      	b.n	8002da0 <HAL_RCC_OscConfig+0x88>
 8002f74:	f7ff f88e 	bl	8002094 <HAL_GetTick>
 8002f78:	1b40      	subs	r0, r0, r5
 8002f7a:	4540      	cmp	r0, r8
 8002f7c:	d9bd      	bls.n	8002efa <HAL_RCC_OscConfig+0x1e2>
 8002f7e:	e70f      	b.n	8002da0 <HAL_RCC_OscConfig+0x88>
 8002f80:	40023800 	.word	0x40023800
 8002f84:	42470000 	.word	0x42470000
 8002f88:	40007000 	.word	0x40007000
 8002f8c:	4d37      	ldr	r5, [pc, #220]	@ (800306c <HAL_RCC_OscConfig+0x354>)
 8002f8e:	68aa      	ldr	r2, [r5, #8]
 8002f90:	f002 020c 	and.w	r2, r2, #12
 8002f94:	2a08      	cmp	r2, #8
 8002f96:	d03e      	beq.n	8003016 <HAL_RCC_OscConfig+0x2fe>
 8002f98:	2b02      	cmp	r3, #2
 8002f9a:	4b35      	ldr	r3, [pc, #212]	@ (8003070 <HAL_RCC_OscConfig+0x358>)
 8002f9c:	f04f 0200 	mov.w	r2, #0
 8002fa0:	661a      	str	r2, [r3, #96]	@ 0x60
 8002fa2:	d12b      	bne.n	8002ffc <HAL_RCC_OscConfig+0x2e4>
 8002fa4:	f7ff f876 	bl	8002094 <HAL_GetTick>
 8002fa8:	4606      	mov	r6, r0
 8002faa:	682b      	ldr	r3, [r5, #0]
 8002fac:	0199      	lsls	r1, r3, #6
 8002fae:	d41f      	bmi.n	8002ff0 <HAL_RCC_OscConfig+0x2d8>
 8002fb0:	e9d4 3207 	ldrd	r3, r2, [r4, #28]
 8002fb4:	4313      	orrs	r3, r2
 8002fb6:	6a62      	ldr	r2, [r4, #36]	@ 0x24
 8002fb8:	ea43 1382 	orr.w	r3, r3, r2, lsl #6
 8002fbc:	6ae2      	ldr	r2, [r4, #44]	@ 0x2c
 8002fbe:	ea43 6302 	orr.w	r3, r3, r2, lsl #24
 8002fc2:	6aa2      	ldr	r2, [r4, #40]	@ 0x28
 8002fc4:	0852      	lsrs	r2, r2, #1
 8002fc6:	3a01      	subs	r2, #1
 8002fc8:	ea43 4302 	orr.w	r3, r3, r2, lsl #16
 8002fcc:	606b      	str	r3, [r5, #4]
 8002fce:	4b28      	ldr	r3, [pc, #160]	@ (8003070 <HAL_RCC_OscConfig+0x358>)
 8002fd0:	4d26      	ldr	r5, [pc, #152]	@ (800306c <HAL_RCC_OscConfig+0x354>)
 8002fd2:	2201      	movs	r2, #1
 8002fd4:	661a      	str	r2, [r3, #96]	@ 0x60
 8002fd6:	f7ff f85d 	bl	8002094 <HAL_GetTick>
 8002fda:	4604      	mov	r4, r0
 8002fdc:	682b      	ldr	r3, [r5, #0]
 8002fde:	019a      	lsls	r2, r3, #6
 8002fe0:	f53f aeb0 	bmi.w	8002d44 <HAL_RCC_OscConfig+0x2c>
 8002fe4:	f7ff f856 	bl	8002094 <HAL_GetTick>
 8002fe8:	1b00      	subs	r0, r0, r4
 8002fea:	2802      	cmp	r0, #2
 8002fec:	d9f6      	bls.n	8002fdc <HAL_RCC_OscConfig+0x2c4>
 8002fee:	e6d7      	b.n	8002da0 <HAL_RCC_OscConfig+0x88>
 8002ff0:	f7ff f850 	bl	8002094 <HAL_GetTick>
 8002ff4:	1b80      	subs	r0, r0, r6
 8002ff6:	2802      	cmp	r0, #2
 8002ff8:	d9d7      	bls.n	8002faa <HAL_RCC_OscConfig+0x292>
 8002ffa:	e6d1      	b.n	8002da0 <HAL_RCC_OscConfig+0x88>
 8002ffc:	f7ff f84a 	bl	8002094 <HAL_GetTick>
 8003000:	4604      	mov	r4, r0
 8003002:	682b      	ldr	r3, [r5, #0]
 8003004:	019b      	lsls	r3, r3, #6
 8003006:	f57f ae9d 	bpl.w	8002d44 <HAL_RCC_OscConfig+0x2c>
 800300a:	f7ff f843 	bl	8002094 <HAL_GetTick>
 800300e:	1b00      	subs	r0, r0, r4
 8003010:	2802      	cmp	r0, #2
 8003012:	d9f6      	bls.n	8003002 <HAL_RCC_OscConfig+0x2ea>
 8003014:	e6c4      	b.n	8002da0 <HAL_RCC_OscConfig+0x88>
 8003016:	2b01      	cmp	r3, #1
 8003018:	f43f aeab 	beq.w	8002d72 <HAL_RCC_OscConfig+0x5a>
 800301c:	686b      	ldr	r3, [r5, #4]
 800301e:	69e2      	ldr	r2, [r4, #28]
 8003020:	f403 0180 	and.w	r1, r3, #4194304	@ 0x400000
 8003024:	4291      	cmp	r1, r2
 8003026:	f47f aea4 	bne.w	8002d72 <HAL_RCC_OscConfig+0x5a>
 800302a:	6a21      	ldr	r1, [r4, #32]
 800302c:	f003 023f 	and.w	r2, r3, #63	@ 0x3f
 8003030:	428a      	cmp	r2, r1
 8003032:	f47f ae9e 	bne.w	8002d72 <HAL_RCC_OscConfig+0x5a>
 8003036:	6a61      	ldr	r1, [r4, #36]	@ 0x24
 8003038:	f647 72c0 	movw	r2, #32704	@ 0x7fc0
 800303c:	401a      	ands	r2, r3
 800303e:	ebb2 1f81 	cmp.w	r2, r1, lsl #6
 8003042:	f47f ae96 	bne.w	8002d72 <HAL_RCC_OscConfig+0x5a>
 8003046:	6aa2      	ldr	r2, [r4, #40]	@ 0x28
 8003048:	0852      	lsrs	r2, r2, #1
 800304a:	f403 3140 	and.w	r1, r3, #196608	@ 0x30000
 800304e:	3a01      	subs	r2, #1
 8003050:	ebb1 4f02 	cmp.w	r1, r2, lsl #16
 8003054:	f47f ae8d 	bne.w	8002d72 <HAL_RCC_OscConfig+0x5a>
 8003058:	6ae2      	ldr	r2, [r4, #44]	@ 0x2c
 800305a:	f003 6370 	and.w	r3, r3, #251658240	@ 0xf000000
 800305e:	ebb3 6f02 	cmp.w	r3, r2, lsl #24
 8003062:	bf14      	ite	ne
 8003064:	2001      	movne	r0, #1
 8003066:	2000      	moveq	r0, #0
 8003068:	e69b      	b.n	8002da2 <HAL_RCC_OscConfig+0x8a>
 800306a:	bf00      	nop
 800306c:	40023800 	.word	0x40023800
 8003070:	42470000 	.word	0x42470000

08003074 <HAL_RCC_GetSysClockFreq>:
 8003074:	4913      	ldr	r1, [pc, #76]	@ (80030c4 <HAL_RCC_GetSysClockFreq+0x50>)
 8003076:	b508      	push	{r3, lr}
 8003078:	688b      	ldr	r3, [r1, #8]
 800307a:	f003 030c 	and.w	r3, r3, #12
 800307e:	2b04      	cmp	r3, #4
 8003080:	d01c      	beq.n	80030bc <HAL_RCC_GetSysClockFreq+0x48>
 8003082:	2b08      	cmp	r3, #8
 8003084:	d11c      	bne.n	80030c0 <HAL_RCC_GetSysClockFreq+0x4c>
 8003086:	684a      	ldr	r2, [r1, #4]
 8003088:	684b      	ldr	r3, [r1, #4]
 800308a:	6849      	ldr	r1, [r1, #4]
 800308c:	f413 0380 	ands.w	r3, r3, #4194304	@ 0x400000
 8003090:	bf14      	ite	ne
 8003092:	480d      	ldrne	r0, [pc, #52]	@ (80030c8 <HAL_RCC_GetSysClockFreq+0x54>)
 8003094:	480d      	ldreq	r0, [pc, #52]	@ (80030cc <HAL_RCC_GetSysClockFreq+0x58>)
 8003096:	f3c1 1188 	ubfx	r1, r1, #6, #9
 800309a:	bf18      	it	ne
 800309c:	2300      	movne	r3, #0
 800309e:	f002 023f 	and.w	r2, r2, #63	@ 0x3f
 80030a2:	fba1 0100 	umull	r0, r1, r1, r0
 80030a6:	f7fd f89b 	bl	80001e0 <__aeabi_uldivmod>
 80030aa:	4b06      	ldr	r3, [pc, #24]	@ (80030c4 <HAL_RCC_GetSysClockFreq+0x50>)
 80030ac:	685b      	ldr	r3, [r3, #4]
 80030ae:	f3c3 4301 	ubfx	r3, r3, #16, #2
 80030b2:	3301      	adds	r3, #1
 80030b4:	005b      	lsls	r3, r3, #1
 80030b6:	fbb0 f0f3 	udiv	r0, r0, r3
 80030ba:	bd08      	pop	{r3, pc}
 80030bc:	4802      	ldr	r0, [pc, #8]	@ (80030c8 <HAL_RCC_GetSysClockFreq+0x54>)
 80030be:	e7fc      	b.n	80030ba <HAL_RCC_GetSysClockFreq+0x46>
 80030c0:	4802      	ldr	r0, [pc, #8]	@ (80030cc <HAL_RCC_GetSysClockFreq+0x58>)
 80030c2:	e7fa      	b.n	80030ba <HAL_RCC_GetSysClockFreq+0x46>
 80030c4:	40023800 	.word	0x40023800
 80030c8:	017d7840 	.word	0x017d7840
 80030cc:	00f42400 	.word	0x00f42400

080030d0 <HAL_RCC_ClockConfig>:
 80030d0:	e92d 41f0 	stmdb	sp!, {r4, r5, r6, r7, r8, lr}
 80030d4:	460d      	mov	r5, r1
 80030d6:	4604      	mov	r4, r0
 80030d8:	b910      	cbnz	r0, 80030e0 <HAL_RCC_ClockConfig+0x10>
 80030da:	2001      	movs	r0, #1
 80030dc:	e8bd 81f0 	ldmia.w	sp!, {r4, r5, r6, r7, r8, pc}
 80030e0:	4b43      	ldr	r3, [pc, #268]	@ (80031f0 <HAL_RCC_ClockConfig+0x120>)
 80030e2:	681a      	ldr	r2, [r3, #0]
 80030e4:	f002 0207 	and.w	r2, r2, #7
 80030e8:	428a      	cmp	r2, r1
 80030ea:	d328      	bcc.n	800313e <HAL_RCC_ClockConfig+0x6e>
 80030ec:	6821      	ldr	r1, [r4, #0]
 80030ee:	078f      	lsls	r7, r1, #30
 80030f0:	d42d      	bmi.n	800314e <HAL_RCC_ClockConfig+0x7e>
 80030f2:	07c8      	lsls	r0, r1, #31
 80030f4:	d440      	bmi.n	8003178 <HAL_RCC_ClockConfig+0xa8>
 80030f6:	4b3e      	ldr	r3, [pc, #248]	@ (80031f0 <HAL_RCC_ClockConfig+0x120>)
 80030f8:	681a      	ldr	r2, [r3, #0]
 80030fa:	f002 0207 	and.w	r2, r2, #7
 80030fe:	42aa      	cmp	r2, r5
 8003100:	d865      	bhi.n	80031ce <HAL_RCC_ClockConfig+0xfe>
 8003102:	6822      	ldr	r2, [r4, #0]
 8003104:	0751      	lsls	r1, r2, #29
 8003106:	d46b      	bmi.n	80031e0 <HAL_RCC_ClockConfig+0x110>
 8003108:	0713      	lsls	r3, r2, #28
 800310a:	d507      	bpl.n	800311c <HAL_RCC_ClockConfig+0x4c>
 800310c:	4a39      	ldr	r2, [pc, #228]	@ (80031f4 <HAL_RCC_ClockConfig+0x124>)
 800310e:	6921      	ldr	r1, [r4, #16]
 8003110:	6893      	ldr	r3, [r2, #8]
 8003112:	f423 4360 	bic.w	r3, r3, #57344	@ 0xe000
 8003116:	ea43 03c1 	orr.w	r3, r3, r1, lsl #3
 800311a:	6093      	str	r3, [r2, #8]
 800311c:	f7ff ffaa 	bl	8003074 <HAL_RCC_GetSysClockFreq>
 8003120:	4b34      	ldr	r3, [pc, #208]	@ (80031f4 <HAL_RCC_ClockConfig+0x124>)
 8003122:	4a35      	ldr	r2, [pc, #212]	@ (80031f8 <HAL_RCC_ClockConfig+0x128>)
 8003124:	689b      	ldr	r3, [r3, #8]
 8003126:	f3c3 1303 	ubfx	r3, r3, #4, #4
 800312a:	5cd3      	ldrb	r3, [r2, r3]
 800312c:	40d8      	lsrs	r0, r3
 800312e:	4b33      	ldr	r3, [pc, #204]	@ (80031fc <HAL_RCC_ClockConfig+0x12c>)
 8003130:	6018      	str	r0, [r3, #0]
 8003132:	4b33      	ldr	r3, [pc, #204]	@ (8003200 <HAL_RCC_ClockConfig+0x130>)
 8003134:	6818      	ldr	r0, [r3, #0]
 8003136:	f7fe fb11 	bl	800175c <HAL_InitTick>
 800313a:	2000      	movs	r0, #0
 800313c:	e7ce      	b.n	80030dc <HAL_RCC_ClockConfig+0xc>
 800313e:	b2ca      	uxtb	r2, r1
 8003140:	701a      	strb	r2, [r3, #0]
 8003142:	681b      	ldr	r3, [r3, #0]
 8003144:	f003 0307 	and.w	r3, r3, #7
 8003148:	428b      	cmp	r3, r1
 800314a:	d1c6      	bne.n	80030da <HAL_RCC_ClockConfig+0xa>
 800314c:	e7ce      	b.n	80030ec <HAL_RCC_ClockConfig+0x1c>
 800314e:	4b29      	ldr	r3, [pc, #164]	@ (80031f4 <HAL_RCC_ClockConfig+0x124>)
 8003150:	f011 0f04 	tst.w	r1, #4
 8003154:	bf1e      	ittt	ne
 8003156:	689a      	ldrne	r2, [r3, #8]
 8003158:	f442 52e0 	orrne.w	r2, r2, #7168	@ 0x1c00
 800315c:	609a      	strne	r2, [r3, #8]
 800315e:	070e      	lsls	r6, r1, #28
 8003160:	bf42      	ittt	mi
 8003162:	689a      	ldrmi	r2, [r3, #8]
 8003164:	f442 4260 	orrmi.w	r2, r2, #57344	@ 0xe000
 8003168:	609a      	strmi	r2, [r3, #8]
 800316a:	689a      	ldr	r2, [r3, #8]
 800316c:	68a0      	ldr	r0, [r4, #8]
 800316e:	f022 02f0 	bic.w	r2, r2, #240	@ 0xf0
 8003172:	4302      	orrs	r2, r0
 8003174:	609a      	str	r2, [r3, #8]
 8003176:	e7bc      	b.n	80030f2 <HAL_RCC_ClockConfig+0x22>
 8003178:	6862      	ldr	r2, [r4, #4]
 800317a:	4b1e      	ldr	r3, [pc, #120]	@ (80031f4 <HAL_RCC_ClockConfig+0x124>)
 800317c:	2a01      	cmp	r2, #1
 800317e:	d11c      	bne.n	80031ba <HAL_RCC_ClockConfig+0xea>
 8003180:	681b      	ldr	r3, [r3, #0]
 8003182:	f413 3f00 	tst.w	r3, #131072	@ 0x20000
 8003186:	d0a8      	beq.n	80030da <HAL_RCC_ClockConfig+0xa>
 8003188:	4e1a      	ldr	r6, [pc, #104]	@ (80031f4 <HAL_RCC_ClockConfig+0x124>)
 800318a:	68b3      	ldr	r3, [r6, #8]
 800318c:	f023 0303 	bic.w	r3, r3, #3
 8003190:	4313      	orrs	r3, r2
 8003192:	60b3      	str	r3, [r6, #8]
 8003194:	f7fe ff7e 	bl	8002094 <HAL_GetTick>
 8003198:	f241 3888 	movw	r8, #5000	@ 0x1388
 800319c:	4607      	mov	r7, r0
 800319e:	68b3      	ldr	r3, [r6, #8]
 80031a0:	6862      	ldr	r2, [r4, #4]
 80031a2:	f003 030c 	and.w	r3, r3, #12
 80031a6:	ebb3 0f82 	cmp.w	r3, r2, lsl #2
 80031aa:	d0a4      	beq.n	80030f6 <HAL_RCC_ClockConfig+0x26>
 80031ac:	f7fe ff72 	bl	8002094 <HAL_GetTick>
 80031b0:	1bc0      	subs	r0, r0, r7
 80031b2:	4540      	cmp	r0, r8
 80031b4:	d9f3      	bls.n	800319e <HAL_RCC_ClockConfig+0xce>
 80031b6:	2003      	movs	r0, #3
 80031b8:	e790      	b.n	80030dc <HAL_RCC_ClockConfig+0xc>
 80031ba:	1e91      	subs	r1, r2, #2
 80031bc:	2901      	cmp	r1, #1
 80031be:	681b      	ldr	r3, [r3, #0]
 80031c0:	d802      	bhi.n	80031c8 <HAL_RCC_ClockConfig+0xf8>
 80031c2:	f013 7f00 	tst.w	r3, #33554432	@ 0x2000000
 80031c6:	e7de      	b.n	8003186 <HAL_RCC_ClockConfig+0xb6>
 80031c8:	f013 0f02 	tst.w	r3, #2
 80031cc:	e7db      	b.n	8003186 <HAL_RCC_ClockConfig+0xb6>
 80031ce:	b2ea      	uxtb	r2, r5
 80031d0:	701a      	strb	r2, [r3, #0]
 80031d2:	681b      	ldr	r3, [r3, #0]
 80031d4:	f003 0307 	and.w	r3, r3, #7
 80031d8:	42ab      	cmp	r3, r5
 80031da:	f47f af7e 	bne.w	80030da <HAL_RCC_ClockConfig+0xa>
 80031de:	e790      	b.n	8003102 <HAL_RCC_ClockConfig+0x32>
 80031e0:	4904      	ldr	r1, [pc, #16]	@ (80031f4 <HAL_RCC_ClockConfig+0x124>)
 80031e2:	68e0      	ldr	r0, [r4, #12]
 80031e4:	688b      	ldr	r3, [r1, #8]
 80031e6:	f423 53e0 	bic.w	r3, r3, #7168	@ 0x1c00
 80031ea:	4303      	orrs	r3, r0
 80031ec:	608b      	str	r3, [r1, #8]
 80031ee:	e78b      	b.n	8003108 <HAL_RCC_ClockConfig+0x38>
 80031f0:	40023c00 	.word	0x40023c00
 80031f4:	40023800 	.word	0x40023800
 80031f8:	080074c4 	.word	0x080074c4
 80031fc:	200002a8 	.word	0x200002a8
 8003200:	200002b0 	.word	0x200002b0

08003204 <HAL_RCC_GetPCLK1Freq>:
 8003204:	4b04      	ldr	r3, [pc, #16]	@ (8003218 <HAL_RCC_GetPCLK1Freq+0x14>)
 8003206:	4a05      	ldr	r2, [pc, #20]	@ (800321c <HAL_RCC_GetPCLK1Freq+0x18>)
 8003208:	689b      	ldr	r3, [r3, #8]
 800320a:	f3c3 2382 	ubfx	r3, r3, #10, #3
 800320e:	5cd3      	ldrb	r3, [r2, r3]
 8003210:	4a03      	ldr	r2, [pc, #12]	@ (8003220 <HAL_RCC_GetPCLK1Freq+0x1c>)
 8003212:	6810      	ldr	r0, [r2, #0]
 8003214:	40d8      	lsrs	r0, r3
 8003216:	4770      	bx	lr
 8003218:	40023800 	.word	0x40023800
 800321c:	080074bc 	.word	0x080074bc
 8003220:	200002a8 	.word	0x200002a8

08003224 <HAL_RCC_GetPCLK2Freq>:
 8003224:	4b04      	ldr	r3, [pc, #16]	@ (8003238 <HAL_RCC_GetPCLK2Freq+0x14>)
 8003226:	4a05      	ldr	r2, [pc, #20]	@ (800323c <HAL_RCC_GetPCLK2Freq+0x18>)
 8003228:	689b      	ldr	r3, [r3, #8]
 800322a:	f3c3 3342 	ubfx	r3, r3, #13, #3
 800322e:	5cd3      	ldrb	r3, [r2, r3]
 8003230:	4a03      	ldr	r2, [pc, #12]	@ (8003240 <HAL_RCC_GetPCLK2Freq+0x1c>)
 8003232:	6810      	ldr	r0, [r2, #0]
 8003234:	40d8      	lsrs	r0, r3
 8003236:	4770      	bx	lr
 8003238:	40023800 	.word	0x40023800
 800323c:	080074bc 	.word	0x080074bc
 8003240:	200002a8 	.word	0x200002a8

08003244 <HAL_RCC_GetClockConfig>:
 8003244:	230f      	movs	r3, #15
 8003246:	6003      	str	r3, [r0, #0]
 8003248:	4b0b      	ldr	r3, [pc, #44]	@ (8003278 <HAL_RCC_GetClockConfig+0x34>)
 800324a:	689a      	ldr	r2, [r3, #8]
 800324c:	f002 0203 	and.w	r2, r2, #3
 8003250:	6042      	str	r2, [r0, #4]
 8003252:	689a      	ldr	r2, [r3, #8]
 8003254:	f002 02f0 	and.w	r2, r2, #240	@ 0xf0
 8003258:	6082      	str	r2, [r0, #8]
 800325a:	689a      	ldr	r2, [r3, #8]
 800325c:	f402 52e0 	and.w	r2, r2, #7168	@ 0x1c00
 8003260:	60c2      	str	r2, [r0, #12]
 8003262:	689b      	ldr	r3, [r3, #8]
 8003264:	08db      	lsrs	r3, r3, #3
 8003266:	f403 53e0 	and.w	r3, r3, #7168	@ 0x1c00
 800326a:	6103      	str	r3, [r0, #16]
 800326c:	4b03      	ldr	r3, [pc, #12]	@ (800327c <HAL_RCC_GetClockConfig+0x38>)
 800326e:	681b      	ldr	r3, [r3, #0]
 8003270:	f003 0307 	and.w	r3, r3, #7
 8003274:	600b      	str	r3, [r1, #0]
 8003276:	4770      	bx	lr
 8003278:	40023800 	.word	0x40023800
 800327c:	40023c00 	.word	0x40023c00

08003280 <SPI_WaitFlagStateUntilTimeout>:
 8003280:	e92d 47f3 	stmdb	sp!, {r0, r1, r4, r5, r6, r7, r8, r9, sl, lr}
 8003284:	461f      	mov	r7, r3
 8003286:	4689      	mov	r9, r1
 8003288:	4690      	mov	r8, r2
 800328a:	4604      	mov	r4, r0
 800328c:	f7fe ff02 	bl	8002094 <HAL_GetTick>
 8003290:	9d0a      	ldr	r5, [sp, #40]	@ 0x28
 8003292:	443d      	add	r5, r7
 8003294:	1a2d      	subs	r5, r5, r0
 8003296:	f7fe fefd 	bl	8002094 <HAL_GetTick>
 800329a:	4b26      	ldr	r3, [pc, #152]	@ (8003334 <SPI_WaitFlagStateUntilTimeout+0xb4>)
 800329c:	681e      	ldr	r6, [r3, #0]
 800329e:	f3c6 36cb 	ubfx	r6, r6, #15, #12
 80032a2:	436e      	muls	r6, r5
 80032a4:	4682      	mov	sl, r0
 80032a6:	9601      	str	r6, [sp, #4]
 80032a8:	6822      	ldr	r2, [r4, #0]
 80032aa:	6893      	ldr	r3, [r2, #8]
 80032ac:	ea39 0303 	bics.w	r3, r9, r3
 80032b0:	bf0c      	ite	eq
 80032b2:	2301      	moveq	r3, #1
 80032b4:	2300      	movne	r3, #0
 80032b6:	4543      	cmp	r3, r8
 80032b8:	d101      	bne.n	80032be <SPI_WaitFlagStateUntilTimeout+0x3e>
 80032ba:	2000      	movs	r0, #0
 80032bc:	e02e      	b.n	800331c <SPI_WaitFlagStateUntilTimeout+0x9c>
 80032be:	1c7b      	adds	r3, r7, #1
 80032c0:	d0f3      	beq.n	80032aa <SPI_WaitFlagStateUntilTimeout+0x2a>
 80032c2:	f7fe fee7 	bl	8002094 <HAL_GetTick>
 80032c6:	eba0 000a 	sub.w	r0, r0, sl
 80032ca:	42a8      	cmp	r0, r5
 80032cc:	d329      	bcc.n	8003322 <SPI_WaitFlagStateUntilTimeout+0xa2>
 80032ce:	6823      	ldr	r3, [r4, #0]
 80032d0:	685a      	ldr	r2, [r3, #4]
 80032d2:	f022 02e0 	bic.w	r2, r2, #224	@ 0xe0
 80032d6:	605a      	str	r2, [r3, #4]
 80032d8:	6862      	ldr	r2, [r4, #4]
 80032da:	f5b2 7f82 	cmp.w	r2, #260	@ 0x104
 80032de:	d10a      	bne.n	80032f6 <SPI_WaitFlagStateUntilTimeout+0x76>
 80032e0:	68a2      	ldr	r2, [r4, #8]
 80032e2:	f5b2 4f00 	cmp.w	r2, #32768	@ 0x8000
 80032e6:	d002      	beq.n	80032ee <SPI_WaitFlagStateUntilTimeout+0x6e>
 80032e8:	f5b2 6f80 	cmp.w	r2, #1024	@ 0x400
 80032ec:	d103      	bne.n	80032f6 <SPI_WaitFlagStateUntilTimeout+0x76>
 80032ee:	681a      	ldr	r2, [r3, #0]
 80032f0:	f022 0240 	bic.w	r2, r2, #64	@ 0x40
 80032f4:	601a      	str	r2, [r3, #0]
 80032f6:	6aa2      	ldr	r2, [r4, #40]	@ 0x28
 80032f8:	f5b2 5f00 	cmp.w	r2, #8192	@ 0x2000
 80032fc:	d107      	bne.n	800330e <SPI_WaitFlagStateUntilTimeout+0x8e>
 80032fe:	681a      	ldr	r2, [r3, #0]
 8003300:	f422 5200 	bic.w	r2, r2, #8192	@ 0x2000
 8003304:	601a      	str	r2, [r3, #0]
 8003306:	681a      	ldr	r2, [r3, #0]
 8003308:	f442 5200 	orr.w	r2, r2, #8192	@ 0x2000
 800330c:	601a      	str	r2, [r3, #0]
 800330e:	2301      	movs	r3, #1
 8003310:	f884 3051 	strb.w	r3, [r4, #81]	@ 0x51
 8003314:	2300      	movs	r3, #0
 8003316:	f884 3050 	strb.w	r3, [r4, #80]	@ 0x50
 800331a:	2003      	movs	r0, #3
 800331c:	b002      	add	sp, #8
 800331e:	e8bd 87f0 	ldmia.w	sp!, {r4, r5, r6, r7, r8, r9, sl, pc}
 8003322:	9a01      	ldr	r2, [sp, #4]
 8003324:	9b01      	ldr	r3, [sp, #4]
 8003326:	2a00      	cmp	r2, #0
 8003328:	f103 33ff 	add.w	r3, r3, #4294967295
 800332c:	9301      	str	r3, [sp, #4]
 800332e:	bf08      	it	eq
 8003330:	4615      	moveq	r5, r2
 8003332:	e7b9      	b.n	80032a8 <SPI_WaitFlagStateUntilTimeout+0x28>
 8003334:	200002a8 	.word	0x200002a8

08003338 <SPI_EndRxTxTransaction>:
 8003338:	b5f0      	push	{r4, r5, r6, r7, lr}
 800333a:	b085      	sub	sp, #20
 800333c:	460b      	mov	r3, r1
 800333e:	9200      	str	r2, [sp, #0]
 8003340:	460e      	mov	r6, r1
 8003342:	4617      	mov	r7, r2
 8003344:	2102      	movs	r1, #2
 8003346:	2201      	movs	r2, #1
 8003348:	4604      	mov	r4, r0
 800334a:	f7ff ff99 	bl	8003280 <SPI_WaitFlagStateUntilTimeout>
 800334e:	4605      	mov	r5, r0
 8003350:	b128      	cbz	r0, 800335e <SPI_EndRxTxTransaction+0x26>
 8003352:	6d63      	ldr	r3, [r4, #84]	@ 0x54
 8003354:	f043 0320 	orr.w	r3, r3, #32
 8003358:	6563      	str	r3, [r4, #84]	@ 0x54
 800335a:	2503      	movs	r5, #3
 800335c:	e015      	b.n	800338a <SPI_EndRxTxTransaction+0x52>
 800335e:	4b12      	ldr	r3, [pc, #72]	@ (80033a8 <SPI_EndRxTxTransaction+0x70>)
 8003360:	6818      	ldr	r0, [r3, #0]
 8003362:	4b12      	ldr	r3, [pc, #72]	@ (80033ac <SPI_EndRxTxTransaction+0x74>)
 8003364:	fbb0 f0f3 	udiv	r0, r0, r3
 8003368:	f44f 737a 	mov.w	r3, #1000	@ 0x3e8
 800336c:	4358      	muls	r0, r3
 800336e:	6863      	ldr	r3, [r4, #4]
 8003370:	9003      	str	r0, [sp, #12]
 8003372:	f5b3 7f82 	cmp.w	r3, #260	@ 0x104
 8003376:	d10b      	bne.n	8003390 <SPI_EndRxTxTransaction+0x58>
 8003378:	9700      	str	r7, [sp, #0]
 800337a:	4633      	mov	r3, r6
 800337c:	462a      	mov	r2, r5
 800337e:	2180      	movs	r1, #128	@ 0x80
 8003380:	4620      	mov	r0, r4
 8003382:	f7ff ff7d 	bl	8003280 <SPI_WaitFlagStateUntilTimeout>
 8003386:	2800      	cmp	r0, #0
 8003388:	d1e3      	bne.n	8003352 <SPI_EndRxTxTransaction+0x1a>
 800338a:	4628      	mov	r0, r5
 800338c:	b005      	add	sp, #20
 800338e:	bdf0      	pop	{r4, r5, r6, r7, pc}
 8003390:	9b03      	ldr	r3, [sp, #12]
 8003392:	2b00      	cmp	r3, #0
 8003394:	d0f9      	beq.n	800338a <SPI_EndRxTxTransaction+0x52>
 8003396:	9b03      	ldr	r3, [sp, #12]
 8003398:	3b01      	subs	r3, #1
 800339a:	9303      	str	r3, [sp, #12]
 800339c:	6823      	ldr	r3, [r4, #0]
 800339e:	689b      	ldr	r3, [r3, #8]
 80033a0:	061b      	lsls	r3, r3, #24
 80033a2:	d4f5      	bmi.n	8003390 <SPI_EndRxTxTransaction+0x58>
 80033a4:	e7f1      	b.n	800338a <SPI_EndRxTxTransaction+0x52>
 80033a6:	bf00      	nop
 80033a8:	200002a8 	.word	0x200002a8
 80033ac:	016e3600 	.word	0x016e3600

080033b0 <SPI_EndRxTransaction>:
 80033b0:	b537      	push	{r0, r1, r2, r4, r5, lr}
 80033b2:	460b      	mov	r3, r1
 80033b4:	6841      	ldr	r1, [r0, #4]
 80033b6:	f5b1 7f82 	cmp.w	r1, #260	@ 0x104
 80033ba:	4604      	mov	r4, r0
 80033bc:	d008      	beq.n	80033d0 <SPI_EndRxTransaction+0x20>
 80033be:	9200      	str	r2, [sp, #0]
 80033c0:	2101      	movs	r1, #1
 80033c2:	2200      	movs	r2, #0
 80033c4:	f7ff ff5c 	bl	8003280 <SPI_WaitFlagStateUntilTimeout>
 80033c8:	b9d0      	cbnz	r0, 8003400 <SPI_EndRxTransaction+0x50>
 80033ca:	2000      	movs	r0, #0
 80033cc:	b003      	add	sp, #12
 80033ce:	bd30      	pop	{r4, r5, pc}
 80033d0:	6881      	ldr	r1, [r0, #8]
 80033d2:	f5b1 4f00 	cmp.w	r1, #32768	@ 0x8000
 80033d6:	d002      	beq.n	80033de <SPI_EndRxTransaction+0x2e>
 80033d8:	f5b1 6f80 	cmp.w	r1, #1024	@ 0x400
 80033dc:	d107      	bne.n	80033ee <SPI_EndRxTransaction+0x3e>
 80033de:	6825      	ldr	r5, [r4, #0]
 80033e0:	6828      	ldr	r0, [r5, #0]
 80033e2:	f5b1 6f80 	cmp.w	r1, #1024	@ 0x400
 80033e6:	f020 0040 	bic.w	r0, r0, #64	@ 0x40
 80033ea:	6028      	str	r0, [r5, #0]
 80033ec:	d004      	beq.n	80033f8 <SPI_EndRxTransaction+0x48>
 80033ee:	9200      	str	r2, [sp, #0]
 80033f0:	2180      	movs	r1, #128	@ 0x80
 80033f2:	2200      	movs	r2, #0
 80033f4:	4620      	mov	r0, r4
 80033f6:	e7e5      	b.n	80033c4 <SPI_EndRxTransaction+0x14>
 80033f8:	9200      	str	r2, [sp, #0]
 80033fa:	2101      	movs	r1, #1
 80033fc:	2200      	movs	r2, #0
 80033fe:	e7f9      	b.n	80033f4 <SPI_EndRxTransaction+0x44>
 8003400:	6d63      	ldr	r3, [r4, #84]	@ 0x54
 8003402:	f043 0320 	orr.w	r3, r3, #32
 8003406:	6563      	str	r3, [r4, #84]	@ 0x54
 8003408:	2003      	movs	r0, #3
 800340a:	e7df      	b.n	80033cc <SPI_EndRxTransaction+0x1c>

0800340c <HAL_SPI_Init>:
 800340c:	b510      	push	{r4, lr}
 800340e:	4604      	mov	r4, r0
 8003410:	2800      	cmp	r0, #0
 8003412:	d055      	beq.n	80034c0 <HAL_SPI_Init+0xb4>
 8003414:	6a43      	ldr	r3, [r0, #36]	@ 0x24
 8003416:	2b00      	cmp	r3, #0
 8003418:	d14e      	bne.n	80034b8 <HAL_SPI_Init+0xac>
 800341a:	6842      	ldr	r2, [r0, #4]
 800341c:	f5b2 7f82 	cmp.w	r2, #260	@ 0x104
 8003420:	d000      	beq.n	8003424 <HAL_SPI_Init+0x18>
 8003422:	61c3      	str	r3, [r0, #28]
 8003424:	2300      	movs	r3, #0
 8003426:	62a3      	str	r3, [r4, #40]	@ 0x28
 8003428:	f894 3051 	ldrb.w	r3, [r4, #81]	@ 0x51
 800342c:	f003 02ff 	and.w	r2, r3, #255	@ 0xff
 8003430:	b923      	cbnz	r3, 800343c <HAL_SPI_Init+0x30>
 8003432:	f884 2050 	strb.w	r2, [r4, #80]	@ 0x50
 8003436:	4620      	mov	r0, r4
 8003438:	f7fe f8c4 	bl	80015c4 <HAL_SPI_MspInit>
 800343c:	6821      	ldr	r1, [r4, #0]
 800343e:	68a0      	ldr	r0, [r4, #8]
 8003440:	69a2      	ldr	r2, [r4, #24]
 8003442:	2302      	movs	r3, #2
 8003444:	f884 3051 	strb.w	r3, [r4, #81]	@ 0x51
 8003448:	680b      	ldr	r3, [r1, #0]
 800344a:	f023 0340 	bic.w	r3, r3, #64	@ 0x40
 800344e:	600b      	str	r3, [r1, #0]
 8003450:	6863      	ldr	r3, [r4, #4]
 8003452:	f400 4004 	and.w	r0, r0, #33792	@ 0x8400
 8003456:	f403 7382 	and.w	r3, r3, #260	@ 0x104
 800345a:	4303      	orrs	r3, r0
 800345c:	68e0      	ldr	r0, [r4, #12]
 800345e:	f400 6000 	and.w	r0, r0, #2048	@ 0x800
 8003462:	4303      	orrs	r3, r0
 8003464:	6920      	ldr	r0, [r4, #16]
 8003466:	f000 0002 	and.w	r0, r0, #2
 800346a:	4303      	orrs	r3, r0
 800346c:	6960      	ldr	r0, [r4, #20]
 800346e:	f000 0001 	and.w	r0, r0, #1
 8003472:	4303      	orrs	r3, r0
 8003474:	f402 7000 	and.w	r0, r2, #512	@ 0x200
 8003478:	4303      	orrs	r3, r0
 800347a:	69e0      	ldr	r0, [r4, #28]
 800347c:	f000 0038 	and.w	r0, r0, #56	@ 0x38
 8003480:	4303      	orrs	r3, r0
 8003482:	6a20      	ldr	r0, [r4, #32]
 8003484:	f000 0080 	and.w	r0, r0, #128	@ 0x80
 8003488:	4303      	orrs	r3, r0
 800348a:	6aa0      	ldr	r0, [r4, #40]	@ 0x28
 800348c:	f400 5000 	and.w	r0, r0, #8192	@ 0x2000
 8003490:	4303      	orrs	r3, r0
 8003492:	600b      	str	r3, [r1, #0]
 8003494:	6a63      	ldr	r3, [r4, #36]	@ 0x24
 8003496:	0c12      	lsrs	r2, r2, #16
 8003498:	f003 0310 	and.w	r3, r3, #16
 800349c:	f002 0204 	and.w	r2, r2, #4
 80034a0:	431a      	orrs	r2, r3
 80034a2:	604a      	str	r2, [r1, #4]
 80034a4:	69cb      	ldr	r3, [r1, #28]
 80034a6:	f423 6300 	bic.w	r3, r3, #2048	@ 0x800
 80034aa:	61cb      	str	r3, [r1, #28]
 80034ac:	2000      	movs	r0, #0
 80034ae:	2301      	movs	r3, #1
 80034b0:	6560      	str	r0, [r4, #84]	@ 0x54
 80034b2:	f884 3051 	strb.w	r3, [r4, #81]	@ 0x51
 80034b6:	bd10      	pop	{r4, pc}
 80034b8:	2300      	movs	r3, #0
 80034ba:	e9c0 3304 	strd	r3, r3, [r0, #16]
 80034be:	e7b1      	b.n	8003424 <HAL_SPI_Init+0x18>
 80034c0:	2001      	movs	r0, #1
 80034c2:	e7f8      	b.n	80034b6 <HAL_SPI_Init+0xaa>

080034c4 <HAL_SPI_Transmit>:
 80034c4:	e92d 47f3 	stmdb	sp!, {r0, r1, r4, r5, r6, r7, r8, r9, sl, lr}
 80034c8:	461f      	mov	r7, r3
 80034ca:	f890 3050 	ldrb.w	r3, [r0, #80]	@ 0x50
 80034ce:	2b01      	cmp	r3, #1
 80034d0:	4604      	mov	r4, r0
 80034d2:	460d      	mov	r5, r1
 80034d4:	4690      	mov	r8, r2
 80034d6:	f000 80a6 	beq.w	8003626 <HAL_SPI_Transmit+0x162>
 80034da:	2301      	movs	r3, #1
 80034dc:	f880 3050 	strb.w	r3, [r0, #80]	@ 0x50
 80034e0:	f7fe fdd8 	bl	8002094 <HAL_GetTick>
 80034e4:	f894 3051 	ldrb.w	r3, [r4, #81]	@ 0x51
 80034e8:	2b01      	cmp	r3, #1
 80034ea:	4682      	mov	sl, r0
 80034ec:	fa5f f983 	uxtb.w	r9, r3
 80034f0:	f040 8096 	bne.w	8003620 <HAL_SPI_Transmit+0x15c>
 80034f4:	2d00      	cmp	r5, #0
 80034f6:	d067      	beq.n	80035c8 <HAL_SPI_Transmit+0x104>
 80034f8:	f1b8 0f00 	cmp.w	r8, #0
 80034fc:	d064      	beq.n	80035c8 <HAL_SPI_Transmit+0x104>
 80034fe:	2303      	movs	r3, #3
 8003500:	f884 3051 	strb.w	r3, [r4, #81]	@ 0x51
 8003504:	2300      	movs	r3, #0
 8003506:	6563      	str	r3, [r4, #84]	@ 0x54
 8003508:	e9c4 3310 	strd	r3, r3, [r4, #64]	@ 0x40
 800350c:	f8a4 8036 	strh.w	r8, [r4, #54]	@ 0x36
 8003510:	63a3      	str	r3, [r4, #56]	@ 0x38
 8003512:	87a3      	strh	r3, [r4, #60]	@ 0x3c
 8003514:	87e3      	strh	r3, [r4, #62]	@ 0x3e
 8003516:	68a3      	ldr	r3, [r4, #8]
 8003518:	6826      	ldr	r6, [r4, #0]
 800351a:	6325      	str	r5, [r4, #48]	@ 0x30
 800351c:	f5b3 4f00 	cmp.w	r3, #32768	@ 0x8000
 8003520:	f8a4 8034 	strh.w	r8, [r4, #52]	@ 0x34
 8003524:	d107      	bne.n	8003536 <HAL_SPI_Transmit+0x72>
 8003526:	6833      	ldr	r3, [r6, #0]
 8003528:	f023 0340 	bic.w	r3, r3, #64	@ 0x40
 800352c:	6033      	str	r3, [r6, #0]
 800352e:	6833      	ldr	r3, [r6, #0]
 8003530:	f443 4380 	orr.w	r3, r3, #16384	@ 0x4000
 8003534:	6033      	str	r3, [r6, #0]
 8003536:	6833      	ldr	r3, [r6, #0]
 8003538:	6862      	ldr	r2, [r4, #4]
 800353a:	065b      	lsls	r3, r3, #25
 800353c:	bf5e      	ittt	pl
 800353e:	6833      	ldrpl	r3, [r6, #0]
 8003540:	f043 0340 	orrpl.w	r3, r3, #64	@ 0x40
 8003544:	6033      	strpl	r3, [r6, #0]
 8003546:	68e3      	ldr	r3, [r4, #12]
 8003548:	f5b3 6f00 	cmp.w	r3, #2048	@ 0x800
 800354c:	d143      	bne.n	80035d6 <HAL_SPI_Transmit+0x112>
 800354e:	b112      	cbz	r2, 8003556 <HAL_SPI_Transmit+0x92>
 8003550:	f1b8 0f01 	cmp.w	r8, #1
 8003554:	d107      	bne.n	8003566 <HAL_SPI_Transmit+0xa2>
 8003556:	f835 3b02 	ldrh.w	r3, [r5], #2
 800355a:	60f3      	str	r3, [r6, #12]
 800355c:	6325      	str	r5, [r4, #48]	@ 0x30
 800355e:	8ee3      	ldrh	r3, [r4, #54]	@ 0x36
 8003560:	3b01      	subs	r3, #1
 8003562:	b29b      	uxth	r3, r3
 8003564:	86e3      	strh	r3, [r4, #54]	@ 0x36
 8003566:	8ee3      	ldrh	r3, [r4, #54]	@ 0x36
 8003568:	b29b      	uxth	r3, r3
 800356a:	b9b3      	cbnz	r3, 800359a <HAL_SPI_Transmit+0xd6>
 800356c:	4652      	mov	r2, sl
 800356e:	4639      	mov	r1, r7
 8003570:	4620      	mov	r0, r4
 8003572:	f7ff fee1 	bl	8003338 <SPI_EndRxTxTransaction>
 8003576:	2800      	cmp	r0, #0
 8003578:	d14f      	bne.n	800361a <HAL_SPI_Transmit+0x156>
 800357a:	68a3      	ldr	r3, [r4, #8]
 800357c:	b933      	cbnz	r3, 800358c <HAL_SPI_Transmit+0xc8>
 800357e:	9301      	str	r3, [sp, #4]
 8003580:	6823      	ldr	r3, [r4, #0]
 8003582:	68da      	ldr	r2, [r3, #12]
 8003584:	9201      	str	r2, [sp, #4]
 8003586:	689b      	ldr	r3, [r3, #8]
 8003588:	9301      	str	r3, [sp, #4]
 800358a:	9b01      	ldr	r3, [sp, #4]
 800358c:	6d63      	ldr	r3, [r4, #84]	@ 0x54
 800358e:	b9db      	cbnz	r3, 80035c8 <HAL_SPI_Transmit+0x104>
 8003590:	2201      	movs	r2, #1
 8003592:	f884 2051 	strb.w	r2, [r4, #81]	@ 0x51
 8003596:	4699      	mov	r9, r3
 8003598:	e016      	b.n	80035c8 <HAL_SPI_Transmit+0x104>
 800359a:	6822      	ldr	r2, [r4, #0]
 800359c:	6893      	ldr	r3, [r2, #8]
 800359e:	0798      	lsls	r0, r3, #30
 80035a0:	d505      	bpl.n	80035ae <HAL_SPI_Transmit+0xea>
 80035a2:	6b23      	ldr	r3, [r4, #48]	@ 0x30
 80035a4:	f833 1b02 	ldrh.w	r1, [r3], #2
 80035a8:	60d1      	str	r1, [r2, #12]
 80035aa:	6323      	str	r3, [r4, #48]	@ 0x30
 80035ac:	e7d7      	b.n	800355e <HAL_SPI_Transmit+0x9a>
 80035ae:	f7fe fd71 	bl	8002094 <HAL_GetTick>
 80035b2:	eba0 000a 	sub.w	r0, r0, sl
 80035b6:	42b8      	cmp	r0, r7
 80035b8:	d3d5      	bcc.n	8003566 <HAL_SPI_Transmit+0xa2>
 80035ba:	1c79      	adds	r1, r7, #1
 80035bc:	d0d3      	beq.n	8003566 <HAL_SPI_Transmit+0xa2>
 80035be:	2301      	movs	r3, #1
 80035c0:	f884 3051 	strb.w	r3, [r4, #81]	@ 0x51
 80035c4:	f04f 0903 	mov.w	r9, #3
 80035c8:	2300      	movs	r3, #0
 80035ca:	f884 3050 	strb.w	r3, [r4, #80]	@ 0x50
 80035ce:	4648      	mov	r0, r9
 80035d0:	b002      	add	sp, #8
 80035d2:	e8bd 87f0 	ldmia.w	sp!, {r4, r5, r6, r7, r8, r9, sl, pc}
 80035d6:	b112      	cbz	r2, 80035de <HAL_SPI_Transmit+0x11a>
 80035d8:	f1b8 0f01 	cmp.w	r8, #1
 80035dc:	d108      	bne.n	80035f0 <HAL_SPI_Transmit+0x12c>
 80035de:	782b      	ldrb	r3, [r5, #0]
 80035e0:	7333      	strb	r3, [r6, #12]
 80035e2:	6b23      	ldr	r3, [r4, #48]	@ 0x30
 80035e4:	3301      	adds	r3, #1
 80035e6:	6323      	str	r3, [r4, #48]	@ 0x30
 80035e8:	8ee3      	ldrh	r3, [r4, #54]	@ 0x36
 80035ea:	3b01      	subs	r3, #1
 80035ec:	b29b      	uxth	r3, r3
 80035ee:	86e3      	strh	r3, [r4, #54]	@ 0x36
 80035f0:	8ee3      	ldrh	r3, [r4, #54]	@ 0x36
 80035f2:	b29b      	uxth	r3, r3
 80035f4:	2b00      	cmp	r3, #0
 80035f6:	d0b9      	beq.n	800356c <HAL_SPI_Transmit+0xa8>
 80035f8:	6823      	ldr	r3, [r4, #0]
 80035fa:	689a      	ldr	r2, [r3, #8]
 80035fc:	0792      	lsls	r2, r2, #30
 80035fe:	d503      	bpl.n	8003608 <HAL_SPI_Transmit+0x144>
 8003600:	6b22      	ldr	r2, [r4, #48]	@ 0x30
 8003602:	7812      	ldrb	r2, [r2, #0]
 8003604:	731a      	strb	r2, [r3, #12]
 8003606:	e7ec      	b.n	80035e2 <HAL_SPI_Transmit+0x11e>
 8003608:	f7fe fd44 	bl	8002094 <HAL_GetTick>
 800360c:	eba0 000a 	sub.w	r0, r0, sl
 8003610:	42b8      	cmp	r0, r7
 8003612:	d3ed      	bcc.n	80035f0 <HAL_SPI_Transmit+0x12c>
 8003614:	1c7b      	adds	r3, r7, #1
 8003616:	d0eb      	beq.n	80035f0 <HAL_SPI_Transmit+0x12c>
 8003618:	e7d1      	b.n	80035be <HAL_SPI_Transmit+0xfa>
 800361a:	2320      	movs	r3, #32
 800361c:	6563      	str	r3, [r4, #84]	@ 0x54
 800361e:	e7ac      	b.n	800357a <HAL_SPI_Transmit+0xb6>
 8003620:	f04f 0902 	mov.w	r9, #2
 8003624:	e7d0      	b.n	80035c8 <HAL_SPI_Transmit+0x104>
 8003626:	f04f 0902 	mov.w	r9, #2
 800362a:	e7d0      	b.n	80035ce <HAL_SPI_Transmit+0x10a>

0800362c <HAL_SPI_TransmitReceive>:
 800362c:	e92d 43f7 	stmdb	sp!, {r0, r1, r2, r4, r5, r6, r7, r8, r9, lr}
 8003630:	461e      	mov	r6, r3
 8003632:	f890 3050 	ldrb.w	r3, [r0, #80]	@ 0x50
 8003636:	f8dd 8028 	ldr.w	r8, [sp, #40]	@ 0x28
 800363a:	2b01      	cmp	r3, #1
 800363c:	4604      	mov	r4, r0
 800363e:	460d      	mov	r5, r1
 8003640:	4691      	mov	r9, r2
 8003642:	f000 80e8 	beq.w	8003816 <HAL_SPI_TransmitReceive+0x1ea>
 8003646:	2301      	movs	r3, #1
 8003648:	f880 3050 	strb.w	r3, [r0, #80]	@ 0x50
 800364c:	f7fe fd22 	bl	8002094 <HAL_GetTick>
 8003650:	f894 3051 	ldrb.w	r3, [r4, #81]	@ 0x51
 8003654:	6862      	ldr	r2, [r4, #4]
 8003656:	2b01      	cmp	r3, #1
 8003658:	4607      	mov	r7, r0
 800365a:	b2d9      	uxtb	r1, r3
 800365c:	d00a      	beq.n	8003674 <HAL_SPI_TransmitReceive+0x48>
 800365e:	f5b2 7f82 	cmp.w	r2, #260	@ 0x104
 8003662:	f040 80d6 	bne.w	8003812 <HAL_SPI_TransmitReceive+0x1e6>
 8003666:	68a3      	ldr	r3, [r4, #8]
 8003668:	2b00      	cmp	r3, #0
 800366a:	f040 80d2 	bne.w	8003812 <HAL_SPI_TransmitReceive+0x1e6>
 800366e:	2904      	cmp	r1, #4
 8003670:	f040 80cf 	bne.w	8003812 <HAL_SPI_TransmitReceive+0x1e6>
 8003674:	2d00      	cmp	r5, #0
 8003676:	d03f      	beq.n	80036f8 <HAL_SPI_TransmitReceive+0xcc>
 8003678:	f1b9 0f00 	cmp.w	r9, #0
 800367c:	d03c      	beq.n	80036f8 <HAL_SPI_TransmitReceive+0xcc>
 800367e:	2e00      	cmp	r6, #0
 8003680:	d03a      	beq.n	80036f8 <HAL_SPI_TransmitReceive+0xcc>
 8003682:	f894 3051 	ldrb.w	r3, [r4, #81]	@ 0x51
 8003686:	f8c4 9038 	str.w	r9, [r4, #56]	@ 0x38
 800368a:	2b04      	cmp	r3, #4
 800368c:	bf1c      	itt	ne
 800368e:	2305      	movne	r3, #5
 8003690:	f884 3051 	strbne.w	r3, [r4, #81]	@ 0x51
 8003694:	2300      	movs	r3, #0
 8003696:	6563      	str	r3, [r4, #84]	@ 0x54
 8003698:	e9c4 3310 	strd	r3, r3, [r4, #64]	@ 0x40
 800369c:	6823      	ldr	r3, [r4, #0]
 800369e:	87e6      	strh	r6, [r4, #62]	@ 0x3e
 80036a0:	86e6      	strh	r6, [r4, #54]	@ 0x36
 80036a2:	6819      	ldr	r1, [r3, #0]
 80036a4:	87a6      	strh	r6, [r4, #60]	@ 0x3c
 80036a6:	0649      	lsls	r1, r1, #25
 80036a8:	bf58      	it	pl
 80036aa:	6819      	ldrpl	r1, [r3, #0]
 80036ac:	6325      	str	r5, [r4, #48]	@ 0x30
 80036ae:	bf58      	it	pl
 80036b0:	f041 0140 	orrpl.w	r1, r1, #64	@ 0x40
 80036b4:	86a6      	strh	r6, [r4, #52]	@ 0x34
 80036b6:	bf58      	it	pl
 80036b8:	6019      	strpl	r1, [r3, #0]
 80036ba:	68e1      	ldr	r1, [r4, #12]
 80036bc:	f5b1 6f00 	cmp.w	r1, #2048	@ 0x800
 80036c0:	d151      	bne.n	8003766 <HAL_SPI_TransmitReceive+0x13a>
 80036c2:	b10a      	cbz	r2, 80036c8 <HAL_SPI_TransmitReceive+0x9c>
 80036c4:	2e01      	cmp	r6, #1
 80036c6:	d107      	bne.n	80036d8 <HAL_SPI_TransmitReceive+0xac>
 80036c8:	f835 2b02 	ldrh.w	r2, [r5], #2
 80036cc:	60da      	str	r2, [r3, #12]
 80036ce:	8ee3      	ldrh	r3, [r4, #54]	@ 0x36
 80036d0:	6325      	str	r5, [r4, #48]	@ 0x30
 80036d2:	3b01      	subs	r3, #1
 80036d4:	b29b      	uxth	r3, r3
 80036d6:	86e3      	strh	r3, [r4, #54]	@ 0x36
 80036d8:	2501      	movs	r5, #1
 80036da:	8ee3      	ldrh	r3, [r4, #54]	@ 0x36
 80036dc:	b29b      	uxth	r3, r3
 80036de:	b96b      	cbnz	r3, 80036fc <HAL_SPI_TransmitReceive+0xd0>
 80036e0:	8fe3      	ldrh	r3, [r4, #62]	@ 0x3e
 80036e2:	b29b      	uxth	r3, r3
 80036e4:	b953      	cbnz	r3, 80036fc <HAL_SPI_TransmitReceive+0xd0>
 80036e6:	463a      	mov	r2, r7
 80036e8:	4641      	mov	r1, r8
 80036ea:	4620      	mov	r0, r4
 80036ec:	f7ff fe24 	bl	8003338 <SPI_EndRxTxTransaction>
 80036f0:	2800      	cmp	r0, #0
 80036f2:	d07d      	beq.n	80037f0 <HAL_SPI_TransmitReceive+0x1c4>
 80036f4:	2320      	movs	r3, #32
 80036f6:	6563      	str	r3, [r4, #84]	@ 0x54
 80036f8:	2001      	movs	r0, #1
 80036fa:	e02e      	b.n	800375a <HAL_SPI_TransmitReceive+0x12e>
 80036fc:	6821      	ldr	r1, [r4, #0]
 80036fe:	688b      	ldr	r3, [r1, #8]
 8003700:	079a      	lsls	r2, r3, #30
 8003702:	d50d      	bpl.n	8003720 <HAL_SPI_TransmitReceive+0xf4>
 8003704:	8ee3      	ldrh	r3, [r4, #54]	@ 0x36
 8003706:	b29b      	uxth	r3, r3
 8003708:	b153      	cbz	r3, 8003720 <HAL_SPI_TransmitReceive+0xf4>
 800370a:	b145      	cbz	r5, 800371e <HAL_SPI_TransmitReceive+0xf2>
 800370c:	6b23      	ldr	r3, [r4, #48]	@ 0x30
 800370e:	f833 2b02 	ldrh.w	r2, [r3], #2
 8003712:	60ca      	str	r2, [r1, #12]
 8003714:	6323      	str	r3, [r4, #48]	@ 0x30
 8003716:	8ee3      	ldrh	r3, [r4, #54]	@ 0x36
 8003718:	3b01      	subs	r3, #1
 800371a:	b29b      	uxth	r3, r3
 800371c:	86e3      	strh	r3, [r4, #54]	@ 0x36
 800371e:	2500      	movs	r5, #0
 8003720:	688a      	ldr	r2, [r1, #8]
 8003722:	f012 0201 	ands.w	r2, r2, #1
 8003726:	d00c      	beq.n	8003742 <HAL_SPI_TransmitReceive+0x116>
 8003728:	8fe3      	ldrh	r3, [r4, #62]	@ 0x3e
 800372a:	b29b      	uxth	r3, r3
 800372c:	b14b      	cbz	r3, 8003742 <HAL_SPI_TransmitReceive+0x116>
 800372e:	6ba3      	ldr	r3, [r4, #56]	@ 0x38
 8003730:	68c9      	ldr	r1, [r1, #12]
 8003732:	f823 1b02 	strh.w	r1, [r3], #2
 8003736:	63a3      	str	r3, [r4, #56]	@ 0x38
 8003738:	8fe3      	ldrh	r3, [r4, #62]	@ 0x3e
 800373a:	3b01      	subs	r3, #1
 800373c:	b29b      	uxth	r3, r3
 800373e:	87e3      	strh	r3, [r4, #62]	@ 0x3e
 8003740:	4615      	mov	r5, r2
 8003742:	f7fe fca7 	bl	8002094 <HAL_GetTick>
 8003746:	1bc0      	subs	r0, r0, r7
 8003748:	4540      	cmp	r0, r8
 800374a:	d3c6      	bcc.n	80036da <HAL_SPI_TransmitReceive+0xae>
 800374c:	f1b8 3fff 	cmp.w	r8, #4294967295
 8003750:	d0c3      	beq.n	80036da <HAL_SPI_TransmitReceive+0xae>
 8003752:	2301      	movs	r3, #1
 8003754:	f884 3051 	strb.w	r3, [r4, #81]	@ 0x51
 8003758:	2003      	movs	r0, #3
 800375a:	2300      	movs	r3, #0
 800375c:	f884 3050 	strb.w	r3, [r4, #80]	@ 0x50
 8003760:	b003      	add	sp, #12
 8003762:	e8bd 83f0 	ldmia.w	sp!, {r4, r5, r6, r7, r8, r9, pc}
 8003766:	b10a      	cbz	r2, 800376c <HAL_SPI_TransmitReceive+0x140>
 8003768:	2e01      	cmp	r6, #1
 800376a:	d108      	bne.n	800377e <HAL_SPI_TransmitReceive+0x152>
 800376c:	782a      	ldrb	r2, [r5, #0]
 800376e:	731a      	strb	r2, [r3, #12]
 8003770:	6b23      	ldr	r3, [r4, #48]	@ 0x30
 8003772:	3301      	adds	r3, #1
 8003774:	6323      	str	r3, [r4, #48]	@ 0x30
 8003776:	8ee3      	ldrh	r3, [r4, #54]	@ 0x36
 8003778:	3b01      	subs	r3, #1
 800377a:	b29b      	uxth	r3, r3
 800377c:	86e3      	strh	r3, [r4, #54]	@ 0x36
 800377e:	2501      	movs	r5, #1
 8003780:	e02d      	b.n	80037de <HAL_SPI_TransmitReceive+0x1b2>
 8003782:	6822      	ldr	r2, [r4, #0]
 8003784:	6893      	ldr	r3, [r2, #8]
 8003786:	079b      	lsls	r3, r3, #30
 8003788:	d50e      	bpl.n	80037a8 <HAL_SPI_TransmitReceive+0x17c>
 800378a:	8ee3      	ldrh	r3, [r4, #54]	@ 0x36
 800378c:	b29b      	uxth	r3, r3
 800378e:	b15b      	cbz	r3, 80037a8 <HAL_SPI_TransmitReceive+0x17c>
 8003790:	b14d      	cbz	r5, 80037a6 <HAL_SPI_TransmitReceive+0x17a>
 8003792:	6b23      	ldr	r3, [r4, #48]	@ 0x30
 8003794:	781b      	ldrb	r3, [r3, #0]
 8003796:	7313      	strb	r3, [r2, #12]
 8003798:	6b23      	ldr	r3, [r4, #48]	@ 0x30
 800379a:	3301      	adds	r3, #1
 800379c:	6323      	str	r3, [r4, #48]	@ 0x30
 800379e:	8ee3      	ldrh	r3, [r4, #54]	@ 0x36
 80037a0:	3b01      	subs	r3, #1
 80037a2:	b29b      	uxth	r3, r3
 80037a4:	86e3      	strh	r3, [r4, #54]	@ 0x36
 80037a6:	2500      	movs	r5, #0
 80037a8:	6822      	ldr	r2, [r4, #0]
 80037aa:	6891      	ldr	r1, [r2, #8]
 80037ac:	f011 0101 	ands.w	r1, r1, #1
 80037b0:	d00d      	beq.n	80037ce <HAL_SPI_TransmitReceive+0x1a2>
 80037b2:	8fe3      	ldrh	r3, [r4, #62]	@ 0x3e
 80037b4:	b29b      	uxth	r3, r3
 80037b6:	b153      	cbz	r3, 80037ce <HAL_SPI_TransmitReceive+0x1a2>
 80037b8:	6ba3      	ldr	r3, [r4, #56]	@ 0x38
 80037ba:	68d2      	ldr	r2, [r2, #12]
 80037bc:	701a      	strb	r2, [r3, #0]
 80037be:	6ba3      	ldr	r3, [r4, #56]	@ 0x38
 80037c0:	3301      	adds	r3, #1
 80037c2:	63a3      	str	r3, [r4, #56]	@ 0x38
 80037c4:	8fe3      	ldrh	r3, [r4, #62]	@ 0x3e
 80037c6:	3b01      	subs	r3, #1
 80037c8:	b29b      	uxth	r3, r3
 80037ca:	87e3      	strh	r3, [r4, #62]	@ 0x3e
 80037cc:	460d      	mov	r5, r1
 80037ce:	f7fe fc61 	bl	8002094 <HAL_GetTick>
 80037d2:	1bc0      	subs	r0, r0, r7
 80037d4:	4540      	cmp	r0, r8
 80037d6:	d302      	bcc.n	80037de <HAL_SPI_TransmitReceive+0x1b2>
 80037d8:	f1b8 3fff 	cmp.w	r8, #4294967295
 80037dc:	d1b9      	bne.n	8003752 <HAL_SPI_TransmitReceive+0x126>
 80037de:	8ee3      	ldrh	r3, [r4, #54]	@ 0x36
 80037e0:	b29b      	uxth	r3, r3
 80037e2:	2b00      	cmp	r3, #0
 80037e4:	d1cd      	bne.n	8003782 <HAL_SPI_TransmitReceive+0x156>
 80037e6:	8fe3      	ldrh	r3, [r4, #62]	@ 0x3e
 80037e8:	b29b      	uxth	r3, r3
 80037ea:	2b00      	cmp	r3, #0
 80037ec:	d1c9      	bne.n	8003782 <HAL_SPI_TransmitReceive+0x156>
 80037ee:	e77a      	b.n	80036e6 <HAL_SPI_TransmitReceive+0xba>
 80037f0:	68a3      	ldr	r3, [r4, #8]
 80037f2:	b933      	cbnz	r3, 8003802 <HAL_SPI_TransmitReceive+0x1d6>
 80037f4:	6823      	ldr	r3, [r4, #0]
 80037f6:	9001      	str	r0, [sp, #4]
 80037f8:	68da      	ldr	r2, [r3, #12]
 80037fa:	9201      	str	r2, [sp, #4]
 80037fc:	689b      	ldr	r3, [r3, #8]
 80037fe:	9301      	str	r3, [sp, #4]
 8003800:	9b01      	ldr	r3, [sp, #4]
 8003802:	6d63      	ldr	r3, [r4, #84]	@ 0x54
 8003804:	2b00      	cmp	r3, #0
 8003806:	f47f af77 	bne.w	80036f8 <HAL_SPI_TransmitReceive+0xcc>
 800380a:	2301      	movs	r3, #1
 800380c:	f884 3051 	strb.w	r3, [r4, #81]	@ 0x51
 8003810:	e7a3      	b.n	800375a <HAL_SPI_TransmitReceive+0x12e>
 8003812:	2002      	movs	r0, #2
 8003814:	e7a1      	b.n	800375a <HAL_SPI_TransmitReceive+0x12e>
 8003816:	2002      	movs	r0, #2
 8003818:	e7a2      	b.n	8003760 <HAL_SPI_TransmitReceive+0x134>

0800381a <HAL_SPI_Receive>:
 800381a:	e92d 47f3 	stmdb	sp!, {r0, r1, r4, r5, r6, r7, r8, r9, sl, lr}
 800381e:	461e      	mov	r6, r3
 8003820:	f890 3051 	ldrb.w	r3, [r0, #81]	@ 0x51
 8003824:	2b01      	cmp	r3, #1
 8003826:	4604      	mov	r4, r0
 8003828:	468a      	mov	sl, r1
 800382a:	4690      	mov	r8, r2
 800382c:	b2dd      	uxtb	r5, r3
 800382e:	f040 8095 	bne.w	800395c <HAL_SPI_Receive+0x142>
 8003832:	6843      	ldr	r3, [r0, #4]
 8003834:	f5b3 7f82 	cmp.w	r3, #260	@ 0x104
 8003838:	d10e      	bne.n	8003858 <HAL_SPI_Receive+0x3e>
 800383a:	6883      	ldr	r3, [r0, #8]
 800383c:	b963      	cbnz	r3, 8003858 <HAL_SPI_Receive+0x3e>
 800383e:	2304      	movs	r3, #4
 8003840:	f880 3051 	strb.w	r3, [r0, #81]	@ 0x51
 8003844:	4613      	mov	r3, r2
 8003846:	9600      	str	r6, [sp, #0]
 8003848:	460a      	mov	r2, r1
 800384a:	f7ff feef 	bl	800362c <HAL_SPI_TransmitReceive>
 800384e:	4605      	mov	r5, r0
 8003850:	4628      	mov	r0, r5
 8003852:	b002      	add	sp, #8
 8003854:	e8bd 87f0 	ldmia.w	sp!, {r4, r5, r6, r7, r8, r9, sl, pc}
 8003858:	f894 3050 	ldrb.w	r3, [r4, #80]	@ 0x50
 800385c:	2b01      	cmp	r3, #1
 800385e:	d07f      	beq.n	8003960 <HAL_SPI_Receive+0x146>
 8003860:	2301      	movs	r3, #1
 8003862:	f884 3050 	strb.w	r3, [r4, #80]	@ 0x50
 8003866:	f7fe fc15 	bl	8002094 <HAL_GetTick>
 800386a:	4681      	mov	r9, r0
 800386c:	f1ba 0f00 	cmp.w	sl, #0
 8003870:	d064      	beq.n	800393c <HAL_SPI_Receive+0x122>
 8003872:	f1b8 0f00 	cmp.w	r8, #0
 8003876:	d061      	beq.n	800393c <HAL_SPI_Receive+0x122>
 8003878:	68a2      	ldr	r2, [r4, #8]
 800387a:	f8c4 a038 	str.w	sl, [r4, #56]	@ 0x38
 800387e:	2700      	movs	r7, #0
 8003880:	2304      	movs	r3, #4
 8003882:	f5b2 4f00 	cmp.w	r2, #32768	@ 0x8000
 8003886:	f884 3051 	strb.w	r3, [r4, #81]	@ 0x51
 800388a:	e9c4 7710 	strd	r7, r7, [r4, #64]	@ 0x40
 800388e:	6567      	str	r7, [r4, #84]	@ 0x54
 8003890:	6823      	ldr	r3, [r4, #0]
 8003892:	f8a4 803e 	strh.w	r8, [r4, #62]	@ 0x3e
 8003896:	f8a4 803c 	strh.w	r8, [r4, #60]	@ 0x3c
 800389a:	6327      	str	r7, [r4, #48]	@ 0x30
 800389c:	86a7      	strh	r7, [r4, #52]	@ 0x34
 800389e:	86e7      	strh	r7, [r4, #54]	@ 0x36
 80038a0:	d107      	bne.n	80038b2 <HAL_SPI_Receive+0x98>
 80038a2:	681a      	ldr	r2, [r3, #0]
 80038a4:	f022 0240 	bic.w	r2, r2, #64	@ 0x40
 80038a8:	601a      	str	r2, [r3, #0]
 80038aa:	681a      	ldr	r2, [r3, #0]
 80038ac:	f422 4280 	bic.w	r2, r2, #16384	@ 0x4000
 80038b0:	601a      	str	r2, [r3, #0]
 80038b2:	681a      	ldr	r2, [r3, #0]
 80038b4:	0657      	lsls	r7, r2, #25
 80038b6:	bf5e      	ittt	pl
 80038b8:	681a      	ldrpl	r2, [r3, #0]
 80038ba:	f042 0240 	orrpl.w	r2, r2, #64	@ 0x40
 80038be:	601a      	strpl	r2, [r3, #0]
 80038c0:	68e3      	ldr	r3, [r4, #12]
 80038c2:	b1f3      	cbz	r3, 8003902 <HAL_SPI_Receive+0xe8>
 80038c4:	8fe3      	ldrh	r3, [r4, #62]	@ 0x3e
 80038c6:	b29b      	uxth	r3, r3
 80038c8:	b1fb      	cbz	r3, 800390a <HAL_SPI_Receive+0xf0>
 80038ca:	6823      	ldr	r3, [r4, #0]
 80038cc:	689a      	ldr	r2, [r3, #8]
 80038ce:	07d2      	lsls	r2, r2, #31
 80038d0:	d538      	bpl.n	8003944 <HAL_SPI_Receive+0x12a>
 80038d2:	68da      	ldr	r2, [r3, #12]
 80038d4:	6ba3      	ldr	r3, [r4, #56]	@ 0x38
 80038d6:	f823 2b02 	strh.w	r2, [r3], #2
 80038da:	63a3      	str	r3, [r4, #56]	@ 0x38
 80038dc:	8fe3      	ldrh	r3, [r4, #62]	@ 0x3e
 80038de:	3b01      	subs	r3, #1
 80038e0:	b29b      	uxth	r3, r3
 80038e2:	87e3      	strh	r3, [r4, #62]	@ 0x3e
 80038e4:	e7ee      	b.n	80038c4 <HAL_SPI_Receive+0xaa>
 80038e6:	6823      	ldr	r3, [r4, #0]
 80038e8:	689a      	ldr	r2, [r3, #8]
 80038ea:	07d0      	lsls	r0, r2, #31
 80038ec:	d51a      	bpl.n	8003924 <HAL_SPI_Receive+0x10a>
 80038ee:	6ba2      	ldr	r2, [r4, #56]	@ 0x38
 80038f0:	7b1b      	ldrb	r3, [r3, #12]
 80038f2:	7013      	strb	r3, [r2, #0]
 80038f4:	6ba3      	ldr	r3, [r4, #56]	@ 0x38
 80038f6:	3301      	adds	r3, #1
 80038f8:	63a3      	str	r3, [r4, #56]	@ 0x38
 80038fa:	8fe3      	ldrh	r3, [r4, #62]	@ 0x3e
 80038fc:	3b01      	subs	r3, #1
 80038fe:	b29b      	uxth	r3, r3
 8003900:	87e3      	strh	r3, [r4, #62]	@ 0x3e
 8003902:	8fe3      	ldrh	r3, [r4, #62]	@ 0x3e
 8003904:	b29b      	uxth	r3, r3
 8003906:	2b00      	cmp	r3, #0
 8003908:	d1ed      	bne.n	80038e6 <HAL_SPI_Receive+0xcc>
 800390a:	464a      	mov	r2, r9
 800390c:	4631      	mov	r1, r6
 800390e:	4620      	mov	r0, r4
 8003910:	f7ff fd4e 	bl	80033b0 <SPI_EndRxTransaction>
 8003914:	b9f8      	cbnz	r0, 8003956 <HAL_SPI_Receive+0x13c>
 8003916:	6d63      	ldr	r3, [r4, #84]	@ 0x54
 8003918:	b983      	cbnz	r3, 800393c <HAL_SPI_Receive+0x122>
 800391a:	2201      	movs	r2, #1
 800391c:	f884 2051 	strb.w	r2, [r4, #81]	@ 0x51
 8003920:	461d      	mov	r5, r3
 8003922:	e00b      	b.n	800393c <HAL_SPI_Receive+0x122>
 8003924:	f7fe fbb6 	bl	8002094 <HAL_GetTick>
 8003928:	eba0 0009 	sub.w	r0, r0, r9
 800392c:	42b0      	cmp	r0, r6
 800392e:	d3e8      	bcc.n	8003902 <HAL_SPI_Receive+0xe8>
 8003930:	1c71      	adds	r1, r6, #1
 8003932:	d0e6      	beq.n	8003902 <HAL_SPI_Receive+0xe8>
 8003934:	2301      	movs	r3, #1
 8003936:	f884 3051 	strb.w	r3, [r4, #81]	@ 0x51
 800393a:	2503      	movs	r5, #3
 800393c:	2300      	movs	r3, #0
 800393e:	f884 3050 	strb.w	r3, [r4, #80]	@ 0x50
 8003942:	e785      	b.n	8003850 <HAL_SPI_Receive+0x36>
 8003944:	f7fe fba6 	bl	8002094 <HAL_GetTick>
 8003948:	eba0 0009 	sub.w	r0, r0, r9
 800394c:	42b0      	cmp	r0, r6
 800394e:	d3b9      	bcc.n	80038c4 <HAL_SPI_Receive+0xaa>
 8003950:	1c73      	adds	r3, r6, #1
 8003952:	d0b7      	beq.n	80038c4 <HAL_SPI_Receive+0xaa>
 8003954:	e7ee      	b.n	8003934 <HAL_SPI_Receive+0x11a>
 8003956:	2320      	movs	r3, #32
 8003958:	6563      	str	r3, [r4, #84]	@ 0x54
 800395a:	e7dc      	b.n	8003916 <HAL_SPI_Receive+0xfc>
 800395c:	2502      	movs	r5, #2
 800395e:	e7ed      	b.n	800393c <HAL_SPI_Receive+0x122>
 8003960:	2502      	movs	r5, #2
 8003962:	e775      	b.n	8003850 <HAL_SPI_Receive+0x36>

08003964 <HAL_TIM_Base_Start_IT>:
 8003964:	f890 303d 	ldrb.w	r3, [r0, #61]	@ 0x3d
 8003968:	2b01      	cmp	r3, #1
 800396a:	d128      	bne.n	80039be <HAL_TIM_Base_Start_IT+0x5a>
 800396c:	2302      	movs	r3, #2
 800396e:	f880 303d 	strb.w	r3, [r0, #61]	@ 0x3d
 8003972:	6803      	ldr	r3, [r0, #0]
 8003974:	68da      	ldr	r2, [r3, #12]
 8003976:	f042 0201 	orr.w	r2, r2, #1
 800397a:	60da      	str	r2, [r3, #12]
 800397c:	4a11      	ldr	r2, [pc, #68]	@ (80039c4 <HAL_TIM_Base_Start_IT+0x60>)
 800397e:	4293      	cmp	r3, r2
 8003980:	d012      	beq.n	80039a8 <HAL_TIM_Base_Start_IT+0x44>
 8003982:	f1b3 4f80 	cmp.w	r3, #1073741824	@ 0x40000000
 8003986:	d00f      	beq.n	80039a8 <HAL_TIM_Base_Start_IT+0x44>
 8003988:	f5a2 427c 	sub.w	r2, r2, #64512	@ 0xfc00
 800398c:	4293      	cmp	r3, r2
 800398e:	d00b      	beq.n	80039a8 <HAL_TIM_Base_Start_IT+0x44>
 8003990:	f502 6280 	add.w	r2, r2, #1024	@ 0x400
 8003994:	4293      	cmp	r3, r2
 8003996:	d007      	beq.n	80039a8 <HAL_TIM_Base_Start_IT+0x44>
 8003998:	f502 6280 	add.w	r2, r2, #1024	@ 0x400
 800399c:	4293      	cmp	r3, r2
 800399e:	d003      	beq.n	80039a8 <HAL_TIM_Base_Start_IT+0x44>
 80039a0:	f502 329a 	add.w	r2, r2, #78848	@ 0x13400
 80039a4:	4293      	cmp	r3, r2
 80039a6:	d104      	bne.n	80039b2 <HAL_TIM_Base_Start_IT+0x4e>
 80039a8:	689a      	ldr	r2, [r3, #8]
 80039aa:	f002 0207 	and.w	r2, r2, #7
 80039ae:	2a06      	cmp	r2, #6
 80039b0:	d003      	beq.n	80039ba <HAL_TIM_Base_Start_IT+0x56>
 80039b2:	681a      	ldr	r2, [r3, #0]
 80039b4:	f042 0201 	orr.w	r2, r2, #1
 80039b8:	601a      	str	r2, [r3, #0]
 80039ba:	2000      	movs	r0, #0
 80039bc:	4770      	bx	lr
 80039be:	2001      	movs	r0, #1
 80039c0:	4770      	bx	lr
 80039c2:	bf00      	nop
 80039c4:	40010000 	.word	0x40010000

080039c8 <HAL_TIM_OC_DelayElapsedCallback>:
 80039c8:	4770      	bx	lr

080039ca <HAL_TIM_IC_CaptureCallback>:
 80039ca:	4770      	bx	lr

080039cc <HAL_TIM_PWM_PulseFinishedCallback>:
 80039cc:	4770      	bx	lr

080039ce <HAL_TIM_TriggerCallback>:
 80039ce:	4770      	bx	lr

080039d0 <HAL_TIM_IRQHandler>:
 80039d0:	6803      	ldr	r3, [r0, #0]
 80039d2:	b570      	push	{r4, r5, r6, lr}
 80039d4:	68dd      	ldr	r5, [r3, #12]
 80039d6:	691e      	ldr	r6, [r3, #16]
 80039d8:	07b1      	lsls	r1, r6, #30
 80039da:	4604      	mov	r4, r0
 80039dc:	d50d      	bpl.n	80039fa <HAL_TIM_IRQHandler+0x2a>
 80039de:	07aa      	lsls	r2, r5, #30
 80039e0:	d50b      	bpl.n	80039fa <HAL_TIM_IRQHandler+0x2a>
 80039e2:	f06f 0202 	mvn.w	r2, #2
 80039e6:	611a      	str	r2, [r3, #16]
 80039e8:	2201      	movs	r2, #1
 80039ea:	7702      	strb	r2, [r0, #28]
 80039ec:	699b      	ldr	r3, [r3, #24]
 80039ee:	079b      	lsls	r3, r3, #30
 80039f0:	d069      	beq.n	8003ac6 <HAL_TIM_IRQHandler+0xf6>
 80039f2:	f7ff ffea 	bl	80039ca <HAL_TIM_IC_CaptureCallback>
 80039f6:	2300      	movs	r3, #0
 80039f8:	7723      	strb	r3, [r4, #28]
 80039fa:	0771      	lsls	r1, r6, #29
 80039fc:	d510      	bpl.n	8003a20 <HAL_TIM_IRQHandler+0x50>
 80039fe:	076a      	lsls	r2, r5, #29
 8003a00:	d50e      	bpl.n	8003a20 <HAL_TIM_IRQHandler+0x50>
 8003a02:	6823      	ldr	r3, [r4, #0]
 8003a04:	f06f 0204 	mvn.w	r2, #4
 8003a08:	611a      	str	r2, [r3, #16]
 8003a0a:	2202      	movs	r2, #2
 8003a0c:	7722      	strb	r2, [r4, #28]
 8003a0e:	699b      	ldr	r3, [r3, #24]
 8003a10:	f413 7f40 	tst.w	r3, #768	@ 0x300
 8003a14:	4620      	mov	r0, r4
 8003a16:	d05c      	beq.n	8003ad2 <HAL_TIM_IRQHandler+0x102>
 8003a18:	f7ff ffd7 	bl	80039ca <HAL_TIM_IC_CaptureCallback>
 8003a1c:	2300      	movs	r3, #0
 8003a1e:	7723      	strb	r3, [r4, #28]
 8003a20:	0733      	lsls	r3, r6, #28
 8003a22:	d50f      	bpl.n	8003a44 <HAL_TIM_IRQHandler+0x74>
 8003a24:	0728      	lsls	r0, r5, #28
 8003a26:	d50d      	bpl.n	8003a44 <HAL_TIM_IRQHandler+0x74>
 8003a28:	6823      	ldr	r3, [r4, #0]
 8003a2a:	f06f 0208 	mvn.w	r2, #8
 8003a2e:	611a      	str	r2, [r3, #16]
 8003a30:	2204      	movs	r2, #4
 8003a32:	7722      	strb	r2, [r4, #28]
 8003a34:	69db      	ldr	r3, [r3, #28]
 8003a36:	0799      	lsls	r1, r3, #30
 8003a38:	4620      	mov	r0, r4
 8003a3a:	d050      	beq.n	8003ade <HAL_TIM_IRQHandler+0x10e>
 8003a3c:	f7ff ffc5 	bl	80039ca <HAL_TIM_IC_CaptureCallback>
 8003a40:	2300      	movs	r3, #0
 8003a42:	7723      	strb	r3, [r4, #28]
 8003a44:	06f2      	lsls	r2, r6, #27
 8003a46:	d510      	bpl.n	8003a6a <HAL_TIM_IRQHandler+0x9a>
 8003a48:	06eb      	lsls	r3, r5, #27
 8003a4a:	d50e      	bpl.n	8003a6a <HAL_TIM_IRQHandler+0x9a>
 8003a4c:	6823      	ldr	r3, [r4, #0]
 8003a4e:	f06f 0210 	mvn.w	r2, #16
 8003a52:	611a      	str	r2, [r3, #16]
 8003a54:	2208      	movs	r2, #8
 8003a56:	7722      	strb	r2, [r4, #28]
 8003a58:	69db      	ldr	r3, [r3, #28]
 8003a5a:	f413 7f40 	tst.w	r3, #768	@ 0x300
 8003a5e:	4620      	mov	r0, r4
 8003a60:	d043      	beq.n	8003aea <HAL_TIM_IRQHandler+0x11a>
 8003a62:	f7ff ffb2 	bl	80039ca <HAL_TIM_IC_CaptureCallback>
 8003a66:	2300      	movs	r3, #0
 8003a68:	7723      	strb	r3, [r4, #28]
 8003a6a:	07f0      	lsls	r0, r6, #31
 8003a6c:	d508      	bpl.n	8003a80 <HAL_TIM_IRQHandler+0xb0>
 8003a6e:	07e9      	lsls	r1, r5, #31
 8003a70:	d506      	bpl.n	8003a80 <HAL_TIM_IRQHandler+0xb0>
 8003a72:	6823      	ldr	r3, [r4, #0]
 8003a74:	f06f 0201 	mvn.w	r2, #1
 8003a78:	611a      	str	r2, [r3, #16]
 8003a7a:	4620      	mov	r0, r4
 8003a7c:	f7fd fa90 	bl	8000fa0 <HAL_TIM_PeriodElapsedCallback>
 8003a80:	0632      	lsls	r2, r6, #24
 8003a82:	d508      	bpl.n	8003a96 <HAL_TIM_IRQHandler+0xc6>
 8003a84:	062b      	lsls	r3, r5, #24
 8003a86:	d506      	bpl.n	8003a96 <HAL_TIM_IRQHandler+0xc6>
 8003a88:	6823      	ldr	r3, [r4, #0]
 8003a8a:	f06f 0280 	mvn.w	r2, #128	@ 0x80
 8003a8e:	611a      	str	r2, [r3, #16]
 8003a90:	4620      	mov	r0, r4
 8003a92:	f000 f974 	bl	8003d7e <HAL_TIMEx_BreakCallback>
 8003a96:	0670      	lsls	r0, r6, #25
 8003a98:	d508      	bpl.n	8003aac <HAL_TIM_IRQHandler+0xdc>
 8003a9a:	0669      	lsls	r1, r5, #25
 8003a9c:	d506      	bpl.n	8003aac <HAL_TIM_IRQHandler+0xdc>
 8003a9e:	6823      	ldr	r3, [r4, #0]
 8003aa0:	f06f 0240 	mvn.w	r2, #64	@ 0x40
 8003aa4:	611a      	str	r2, [r3, #16]
 8003aa6:	4620      	mov	r0, r4
 8003aa8:	f7ff ff91 	bl	80039ce <HAL_TIM_TriggerCallback>
 8003aac:	06b2      	lsls	r2, r6, #26
 8003aae:	d522      	bpl.n	8003af6 <HAL_TIM_IRQHandler+0x126>
 8003ab0:	06ab      	lsls	r3, r5, #26
 8003ab2:	d520      	bpl.n	8003af6 <HAL_TIM_IRQHandler+0x126>
 8003ab4:	6823      	ldr	r3, [r4, #0]
 8003ab6:	f06f 0220 	mvn.w	r2, #32
 8003aba:	4620      	mov	r0, r4
 8003abc:	611a      	str	r2, [r3, #16]
 8003abe:	e8bd 4070 	ldmia.w	sp!, {r4, r5, r6, lr}
 8003ac2:	f000 b95b 	b.w	8003d7c <HAL_TIMEx_CommutCallback>
 8003ac6:	f7ff ff7f 	bl	80039c8 <HAL_TIM_OC_DelayElapsedCallback>
 8003aca:	4620      	mov	r0, r4
 8003acc:	f7ff ff7e 	bl	80039cc <HAL_TIM_PWM_PulseFinishedCallback>
 8003ad0:	e791      	b.n	80039f6 <HAL_TIM_IRQHandler+0x26>
 8003ad2:	f7ff ff79 	bl	80039c8 <HAL_TIM_OC_DelayElapsedCallback>
 8003ad6:	4620      	mov	r0, r4
 8003ad8:	f7ff ff78 	bl	80039cc <HAL_TIM_PWM_PulseFinishedCallback>
 8003adc:	e79e      	b.n	8003a1c <HAL_TIM_IRQHandler+0x4c>
 8003ade:	f7ff ff73 	bl	80039c8 <HAL_TIM_OC_DelayElapsedCallback>
 8003ae2:	4620      	mov	r0, r4
 8003ae4:	f7ff ff72 	bl	80039cc <HAL_TIM_PWM_PulseFinishedCallback>
 8003ae8:	e7aa      	b.n	8003a40 <HAL_TIM_IRQHandler+0x70>
 8003aea:	f7ff ff6d 	bl	80039c8 <HAL_TIM_OC_DelayElapsedCallback>
 8003aee:	4620      	mov	r0, r4
 8003af0:	f7ff ff6c 	bl	80039cc <HAL_TIM_PWM_PulseFinishedCallback>
 8003af4:	e7b7      	b.n	8003a66 <HAL_TIM_IRQHandler+0x96>
 8003af6:	bd70      	pop	{r4, r5, r6, pc}

08003af8 <TIM_Base_SetConfig>:
 8003af8:	4a27      	ldr	r2, [pc, #156]	@ (8003b98 <TIM_Base_SetConfig+0xa0>)
 8003afa:	6803      	ldr	r3, [r0, #0]
 8003afc:	4290      	cmp	r0, r2
 8003afe:	d00e      	beq.n	8003b1e <TIM_Base_SetConfig+0x26>
 8003b00:	f1b0 4f80 	cmp.w	r0, #1073741824	@ 0x40000000
 8003b04:	d00b      	beq.n	8003b1e <TIM_Base_SetConfig+0x26>
 8003b06:	f5a2 427c 	sub.w	r2, r2, #64512	@ 0xfc00
 8003b0a:	4290      	cmp	r0, r2
 8003b0c:	d007      	beq.n	8003b1e <TIM_Base_SetConfig+0x26>
 8003b0e:	f502 6280 	add.w	r2, r2, #1024	@ 0x400
 8003b12:	4290      	cmp	r0, r2
 8003b14:	d003      	beq.n	8003b1e <TIM_Base_SetConfig+0x26>
 8003b16:	f502 6280 	add.w	r2, r2, #1024	@ 0x400
 8003b1a:	4290      	cmp	r0, r2
 8003b1c:	d115      	bne.n	8003b4a <TIM_Base_SetConfig+0x52>
 8003b1e:	684a      	ldr	r2, [r1, #4]
 8003b20:	f023 0370 	bic.w	r3, r3, #112	@ 0x70
 8003b24:	4313      	orrs	r3, r2
 8003b26:	4a1c      	ldr	r2, [pc, #112]	@ (8003b98 <TIM_Base_SetConfig+0xa0>)
 8003b28:	4290      	cmp	r0, r2
 8003b2a:	d019      	beq.n	8003b60 <TIM_Base_SetConfig+0x68>
 8003b2c:	f1b0 4f80 	cmp.w	r0, #1073741824	@ 0x40000000
 8003b30:	d016      	beq.n	8003b60 <TIM_Base_SetConfig+0x68>
 8003b32:	f5a2 427c 	sub.w	r2, r2, #64512	@ 0xfc00
 8003b36:	4290      	cmp	r0, r2
 8003b38:	d012      	beq.n	8003b60 <TIM_Base_SetConfig+0x68>
 8003b3a:	f502 6280 	add.w	r2, r2, #1024	@ 0x400
 8003b3e:	4290      	cmp	r0, r2
 8003b40:	d00e      	beq.n	8003b60 <TIM_Base_SetConfig+0x68>
 8003b42:	f502 6280 	add.w	r2, r2, #1024	@ 0x400
 8003b46:	4290      	cmp	r0, r2
 8003b48:	d00a      	beq.n	8003b60 <TIM_Base_SetConfig+0x68>
 8003b4a:	4a14      	ldr	r2, [pc, #80]	@ (8003b9c <TIM_Base_SetConfig+0xa4>)
 8003b4c:	4290      	cmp	r0, r2
 8003b4e:	d007      	beq.n	8003b60 <TIM_Base_SetConfig+0x68>
 8003b50:	f502 6280 	add.w	r2, r2, #1024	@ 0x400
 8003b54:	4290      	cmp	r0, r2
 8003b56:	d003      	beq.n	8003b60 <TIM_Base_SetConfig+0x68>
 8003b58:	f502 6280 	add.w	r2, r2, #1024	@ 0x400
 8003b5c:	4290      	cmp	r0, r2
 8003b5e:	d103      	bne.n	8003b68 <TIM_Base_SetConfig+0x70>
 8003b60:	68ca      	ldr	r2, [r1, #12]
 8003b62:	f423 7340 	bic.w	r3, r3, #768	@ 0x300
 8003b66:	4313      	orrs	r3, r2
 8003b68:	694a      	ldr	r2, [r1, #20]
 8003b6a:	f023 0380 	bic.w	r3, r3, #128	@ 0x80
 8003b6e:	4313      	orrs	r3, r2
 8003b70:	6003      	str	r3, [r0, #0]
 8003b72:	688b      	ldr	r3, [r1, #8]
 8003b74:	62c3      	str	r3, [r0, #44]	@ 0x2c
 8003b76:	680b      	ldr	r3, [r1, #0]
 8003b78:	6283      	str	r3, [r0, #40]	@ 0x28
 8003b7a:	4b07      	ldr	r3, [pc, #28]	@ (8003b98 <TIM_Base_SetConfig+0xa0>)
 8003b7c:	4298      	cmp	r0, r3
 8003b7e:	bf04      	itt	eq
 8003b80:	690b      	ldreq	r3, [r1, #16]
 8003b82:	6303      	streq	r3, [r0, #48]	@ 0x30
 8003b84:	2301      	movs	r3, #1
 8003b86:	6143      	str	r3, [r0, #20]
 8003b88:	6903      	ldr	r3, [r0, #16]
 8003b8a:	07db      	lsls	r3, r3, #31
 8003b8c:	bf42      	ittt	mi
 8003b8e:	6903      	ldrmi	r3, [r0, #16]
 8003b90:	f023 0301 	bicmi.w	r3, r3, #1
 8003b94:	6103      	strmi	r3, [r0, #16]
 8003b96:	4770      	bx	lr
 8003b98:	40010000 	.word	0x40010000
 8003b9c:	40014000 	.word	0x40014000

08003ba0 <HAL_TIM_Base_Init>:
 8003ba0:	b510      	push	{r4, lr}
 8003ba2:	4604      	mov	r4, r0
 8003ba4:	b330      	cbz	r0, 8003bf4 <HAL_TIM_Base_Init+0x54>
 8003ba6:	f890 303d 	ldrb.w	r3, [r0, #61]	@ 0x3d
 8003baa:	f003 02ff 	and.w	r2, r3, #255	@ 0xff
 8003bae:	b91b      	cbnz	r3, 8003bb8 <HAL_TIM_Base_Init+0x18>
 8003bb0:	f880 203c 	strb.w	r2, [r0, #60]	@ 0x3c
 8003bb4:	f7fd fd3c 	bl	8001630 <HAL_TIM_Base_MspInit>
 8003bb8:	2302      	movs	r3, #2
 8003bba:	6820      	ldr	r0, [r4, #0]
 8003bbc:	f884 303d 	strb.w	r3, [r4, #61]	@ 0x3d
 8003bc0:	1d21      	adds	r1, r4, #4
 8003bc2:	f7ff ff99 	bl	8003af8 <TIM_Base_SetConfig>
 8003bc6:	2301      	movs	r3, #1
 8003bc8:	f884 3046 	strb.w	r3, [r4, #70]	@ 0x46
 8003bcc:	2000      	movs	r0, #0
 8003bce:	f884 303e 	strb.w	r3, [r4, #62]	@ 0x3e
 8003bd2:	f884 303f 	strb.w	r3, [r4, #63]	@ 0x3f
 8003bd6:	f884 3040 	strb.w	r3, [r4, #64]	@ 0x40
 8003bda:	f884 3041 	strb.w	r3, [r4, #65]	@ 0x41
 8003bde:	f884 3042 	strb.w	r3, [r4, #66]	@ 0x42
 8003be2:	f884 3043 	strb.w	r3, [r4, #67]	@ 0x43
 8003be6:	f884 3044 	strb.w	r3, [r4, #68]	@ 0x44
 8003bea:	f884 3045 	strb.w	r3, [r4, #69]	@ 0x45
 8003bee:	f884 303d 	strb.w	r3, [r4, #61]	@ 0x3d
 8003bf2:	bd10      	pop	{r4, pc}
 8003bf4:	2001      	movs	r0, #1
 8003bf6:	e7fc      	b.n	8003bf2 <HAL_TIM_Base_Init+0x52>

08003bf8 <TIM_ETR_SetConfig>:
 8003bf8:	b510      	push	{r4, lr}
 8003bfa:	6884      	ldr	r4, [r0, #8]
 8003bfc:	430a      	orrs	r2, r1
 8003bfe:	f424 447f 	bic.w	r4, r4, #65280	@ 0xff00
 8003c02:	ea42 2203 	orr.w	r2, r2, r3, lsl #8
 8003c06:	4322      	orrs	r2, r4
 8003c08:	6082      	str	r2, [r0, #8]
 8003c0a:	bd10      	pop	{r4, pc}

08003c0c <TIM_SlaveTimer_SetConfig.constprop.0>:
 8003c0c:	6800      	ldr	r0, [r0, #0]
 8003c0e:	684a      	ldr	r2, [r1, #4]
 8003c10:	6883      	ldr	r3, [r0, #8]
 8003c12:	f023 0370 	bic.w	r3, r3, #112	@ 0x70
 8003c16:	b510      	push	{r4, lr}
 8003c18:	4313      	orrs	r3, r2
 8003c1a:	680c      	ldr	r4, [r1, #0]
 8003c1c:	f023 0307 	bic.w	r3, r3, #7
 8003c20:	4323      	orrs	r3, r4
 8003c22:	2a50      	cmp	r2, #80	@ 0x50
 8003c24:	6083      	str	r3, [r0, #8]
 8003c26:	d029      	beq.n	8003c7c <TIM_SlaveTimer_SetConfig.constprop.0+0x70>
 8003c28:	d80e      	bhi.n	8003c48 <TIM_SlaveTimer_SetConfig.constprop.0+0x3c>
 8003c2a:	2a40      	cmp	r2, #64	@ 0x40
 8003c2c:	d016      	beq.n	8003c5c <TIM_SlaveTimer_SetConfig.constprop.0+0x50>
 8003c2e:	d805      	bhi.n	8003c3c <TIM_SlaveTimer_SetConfig.constprop.0+0x30>
 8003c30:	2a20      	cmp	r2, #32
 8003c32:	d007      	beq.n	8003c44 <TIM_SlaveTimer_SetConfig.constprop.0+0x38>
 8003c34:	d804      	bhi.n	8003c40 <TIM_SlaveTimer_SetConfig.constprop.0+0x34>
 8003c36:	f032 0310 	bics.w	r3, r2, #16
 8003c3a:	d003      	beq.n	8003c44 <TIM_SlaveTimer_SetConfig.constprop.0+0x38>
 8003c3c:	2001      	movs	r0, #1
 8003c3e:	e002      	b.n	8003c46 <TIM_SlaveTimer_SetConfig.constprop.0+0x3a>
 8003c40:	2a30      	cmp	r2, #48	@ 0x30
 8003c42:	d1fb      	bne.n	8003c3c <TIM_SlaveTimer_SetConfig.constprop.0+0x30>
 8003c44:	2000      	movs	r0, #0
 8003c46:	bd10      	pop	{r4, pc}
 8003c48:	2a60      	cmp	r2, #96	@ 0x60
 8003c4a:	d027      	beq.n	8003c9c <TIM_SlaveTimer_SetConfig.constprop.0+0x90>
 8003c4c:	2a70      	cmp	r2, #112	@ 0x70
 8003c4e:	d1f5      	bne.n	8003c3c <TIM_SlaveTimer_SetConfig.constprop.0+0x30>
 8003c50:	690b      	ldr	r3, [r1, #16]
 8003c52:	e9d1 2102 	ldrd	r2, r1, [r1, #8]
 8003c56:	f7ff ffcf 	bl	8003bf8 <TIM_ETR_SetConfig>
 8003c5a:	e7f3      	b.n	8003c44 <TIM_SlaveTimer_SetConfig.constprop.0+0x38>
 8003c5c:	2c05      	cmp	r4, #5
 8003c5e:	d0ed      	beq.n	8003c3c <TIM_SlaveTimer_SetConfig.constprop.0+0x30>
 8003c60:	6a02      	ldr	r2, [r0, #32]
 8003c62:	6a03      	ldr	r3, [r0, #32]
 8003c64:	6909      	ldr	r1, [r1, #16]
 8003c66:	f023 0301 	bic.w	r3, r3, #1
 8003c6a:	6203      	str	r3, [r0, #32]
 8003c6c:	6983      	ldr	r3, [r0, #24]
 8003c6e:	f023 03f0 	bic.w	r3, r3, #240	@ 0xf0
 8003c72:	ea43 1301 	orr.w	r3, r3, r1, lsl #4
 8003c76:	6183      	str	r3, [r0, #24]
 8003c78:	6202      	str	r2, [r0, #32]
 8003c7a:	e7e3      	b.n	8003c44 <TIM_SlaveTimer_SetConfig.constprop.0+0x38>
 8003c7c:	688a      	ldr	r2, [r1, #8]
 8003c7e:	690c      	ldr	r4, [r1, #16]
 8003c80:	6a01      	ldr	r1, [r0, #32]
 8003c82:	6a03      	ldr	r3, [r0, #32]
 8003c84:	f023 0301 	bic.w	r3, r3, #1
 8003c88:	6203      	str	r3, [r0, #32]
 8003c8a:	6983      	ldr	r3, [r0, #24]
 8003c8c:	f021 010a 	bic.w	r1, r1, #10
 8003c90:	f023 03f0 	bic.w	r3, r3, #240	@ 0xf0
 8003c94:	ea43 1304 	orr.w	r3, r3, r4, lsl #4
 8003c98:	430a      	orrs	r2, r1
 8003c9a:	e7ec      	b.n	8003c76 <TIM_SlaveTimer_SetConfig.constprop.0+0x6a>
 8003c9c:	6a03      	ldr	r3, [r0, #32]
 8003c9e:	6a02      	ldr	r2, [r0, #32]
 8003ca0:	688c      	ldr	r4, [r1, #8]
 8003ca2:	6909      	ldr	r1, [r1, #16]
 8003ca4:	f022 0210 	bic.w	r2, r2, #16
 8003ca8:	6202      	str	r2, [r0, #32]
 8003caa:	6982      	ldr	r2, [r0, #24]
 8003cac:	f023 03a0 	bic.w	r3, r3, #160	@ 0xa0
 8003cb0:	f422 4270 	bic.w	r2, r2, #61440	@ 0xf000
 8003cb4:	ea42 3201 	orr.w	r2, r2, r1, lsl #12
 8003cb8:	ea43 1304 	orr.w	r3, r3, r4, lsl #4
 8003cbc:	6182      	str	r2, [r0, #24]
 8003cbe:	6203      	str	r3, [r0, #32]
 8003cc0:	e7c0      	b.n	8003c44 <TIM_SlaveTimer_SetConfig.constprop.0+0x38>

08003cc2 <HAL_TIM_SlaveConfigSynchro>:
 8003cc2:	b538      	push	{r3, r4, r5, lr}
 8003cc4:	f890 303c 	ldrb.w	r3, [r0, #60]	@ 0x3c
 8003cc8:	2b01      	cmp	r3, #1
 8003cca:	4604      	mov	r4, r0
 8003ccc:	f04f 0302 	mov.w	r3, #2
 8003cd0:	d01c      	beq.n	8003d0c <HAL_TIM_SlaveConfigSynchro+0x4a>
 8003cd2:	2501      	movs	r5, #1
 8003cd4:	f880 503c 	strb.w	r5, [r0, #60]	@ 0x3c
 8003cd8:	f880 303d 	strb.w	r3, [r0, #61]	@ 0x3d
 8003cdc:	f7ff ff96 	bl	8003c0c <TIM_SlaveTimer_SetConfig.constprop.0>
 8003ce0:	b130      	cbz	r0, 8003cf0 <HAL_TIM_SlaveConfigSynchro+0x2e>
 8003ce2:	2300      	movs	r3, #0
 8003ce4:	f884 503d 	strb.w	r5, [r4, #61]	@ 0x3d
 8003ce8:	f884 303c 	strb.w	r3, [r4, #60]	@ 0x3c
 8003cec:	4628      	mov	r0, r5
 8003cee:	bd38      	pop	{r3, r4, r5, pc}
 8003cf0:	6823      	ldr	r3, [r4, #0]
 8003cf2:	68da      	ldr	r2, [r3, #12]
 8003cf4:	f022 0240 	bic.w	r2, r2, #64	@ 0x40
 8003cf8:	60da      	str	r2, [r3, #12]
 8003cfa:	68da      	ldr	r2, [r3, #12]
 8003cfc:	f422 4280 	bic.w	r2, r2, #16384	@ 0x4000
 8003d00:	60da      	str	r2, [r3, #12]
 8003d02:	f884 503d 	strb.w	r5, [r4, #61]	@ 0x3d
 8003d06:	f884 003c 	strb.w	r0, [r4, #60]	@ 0x3c
 8003d0a:	e7f0      	b.n	8003cee <HAL_TIM_SlaveConfigSynchro+0x2c>
 8003d0c:	4618      	mov	r0, r3
 8003d0e:	e7ee      	b.n	8003cee <HAL_TIM_SlaveConfigSynchro+0x2c>

08003d10 <HAL_TIMEx_MasterConfigSynchronization>:
 8003d10:	b530      	push	{r4, r5, lr}
 8003d12:	f890 303c 	ldrb.w	r3, [r0, #60]	@ 0x3c
 8003d16:	2b01      	cmp	r3, #1
 8003d18:	4602      	mov	r2, r0
 8003d1a:	f04f 0002 	mov.w	r0, #2
 8003d1e:	d02a      	beq.n	8003d76 <HAL_TIMEx_MasterConfigSynchronization+0x66>
 8003d20:	6813      	ldr	r3, [r2, #0]
 8003d22:	f882 003d 	strb.w	r0, [r2, #61]	@ 0x3d
 8003d26:	685c      	ldr	r4, [r3, #4]
 8003d28:	680d      	ldr	r5, [r1, #0]
 8003d2a:	6898      	ldr	r0, [r3, #8]
 8003d2c:	f024 0470 	bic.w	r4, r4, #112	@ 0x70
 8003d30:	432c      	orrs	r4, r5
 8003d32:	605c      	str	r4, [r3, #4]
 8003d34:	4c10      	ldr	r4, [pc, #64]	@ (8003d78 <HAL_TIMEx_MasterConfigSynchronization+0x68>)
 8003d36:	42a3      	cmp	r3, r4
 8003d38:	d012      	beq.n	8003d60 <HAL_TIMEx_MasterConfigSynchronization+0x50>
 8003d3a:	f1b3 4f80 	cmp.w	r3, #1073741824	@ 0x40000000
 8003d3e:	d00f      	beq.n	8003d60 <HAL_TIMEx_MasterConfigSynchronization+0x50>
 8003d40:	f5a4 447c 	sub.w	r4, r4, #64512	@ 0xfc00
 8003d44:	42a3      	cmp	r3, r4
 8003d46:	d00b      	beq.n	8003d60 <HAL_TIMEx_MasterConfigSynchronization+0x50>
 8003d48:	f504 6480 	add.w	r4, r4, #1024	@ 0x400
 8003d4c:	42a3      	cmp	r3, r4
 8003d4e:	d007      	beq.n	8003d60 <HAL_TIMEx_MasterConfigSynchronization+0x50>
 8003d50:	f504 6480 	add.w	r4, r4, #1024	@ 0x400
 8003d54:	42a3      	cmp	r3, r4
 8003d56:	d003      	beq.n	8003d60 <HAL_TIMEx_MasterConfigSynchronization+0x50>
 8003d58:	f504 349a 	add.w	r4, r4, #78848	@ 0x13400
 8003d5c:	42a3      	cmp	r3, r4
 8003d5e:	d104      	bne.n	8003d6a <HAL_TIMEx_MasterConfigSynchronization+0x5a>
 8003d60:	6849      	ldr	r1, [r1, #4]
 8003d62:	f020 0080 	bic.w	r0, r0, #128	@ 0x80
 8003d66:	4301      	orrs	r1, r0
 8003d68:	6099      	str	r1, [r3, #8]
 8003d6a:	2301      	movs	r3, #1
 8003d6c:	2000      	movs	r0, #0
 8003d6e:	f882 303d 	strb.w	r3, [r2, #61]	@ 0x3d
 8003d72:	f882 003c 	strb.w	r0, [r2, #60]	@ 0x3c
 8003d76:	bd30      	pop	{r4, r5, pc}
 8003d78:	40010000 	.word	0x40010000

08003d7c <HAL_TIMEx_CommutCallback>:
 8003d7c:	4770      	bx	lr

08003d7e <HAL_TIMEx_BreakCallback>:
 8003d7e:	4770      	bx	lr

08003d80 <UART_EndRxTransfer>:
 8003d80:	6802      	ldr	r2, [r0, #0]
 8003d82:	f102 030c 	add.w	r3, r2, #12
 8003d86:	e853 3f00 	ldrex	r3, [r3]
 8003d8a:	f423 7390 	bic.w	r3, r3, #288	@ 0x120
 8003d8e:	320c      	adds	r2, #12
 8003d90:	e842 3100 	strex	r1, r3, [r2]
 8003d94:	6802      	ldr	r2, [r0, #0]
 8003d96:	2900      	cmp	r1, #0
 8003d98:	d1f2      	bne.n	8003d80 <UART_EndRxTransfer>
 8003d9a:	f102 0314 	add.w	r3, r2, #20
 8003d9e:	e853 3f00 	ldrex	r3, [r3]
 8003da2:	f023 0301 	bic.w	r3, r3, #1
 8003da6:	f102 0c14 	add.w	ip, r2, #20
 8003daa:	e84c 3100 	strex	r1, r3, [ip]
 8003dae:	2900      	cmp	r1, #0
 8003db0:	d1f3      	bne.n	8003d9a <UART_EndRxTransfer+0x1a>
 8003db2:	6b03      	ldr	r3, [r0, #48]	@ 0x30
 8003db4:	2b01      	cmp	r3, #1
 8003db6:	d10b      	bne.n	8003dd0 <UART_EndRxTransfer+0x50>
 8003db8:	f102 030c 	add.w	r3, r2, #12
 8003dbc:	e853 3f00 	ldrex	r3, [r3]
 8003dc0:	f023 0310 	bic.w	r3, r3, #16
 8003dc4:	f102 0c0c 	add.w	ip, r2, #12
 8003dc8:	e84c 3100 	strex	r1, r3, [ip]
 8003dcc:	2900      	cmp	r1, #0
 8003dce:	d1f3      	bne.n	8003db8 <UART_EndRxTransfer+0x38>
 8003dd0:	2320      	movs	r3, #32
 8003dd2:	f880 3042 	strb.w	r3, [r0, #66]	@ 0x42
 8003dd6:	2300      	movs	r3, #0
 8003dd8:	6303      	str	r3, [r0, #48]	@ 0x30
 8003dda:	4770      	bx	lr

08003ddc <UART_SetConfig>:
 8003ddc:	6802      	ldr	r2, [r0, #0]
 8003dde:	68c1      	ldr	r1, [r0, #12]
 8003de0:	b538      	push	{r3, r4, r5, lr}
 8003de2:	6913      	ldr	r3, [r2, #16]
 8003de4:	f423 5340 	bic.w	r3, r3, #12288	@ 0x3000
 8003de8:	430b      	orrs	r3, r1
 8003dea:	6113      	str	r3, [r2, #16]
 8003dec:	4605      	mov	r5, r0
 8003dee:	6883      	ldr	r3, [r0, #8]
 8003df0:	6900      	ldr	r0, [r0, #16]
 8003df2:	68d1      	ldr	r1, [r2, #12]
 8003df4:	4303      	orrs	r3, r0
 8003df6:	6968      	ldr	r0, [r5, #20]
 8003df8:	4303      	orrs	r3, r0
 8003dfa:	69e8      	ldr	r0, [r5, #28]
 8003dfc:	f421 4116 	bic.w	r1, r1, #38400	@ 0x9600
 8003e00:	f021 010c 	bic.w	r1, r1, #12
 8003e04:	4303      	orrs	r3, r0
 8003e06:	430b      	orrs	r3, r1
 8003e08:	60d3      	str	r3, [r2, #12]
 8003e0a:	6953      	ldr	r3, [r2, #20]
 8003e0c:	69a9      	ldr	r1, [r5, #24]
 8003e0e:	f423 7340 	bic.w	r3, r3, #768	@ 0x300
 8003e12:	430b      	orrs	r3, r1
 8003e14:	6153      	str	r3, [r2, #20]
 8003e16:	4b1f      	ldr	r3, [pc, #124]	@ (8003e94 <UART_SetConfig+0xb8>)
 8003e18:	429a      	cmp	r2, r3
 8003e1a:	d003      	beq.n	8003e24 <UART_SetConfig+0x48>
 8003e1c:	f503 6380 	add.w	r3, r3, #1024	@ 0x400
 8003e20:	429a      	cmp	r2, r3
 8003e22:	d124      	bne.n	8003e6e <UART_SetConfig+0x92>
 8003e24:	f7ff f9fe 	bl	8003224 <HAL_RCC_GetPCLK2Freq>
 8003e28:	69ea      	ldr	r2, [r5, #28]
 8003e2a:	2119      	movs	r1, #25
 8003e2c:	f5b2 4f00 	cmp.w	r2, #32768	@ 0x8000
 8003e30:	e9d5 4300 	ldrd	r4, r3, [r5]
 8003e34:	fba0 0101 	umull	r0, r1, r0, r1
 8003e38:	d11c      	bne.n	8003e74 <UART_SetConfig+0x98>
 8003e3a:	18da      	adds	r2, r3, r3
 8003e3c:	f04f 0500 	mov.w	r5, #0
 8003e40:	eb45 0305 	adc.w	r3, r5, r5
 8003e44:	f7fc f9cc 	bl	80001e0 <__aeabi_uldivmod>
 8003e48:	2264      	movs	r2, #100	@ 0x64
 8003e4a:	fbb0 f1f2 	udiv	r1, r0, r2
 8003e4e:	fb02 0311 	mls	r3, r2, r1, r0
 8003e52:	00db      	lsls	r3, r3, #3
 8003e54:	3332      	adds	r3, #50	@ 0x32
 8003e56:	fbb3 f3f2 	udiv	r3, r3, r2
 8003e5a:	f003 0207 	and.w	r2, r3, #7
 8003e5e:	005b      	lsls	r3, r3, #1
 8003e60:	eb02 1201 	add.w	r2, r2, r1, lsl #4
 8003e64:	f403 73f8 	and.w	r3, r3, #496	@ 0x1f0
 8003e68:	4413      	add	r3, r2
 8003e6a:	60a3      	str	r3, [r4, #8]
 8003e6c:	bd38      	pop	{r3, r4, r5, pc}
 8003e6e:	f7ff f9c9 	bl	8003204 <HAL_RCC_GetPCLK1Freq>
 8003e72:	e7d9      	b.n	8003e28 <UART_SetConfig+0x4c>
 8003e74:	009a      	lsls	r2, r3, #2
 8003e76:	0f9b      	lsrs	r3, r3, #30
 8003e78:	f7fc f9b2 	bl	80001e0 <__aeabi_uldivmod>
 8003e7c:	2264      	movs	r2, #100	@ 0x64
 8003e7e:	fbb0 f1f2 	udiv	r1, r0, r2
 8003e82:	fb02 0311 	mls	r3, r2, r1, r0
 8003e86:	011b      	lsls	r3, r3, #4
 8003e88:	3332      	adds	r3, #50	@ 0x32
 8003e8a:	fbb3 f3f2 	udiv	r3, r3, r2
 8003e8e:	eb03 1301 	add.w	r3, r3, r1, lsl #4
 8003e92:	e7ea      	b.n	8003e6a <UART_SetConfig+0x8e>
 8003e94:	40011000 	.word	0x40011000

08003e98 <UART_WaitOnFlagUntilTimeout.constprop.0>:
 8003e98:	b5f7      	push	{r0, r1, r2, r4, r5, r6, r7, lr}
 8003e9a:	4605      	mov	r5, r0
 8003e9c:	460c      	mov	r4, r1
 8003e9e:	4617      	mov	r7, r2
 8003ea0:	461e      	mov	r6, r3
 8003ea2:	682a      	ldr	r2, [r5, #0]
 8003ea4:	6813      	ldr	r3, [r2, #0]
 8003ea6:	ea34 0303 	bics.w	r3, r4, r3
 8003eaa:	d101      	bne.n	8003eb0 <UART_WaitOnFlagUntilTimeout.constprop.0+0x18>
 8003eac:	2000      	movs	r0, #0
 8003eae:	e021      	b.n	8003ef4 <UART_WaitOnFlagUntilTimeout.constprop.0+0x5c>
 8003eb0:	1c70      	adds	r0, r6, #1
 8003eb2:	d0f7      	beq.n	8003ea4 <UART_WaitOnFlagUntilTimeout.constprop.0+0xc>
 8003eb4:	f7fe f8ee 	bl	8002094 <HAL_GetTick>
 8003eb8:	1bc0      	subs	r0, r0, r7
 8003eba:	4286      	cmp	r6, r0
 8003ebc:	d31c      	bcc.n	8003ef8 <UART_WaitOnFlagUntilTimeout.constprop.0+0x60>
 8003ebe:	b1de      	cbz	r6, 8003ef8 <UART_WaitOnFlagUntilTimeout.constprop.0+0x60>
 8003ec0:	682b      	ldr	r3, [r5, #0]
 8003ec2:	68da      	ldr	r2, [r3, #12]
 8003ec4:	0751      	lsls	r1, r2, #29
 8003ec6:	d5ec      	bpl.n	8003ea2 <UART_WaitOnFlagUntilTimeout.constprop.0+0xa>
 8003ec8:	2c80      	cmp	r4, #128	@ 0x80
 8003eca:	d0ea      	beq.n	8003ea2 <UART_WaitOnFlagUntilTimeout.constprop.0+0xa>
 8003ecc:	2c40      	cmp	r4, #64	@ 0x40
 8003ece:	d0e8      	beq.n	8003ea2 <UART_WaitOnFlagUntilTimeout.constprop.0+0xa>
 8003ed0:	681a      	ldr	r2, [r3, #0]
 8003ed2:	0712      	lsls	r2, r2, #28
 8003ed4:	d5e5      	bpl.n	8003ea2 <UART_WaitOnFlagUntilTimeout.constprop.0+0xa>
 8003ed6:	2400      	movs	r4, #0
 8003ed8:	9401      	str	r4, [sp, #4]
 8003eda:	681a      	ldr	r2, [r3, #0]
 8003edc:	9201      	str	r2, [sp, #4]
 8003ede:	685b      	ldr	r3, [r3, #4]
 8003ee0:	9301      	str	r3, [sp, #4]
 8003ee2:	4628      	mov	r0, r5
 8003ee4:	9b01      	ldr	r3, [sp, #4]
 8003ee6:	f7ff ff4b 	bl	8003d80 <UART_EndRxTransfer>
 8003eea:	2308      	movs	r3, #8
 8003eec:	646b      	str	r3, [r5, #68]	@ 0x44
 8003eee:	f885 4040 	strb.w	r4, [r5, #64]	@ 0x40
 8003ef2:	2001      	movs	r0, #1
 8003ef4:	b003      	add	sp, #12
 8003ef6:	bdf0      	pop	{r4, r5, r6, r7, pc}
 8003ef8:	2003      	movs	r0, #3
 8003efa:	e7fb      	b.n	8003ef4 <UART_WaitOnFlagUntilTimeout.constprop.0+0x5c>

08003efc <HAL_UART_Init>:
 8003efc:	b510      	push	{r4, lr}
 8003efe:	4604      	mov	r4, r0
 8003f00:	b348      	cbz	r0, 8003f56 <HAL_UART_Init+0x5a>
 8003f02:	f890 3041 	ldrb.w	r3, [r0, #65]	@ 0x41
 8003f06:	f003 02ff 	and.w	r2, r3, #255	@ 0xff
 8003f0a:	b91b      	cbnz	r3, 8003f14 <HAL_UART_Init+0x18>
 8003f0c:	f880 2040 	strb.w	r2, [r0, #64]	@ 0x40
 8003f10:	f7fd fbc8 	bl	80016a4 <HAL_UART_MspInit>
 8003f14:	6822      	ldr	r2, [r4, #0]
 8003f16:	2324      	movs	r3, #36	@ 0x24
 8003f18:	f884 3041 	strb.w	r3, [r4, #65]	@ 0x41
 8003f1c:	68d3      	ldr	r3, [r2, #12]
 8003f1e:	f423 5300 	bic.w	r3, r3, #8192	@ 0x2000
 8003f22:	60d3      	str	r3, [r2, #12]
 8003f24:	4620      	mov	r0, r4
 8003f26:	f7ff ff59 	bl	8003ddc <UART_SetConfig>
 8003f2a:	6823      	ldr	r3, [r4, #0]
 8003f2c:	691a      	ldr	r2, [r3, #16]
 8003f2e:	f422 4290 	bic.w	r2, r2, #18432	@ 0x4800
 8003f32:	611a      	str	r2, [r3, #16]
 8003f34:	695a      	ldr	r2, [r3, #20]
 8003f36:	f022 022a 	bic.w	r2, r2, #42	@ 0x2a
 8003f3a:	615a      	str	r2, [r3, #20]
 8003f3c:	68da      	ldr	r2, [r3, #12]
 8003f3e:	f442 5200 	orr.w	r2, r2, #8192	@ 0x2000
 8003f42:	60da      	str	r2, [r3, #12]
 8003f44:	2000      	movs	r0, #0
 8003f46:	2320      	movs	r3, #32
 8003f48:	6460      	str	r0, [r4, #68]	@ 0x44
 8003f4a:	f884 3041 	strb.w	r3, [r4, #65]	@ 0x41
 8003f4e:	f884 3042 	strb.w	r3, [r4, #66]	@ 0x42
 8003f52:	6360      	str	r0, [r4, #52]	@ 0x34
 8003f54:	bd10      	pop	{r4, pc}
 8003f56:	2001      	movs	r0, #1
 8003f58:	e7fc      	b.n	8003f54 <HAL_UART_Init+0x58>

08003f5a <HAL_UART_Transmit>:
 8003f5a:	e92d 43f8 	stmdb	sp!, {r3, r4, r5, r6, r7, r8, r9, lr}
 8003f5e:	4698      	mov	r8, r3
 8003f60:	f890 3041 	ldrb.w	r3, [r0, #65]	@ 0x41
 8003f64:	2b20      	cmp	r3, #32
 8003f66:	4604      	mov	r4, r0
 8003f68:	460e      	mov	r6, r1
 8003f6a:	4617      	mov	r7, r2
 8003f6c:	d13f      	bne.n	8003fee <HAL_UART_Transmit+0x94>
 8003f6e:	2900      	cmp	r1, #0
 8003f70:	d03f      	beq.n	8003ff2 <HAL_UART_Transmit+0x98>
 8003f72:	2a00      	cmp	r2, #0
 8003f74:	d03d      	beq.n	8003ff2 <HAL_UART_Transmit+0x98>
 8003f76:	2321      	movs	r3, #33	@ 0x21
 8003f78:	2500      	movs	r5, #0
 8003f7a:	6445      	str	r5, [r0, #68]	@ 0x44
 8003f7c:	f880 3041 	strb.w	r3, [r0, #65]	@ 0x41
 8003f80:	f7fe f888 	bl	8002094 <HAL_GetTick>
 8003f84:	68a3      	ldr	r3, [r4, #8]
 8003f86:	84a7      	strh	r7, [r4, #36]	@ 0x24
 8003f88:	f5b3 5f80 	cmp.w	r3, #4096	@ 0x1000
 8003f8c:	4681      	mov	r9, r0
 8003f8e:	84e7      	strh	r7, [r4, #38]	@ 0x26
 8003f90:	d103      	bne.n	8003f9a <HAL_UART_Transmit+0x40>
 8003f92:	6923      	ldr	r3, [r4, #16]
 8003f94:	b90b      	cbnz	r3, 8003f9a <HAL_UART_Transmit+0x40>
 8003f96:	4635      	mov	r5, r6
 8003f98:	461e      	mov	r6, r3
 8003f9a:	8ce3      	ldrh	r3, [r4, #38]	@ 0x26
 8003f9c:	b29b      	uxth	r3, r3
 8003f9e:	b953      	cbnz	r3, 8003fb6 <HAL_UART_Transmit+0x5c>
 8003fa0:	4643      	mov	r3, r8
 8003fa2:	464a      	mov	r2, r9
 8003fa4:	2140      	movs	r1, #64	@ 0x40
 8003fa6:	4620      	mov	r0, r4
 8003fa8:	f7ff ff76 	bl	8003e98 <UART_WaitOnFlagUntilTimeout.constprop.0>
 8003fac:	2320      	movs	r3, #32
 8003fae:	b950      	cbnz	r0, 8003fc6 <HAL_UART_Transmit+0x6c>
 8003fb0:	f884 3041 	strb.w	r3, [r4, #65]	@ 0x41
 8003fb4:	e00a      	b.n	8003fcc <HAL_UART_Transmit+0x72>
 8003fb6:	4643      	mov	r3, r8
 8003fb8:	464a      	mov	r2, r9
 8003fba:	2180      	movs	r1, #128	@ 0x80
 8003fbc:	4620      	mov	r0, r4
 8003fbe:	f7ff ff6b 	bl	8003e98 <UART_WaitOnFlagUntilTimeout.constprop.0>
 8003fc2:	b128      	cbz	r0, 8003fd0 <HAL_UART_Transmit+0x76>
 8003fc4:	2320      	movs	r3, #32
 8003fc6:	f884 3041 	strb.w	r3, [r4, #65]	@ 0x41
 8003fca:	2003      	movs	r0, #3
 8003fcc:	e8bd 83f8 	ldmia.w	sp!, {r3, r4, r5, r6, r7, r8, r9, pc}
 8003fd0:	6822      	ldr	r2, [r4, #0]
 8003fd2:	b94e      	cbnz	r6, 8003fe8 <HAL_UART_Transmit+0x8e>
 8003fd4:	f835 3b02 	ldrh.w	r3, [r5], #2
 8003fd8:	f3c3 0308 	ubfx	r3, r3, #0, #9
 8003fdc:	6053      	str	r3, [r2, #4]
 8003fde:	8ce1      	ldrh	r1, [r4, #38]	@ 0x26
 8003fe0:	3901      	subs	r1, #1
 8003fe2:	b289      	uxth	r1, r1
 8003fe4:	84e1      	strh	r1, [r4, #38]	@ 0x26
 8003fe6:	e7d8      	b.n	8003f9a <HAL_UART_Transmit+0x40>
 8003fe8:	f816 3b01 	ldrb.w	r3, [r6], #1
 8003fec:	e7f6      	b.n	8003fdc <HAL_UART_Transmit+0x82>
 8003fee:	2002      	movs	r0, #2
 8003ff0:	e7ec      	b.n	8003fcc <HAL_UART_Transmit+0x72>
 8003ff2:	2001      	movs	r0, #1
 8003ff4:	e7ea      	b.n	8003fcc <HAL_UART_Transmit+0x72>

08003ff6 <HAL_UART_TxCpltCallback>:
 8003ff6:	4770      	bx	lr

08003ff8 <HAL_UART_RxHalfCpltCallback>:
 8003ff8:	4770      	bx	lr

08003ffa <HAL_UART_ErrorCallback>:
 8003ffa:	4770      	bx	lr

08003ffc <UART_DMAError>:
 8003ffc:	b508      	push	{r3, lr}
 8003ffe:	6b80      	ldr	r0, [r0, #56]	@ 0x38
 8004000:	6803      	ldr	r3, [r0, #0]
 8004002:	695a      	ldr	r2, [r3, #20]
 8004004:	f890 1041 	ldrb.w	r1, [r0, #65]	@ 0x41
 8004008:	2921      	cmp	r1, #33	@ 0x21
 800400a:	d112      	bne.n	8004032 <UART_DMAError+0x36>
 800400c:	0612      	lsls	r2, r2, #24
 800400e:	d510      	bpl.n	8004032 <UART_DMAError+0x36>
 8004010:	2200      	movs	r2, #0
 8004012:	84c2      	strh	r2, [r0, #38]	@ 0x26
 8004014:	f103 020c 	add.w	r2, r3, #12
 8004018:	e852 2f00 	ldrex	r2, [r2]
 800401c:	f022 02c0 	bic.w	r2, r2, #192	@ 0xc0
 8004020:	f103 0c0c 	add.w	ip, r3, #12
 8004024:	e84c 2100 	strex	r1, r2, [ip]
 8004028:	2900      	cmp	r1, #0
 800402a:	d1f3      	bne.n	8004014 <UART_DMAError+0x18>
 800402c:	2220      	movs	r2, #32
 800402e:	f880 2041 	strb.w	r2, [r0, #65]	@ 0x41
 8004032:	695b      	ldr	r3, [r3, #20]
 8004034:	f890 2042 	ldrb.w	r2, [r0, #66]	@ 0x42
 8004038:	2a22      	cmp	r2, #34	@ 0x22
 800403a:	d105      	bne.n	8004048 <UART_DMAError+0x4c>
 800403c:	065b      	lsls	r3, r3, #25
 800403e:	d503      	bpl.n	8004048 <UART_DMAError+0x4c>
 8004040:	2300      	movs	r3, #0
 8004042:	85c3      	strh	r3, [r0, #46]	@ 0x2e
 8004044:	f7ff fe9c 	bl	8003d80 <UART_EndRxTransfer>
 8004048:	6c43      	ldr	r3, [r0, #68]	@ 0x44
 800404a:	f043 0310 	orr.w	r3, r3, #16
 800404e:	6443      	str	r3, [r0, #68]	@ 0x44
 8004050:	f7ff ffd3 	bl	8003ffa <HAL_UART_ErrorCallback>
 8004054:	bd08      	pop	{r3, pc}

08004056 <UART_DMAAbortOnError>:
 8004056:	b508      	push	{r3, lr}
 8004058:	6b80      	ldr	r0, [r0, #56]	@ 0x38
 800405a:	2300      	movs	r3, #0
 800405c:	85c3      	strh	r3, [r0, #46]	@ 0x2e
 800405e:	84c3      	strh	r3, [r0, #38]	@ 0x26
 8004060:	f7ff ffcb 	bl	8003ffa <HAL_UART_ErrorCallback>
 8004064:	bd08      	pop	{r3, pc}

08004066 <HAL_UARTEx_RxEventCallback>:
 8004066:	4770      	bx	lr

08004068 <UART_DMARxHalfCplt>:
 8004068:	6b80      	ldr	r0, [r0, #56]	@ 0x38
 800406a:	b508      	push	{r3, lr}
 800406c:	2301      	movs	r3, #1
 800406e:	6343      	str	r3, [r0, #52]	@ 0x34
 8004070:	6b03      	ldr	r3, [r0, #48]	@ 0x30
 8004072:	2b01      	cmp	r3, #1
 8004074:	d104      	bne.n	8004080 <UART_DMARxHalfCplt+0x18>
 8004076:	8d81      	ldrh	r1, [r0, #44]	@ 0x2c
 8004078:	0849      	lsrs	r1, r1, #1
 800407a:	f7ff fff4 	bl	8004066 <HAL_UARTEx_RxEventCallback>
 800407e:	bd08      	pop	{r3, pc}
 8004080:	f7ff ffba 	bl	8003ff8 <HAL_UART_RxHalfCpltCallback>
 8004084:	e7fb      	b.n	800407e <UART_DMARxHalfCplt+0x16>

08004086 <UART_DMAReceiveCplt>:
 8004086:	b508      	push	{r3, lr}
 8004088:	4603      	mov	r3, r0
 800408a:	6b80      	ldr	r0, [r0, #56]	@ 0x38
 800408c:	681b      	ldr	r3, [r3, #0]
 800408e:	681b      	ldr	r3, [r3, #0]
 8004090:	f413 7380 	ands.w	r3, r3, #256	@ 0x100
 8004094:	d137      	bne.n	8004106 <UART_DMAReceiveCplt+0x80>
 8004096:	85c3      	strh	r3, [r0, #46]	@ 0x2e
 8004098:	6802      	ldr	r2, [r0, #0]
 800409a:	f102 030c 	add.w	r3, r2, #12
 800409e:	e853 3f00 	ldrex	r3, [r3]
 80040a2:	f423 7380 	bic.w	r3, r3, #256	@ 0x100
 80040a6:	320c      	adds	r2, #12
 80040a8:	e842 3100 	strex	r1, r3, [r2]
 80040ac:	6803      	ldr	r3, [r0, #0]
 80040ae:	2900      	cmp	r1, #0
 80040b0:	d1f2      	bne.n	8004098 <UART_DMAReceiveCplt+0x12>
 80040b2:	f103 0214 	add.w	r2, r3, #20
 80040b6:	e852 2f00 	ldrex	r2, [r2]
 80040ba:	f022 0201 	bic.w	r2, r2, #1
 80040be:	f103 0c14 	add.w	ip, r3, #20
 80040c2:	e84c 2100 	strex	r1, r2, [ip]
 80040c6:	2900      	cmp	r1, #0
 80040c8:	d1f3      	bne.n	80040b2 <UART_DMAReceiveCplt+0x2c>
 80040ca:	f103 0214 	add.w	r2, r3, #20
 80040ce:	e852 2f00 	ldrex	r2, [r2]
 80040d2:	f022 0240 	bic.w	r2, r2, #64	@ 0x40
 80040d6:	f103 0c14 	add.w	ip, r3, #20
 80040da:	e84c 2100 	strex	r1, r2, [ip]
 80040de:	2900      	cmp	r1, #0
 80040e0:	d1f3      	bne.n	80040ca <UART_DMAReceiveCplt+0x44>
 80040e2:	2220      	movs	r2, #32
 80040e4:	f880 2042 	strb.w	r2, [r0, #66]	@ 0x42
 80040e8:	6b02      	ldr	r2, [r0, #48]	@ 0x30
 80040ea:	2a01      	cmp	r2, #1
 80040ec:	d10b      	bne.n	8004106 <UART_DMAReceiveCplt+0x80>
 80040ee:	f103 020c 	add.w	r2, r3, #12
 80040f2:	e852 2f00 	ldrex	r2, [r2]
 80040f6:	f022 0210 	bic.w	r2, r2, #16
 80040fa:	f103 0c0c 	add.w	ip, r3, #12
 80040fe:	e84c 2100 	strex	r1, r2, [ip]
 8004102:	2900      	cmp	r1, #0
 8004104:	d1f3      	bne.n	80040ee <UART_DMAReceiveCplt+0x68>
 8004106:	2300      	movs	r3, #0
 8004108:	6343      	str	r3, [r0, #52]	@ 0x34
 800410a:	6b03      	ldr	r3, [r0, #48]	@ 0x30
 800410c:	2b01      	cmp	r3, #1
 800410e:	d103      	bne.n	8004118 <UART_DMAReceiveCplt+0x92>
 8004110:	8d81      	ldrh	r1, [r0, #44]	@ 0x2c
 8004112:	f7ff ffa8 	bl	8004066 <HAL_UARTEx_RxEventCallback>
 8004116:	bd08      	pop	{r3, pc}
 8004118:	f7fc fd0c 	bl	8000b34 <HAL_UART_RxCpltCallback>
 800411c:	e7fb      	b.n	8004116 <UART_DMAReceiveCplt+0x90>

0800411e <UART_Receive_IT.isra.0>:
 800411e:	f890 3042 	ldrb.w	r3, [r0, #66]	@ 0x42
 8004122:	2b22      	cmp	r3, #34	@ 0x22
 8004124:	b507      	push	{r0, r1, r2, lr}
 8004126:	d142      	bne.n	80041ae <UART_Receive_IT.isra.0+0x90>
 8004128:	6881      	ldr	r1, [r0, #8]
 800412a:	6802      	ldr	r2, [r0, #0]
 800412c:	6a83      	ldr	r3, [r0, #40]	@ 0x28
 800412e:	f5b1 5f80 	cmp.w	r1, #4096	@ 0x1000
 8004132:	d13f      	bne.n	80041b4 <UART_Receive_IT.isra.0+0x96>
 8004134:	6901      	ldr	r1, [r0, #16]
 8004136:	2900      	cmp	r1, #0
 8004138:	d13f      	bne.n	80041ba <UART_Receive_IT.isra.0+0x9c>
 800413a:	6852      	ldr	r2, [r2, #4]
 800413c:	f3c2 0208 	ubfx	r2, r2, #0, #9
 8004140:	f823 2b02 	strh.w	r2, [r3], #2
 8004144:	6283      	str	r3, [r0, #40]	@ 0x28
 8004146:	8dc3      	ldrh	r3, [r0, #46]	@ 0x2e
 8004148:	3b01      	subs	r3, #1
 800414a:	b29b      	uxth	r3, r3
 800414c:	85c3      	strh	r3, [r0, #46]	@ 0x2e
 800414e:	2b00      	cmp	r3, #0
 8004150:	d12d      	bne.n	80041ae <UART_Receive_IT.isra.0+0x90>
 8004152:	6802      	ldr	r2, [r0, #0]
 8004154:	68d1      	ldr	r1, [r2, #12]
 8004156:	f021 0120 	bic.w	r1, r1, #32
 800415a:	60d1      	str	r1, [r2, #12]
 800415c:	68d1      	ldr	r1, [r2, #12]
 800415e:	f421 7180 	bic.w	r1, r1, #256	@ 0x100
 8004162:	60d1      	str	r1, [r2, #12]
 8004164:	6951      	ldr	r1, [r2, #20]
 8004166:	f021 0101 	bic.w	r1, r1, #1
 800416a:	6151      	str	r1, [r2, #20]
 800416c:	2220      	movs	r2, #32
 800416e:	f880 2042 	strb.w	r2, [r0, #66]	@ 0x42
 8004172:	6343      	str	r3, [r0, #52]	@ 0x34
 8004174:	6b02      	ldr	r2, [r0, #48]	@ 0x30
 8004176:	2a01      	cmp	r2, #1
 8004178:	6802      	ldr	r2, [r0, #0]
 800417a:	d128      	bne.n	80041ce <UART_Receive_IT.isra.0+0xb0>
 800417c:	6303      	str	r3, [r0, #48]	@ 0x30
 800417e:	f102 030c 	add.w	r3, r2, #12
 8004182:	e853 3f00 	ldrex	r3, [r3]
 8004186:	f023 0310 	bic.w	r3, r3, #16
 800418a:	f102 0c0c 	add.w	ip, r2, #12
 800418e:	e84c 3100 	strex	r1, r3, [ip]
 8004192:	2900      	cmp	r1, #0
 8004194:	d1f3      	bne.n	800417e <UART_Receive_IT.isra.0+0x60>
 8004196:	6813      	ldr	r3, [r2, #0]
 8004198:	06db      	lsls	r3, r3, #27
 800419a:	d505      	bpl.n	80041a8 <UART_Receive_IT.isra.0+0x8a>
 800419c:	9101      	str	r1, [sp, #4]
 800419e:	6813      	ldr	r3, [r2, #0]
 80041a0:	9301      	str	r3, [sp, #4]
 80041a2:	6853      	ldr	r3, [r2, #4]
 80041a4:	9301      	str	r3, [sp, #4]
 80041a6:	9b01      	ldr	r3, [sp, #4]
 80041a8:	8d81      	ldrh	r1, [r0, #44]	@ 0x2c
 80041aa:	f7ff ff5c 	bl	8004066 <HAL_UARTEx_RxEventCallback>
 80041ae:	b003      	add	sp, #12
 80041b0:	f85d fb04 	ldr.w	pc, [sp], #4
 80041b4:	b939      	cbnz	r1, 80041c6 <UART_Receive_IT.isra.0+0xa8>
 80041b6:	6901      	ldr	r1, [r0, #16]
 80041b8:	b929      	cbnz	r1, 80041c6 <UART_Receive_IT.isra.0+0xa8>
 80041ba:	6852      	ldr	r2, [r2, #4]
 80041bc:	b2d2      	uxtb	r2, r2
 80041be:	701a      	strb	r2, [r3, #0]
 80041c0:	6a83      	ldr	r3, [r0, #40]	@ 0x28
 80041c2:	3301      	adds	r3, #1
 80041c4:	e7be      	b.n	8004144 <UART_Receive_IT.isra.0+0x26>
 80041c6:	6852      	ldr	r2, [r2, #4]
 80041c8:	f002 027f 	and.w	r2, r2, #127	@ 0x7f
 80041cc:	e7f7      	b.n	80041be <UART_Receive_IT.isra.0+0xa0>
 80041ce:	f7fc fcb1 	bl	8000b34 <HAL_UART_RxCpltCallback>
 80041d2:	e7ec      	b.n	80041ae <UART_Receive_IT.isra.0+0x90>

080041d4 <HAL_UART_IRQHandler>:
 80041d4:	6803      	ldr	r3, [r0, #0]
 80041d6:	681a      	ldr	r2, [r3, #0]
 80041d8:	b573      	push	{r0, r1, r4, r5, r6, lr}
 80041da:	0716      	lsls	r6, r2, #28
 80041dc:	68d9      	ldr	r1, [r3, #12]
 80041de:	695d      	ldr	r5, [r3, #20]
 80041e0:	4604      	mov	r4, r0
 80041e2:	d108      	bne.n	80041f6 <HAL_UART_IRQHandler+0x22>
 80041e4:	0696      	lsls	r6, r2, #26
 80041e6:	d568      	bpl.n	80042ba <HAL_UART_IRQHandler+0xe6>
 80041e8:	068d      	lsls	r5, r1, #26
 80041ea:	d566      	bpl.n	80042ba <HAL_UART_IRQHandler+0xe6>
 80041ec:	b002      	add	sp, #8
 80041ee:	e8bd 4070 	ldmia.w	sp!, {r4, r5, r6, lr}
 80041f2:	f7ff bf94 	b.w	800411e <UART_Receive_IT.isra.0>
 80041f6:	f005 0001 	and.w	r0, r5, #1
 80041fa:	f401 7590 	and.w	r5, r1, #288	@ 0x120
 80041fe:	4305      	orrs	r5, r0
 8004200:	d05b      	beq.n	80042ba <HAL_UART_IRQHandler+0xe6>
 8004202:	07d6      	lsls	r6, r2, #31
 8004204:	d505      	bpl.n	8004212 <HAL_UART_IRQHandler+0x3e>
 8004206:	05cd      	lsls	r5, r1, #23
 8004208:	bf42      	ittt	mi
 800420a:	6c63      	ldrmi	r3, [r4, #68]	@ 0x44
 800420c:	f043 0301 	orrmi.w	r3, r3, #1
 8004210:	6463      	strmi	r3, [r4, #68]	@ 0x44
 8004212:	0753      	lsls	r3, r2, #29
 8004214:	d504      	bpl.n	8004220 <HAL_UART_IRQHandler+0x4c>
 8004216:	b118      	cbz	r0, 8004220 <HAL_UART_IRQHandler+0x4c>
 8004218:	6c63      	ldr	r3, [r4, #68]	@ 0x44
 800421a:	f043 0302 	orr.w	r3, r3, #2
 800421e:	6463      	str	r3, [r4, #68]	@ 0x44
 8004220:	0796      	lsls	r6, r2, #30
 8004222:	d504      	bpl.n	800422e <HAL_UART_IRQHandler+0x5a>
 8004224:	b118      	cbz	r0, 800422e <HAL_UART_IRQHandler+0x5a>
 8004226:	6c63      	ldr	r3, [r4, #68]	@ 0x44
 8004228:	f043 0304 	orr.w	r3, r3, #4
 800422c:	6463      	str	r3, [r4, #68]	@ 0x44
 800422e:	0715      	lsls	r5, r2, #28
 8004230:	d507      	bpl.n	8004242 <HAL_UART_IRQHandler+0x6e>
 8004232:	f001 0320 	and.w	r3, r1, #32
 8004236:	4303      	orrs	r3, r0
 8004238:	bf1e      	ittt	ne
 800423a:	6c63      	ldrne	r3, [r4, #68]	@ 0x44
 800423c:	f043 0308 	orrne.w	r3, r3, #8
 8004240:	6463      	strne	r3, [r4, #68]	@ 0x44
 8004242:	6c63      	ldr	r3, [r4, #68]	@ 0x44
 8004244:	2b00      	cmp	r3, #0
 8004246:	d032      	beq.n	80042ae <HAL_UART_IRQHandler+0xda>
 8004248:	0692      	lsls	r2, r2, #26
 800424a:	d504      	bpl.n	8004256 <HAL_UART_IRQHandler+0x82>
 800424c:	068b      	lsls	r3, r1, #26
 800424e:	d502      	bpl.n	8004256 <HAL_UART_IRQHandler+0x82>
 8004250:	4620      	mov	r0, r4
 8004252:	f7ff ff64 	bl	800411e <UART_Receive_IT.isra.0>
 8004256:	6826      	ldr	r6, [r4, #0]
 8004258:	6973      	ldr	r3, [r6, #20]
 800425a:	6c62      	ldr	r2, [r4, #68]	@ 0x44
 800425c:	f003 0340 	and.w	r3, r3, #64	@ 0x40
 8004260:	f002 0208 	and.w	r2, r2, #8
 8004264:	ea53 0502 	orrs.w	r5, r3, r2
 8004268:	4620      	mov	r0, r4
 800426a:	d022      	beq.n	80042b2 <HAL_UART_IRQHandler+0xde>
 800426c:	f7ff fd88 	bl	8003d80 <UART_EndRxTransfer>
 8004270:	6973      	ldr	r3, [r6, #20]
 8004272:	065e      	lsls	r6, r3, #25
 8004274:	d518      	bpl.n	80042a8 <HAL_UART_IRQHandler+0xd4>
 8004276:	6822      	ldr	r2, [r4, #0]
 8004278:	f102 0314 	add.w	r3, r2, #20
 800427c:	e853 3f00 	ldrex	r3, [r3]
 8004280:	f023 0340 	bic.w	r3, r3, #64	@ 0x40
 8004284:	3214      	adds	r2, #20
 8004286:	e842 3100 	strex	r1, r3, [r2]
 800428a:	2900      	cmp	r1, #0
 800428c:	d1f3      	bne.n	8004276 <HAL_UART_IRQHandler+0xa2>
 800428e:	6be0      	ldr	r0, [r4, #60]	@ 0x3c
 8004290:	b150      	cbz	r0, 80042a8 <HAL_UART_IRQHandler+0xd4>
 8004292:	4b74      	ldr	r3, [pc, #464]	@ (8004464 <HAL_UART_IRQHandler+0x290>)
 8004294:	6503      	str	r3, [r0, #80]	@ 0x50
 8004296:	f7fe f874 	bl	8002382 <HAL_DMA_Abort_IT>
 800429a:	b140      	cbz	r0, 80042ae <HAL_UART_IRQHandler+0xda>
 800429c:	6be0      	ldr	r0, [r4, #60]	@ 0x3c
 800429e:	6d03      	ldr	r3, [r0, #80]	@ 0x50
 80042a0:	b002      	add	sp, #8
 80042a2:	e8bd 4070 	ldmia.w	sp!, {r4, r5, r6, lr}
 80042a6:	4718      	bx	r3
 80042a8:	4620      	mov	r0, r4
 80042aa:	f7ff fea6 	bl	8003ffa <HAL_UART_ErrorCallback>
 80042ae:	b002      	add	sp, #8
 80042b0:	bd70      	pop	{r4, r5, r6, pc}
 80042b2:	f7ff fea2 	bl	8003ffa <HAL_UART_ErrorCallback>
 80042b6:	6465      	str	r5, [r4, #68]	@ 0x44
 80042b8:	e7f9      	b.n	80042ae <HAL_UART_IRQHandler+0xda>
 80042ba:	6b20      	ldr	r0, [r4, #48]	@ 0x30
 80042bc:	2801      	cmp	r0, #1
 80042be:	f040 8095 	bne.w	80043ec <HAL_UART_IRQHandler+0x218>
 80042c2:	06d5      	lsls	r5, r2, #27
 80042c4:	f140 8092 	bpl.w	80043ec <HAL_UART_IRQHandler+0x218>
 80042c8:	06c8      	lsls	r0, r1, #27
 80042ca:	f140 808f 	bpl.w	80043ec <HAL_UART_IRQHandler+0x218>
 80042ce:	2200      	movs	r2, #0
 80042d0:	9201      	str	r2, [sp, #4]
 80042d2:	681a      	ldr	r2, [r3, #0]
 80042d4:	9201      	str	r2, [sp, #4]
 80042d6:	685a      	ldr	r2, [r3, #4]
 80042d8:	9201      	str	r2, [sp, #4]
 80042da:	9a01      	ldr	r2, [sp, #4]
 80042dc:	695a      	ldr	r2, [r3, #20]
 80042de:	0652      	lsls	r2, r2, #25
 80042e0:	d54e      	bpl.n	8004380 <HAL_UART_IRQHandler+0x1ac>
 80042e2:	6be1      	ldr	r1, [r4, #60]	@ 0x3c
 80042e4:	680a      	ldr	r2, [r1, #0]
 80042e6:	6852      	ldr	r2, [r2, #4]
 80042e8:	b292      	uxth	r2, r2
 80042ea:	2a00      	cmp	r2, #0
 80042ec:	d0df      	beq.n	80042ae <HAL_UART_IRQHandler+0xda>
 80042ee:	8da0      	ldrh	r0, [r4, #44]	@ 0x2c
 80042f0:	4290      	cmp	r0, r2
 80042f2:	d9dc      	bls.n	80042ae <HAL_UART_IRQHandler+0xda>
 80042f4:	85e2      	strh	r2, [r4, #46]	@ 0x2e
 80042f6:	69ca      	ldr	r2, [r1, #28]
 80042f8:	f5b2 7f80 	cmp.w	r2, #256	@ 0x100
 80042fc:	d036      	beq.n	800436c <HAL_UART_IRQHandler+0x198>
 80042fe:	f103 020c 	add.w	r2, r3, #12
 8004302:	e852 2f00 	ldrex	r2, [r2]
 8004306:	f422 7280 	bic.w	r2, r2, #256	@ 0x100
 800430a:	f103 000c 	add.w	r0, r3, #12
 800430e:	e840 2100 	strex	r1, r2, [r0]
 8004312:	2900      	cmp	r1, #0
 8004314:	d1f3      	bne.n	80042fe <HAL_UART_IRQHandler+0x12a>
 8004316:	f103 0214 	add.w	r2, r3, #20
 800431a:	e852 2f00 	ldrex	r2, [r2]
 800431e:	f022 0201 	bic.w	r2, r2, #1
 8004322:	f103 0014 	add.w	r0, r3, #20
 8004326:	e840 2100 	strex	r1, r2, [r0]
 800432a:	2900      	cmp	r1, #0
 800432c:	d1f3      	bne.n	8004316 <HAL_UART_IRQHandler+0x142>
 800432e:	f103 0214 	add.w	r2, r3, #20
 8004332:	e852 2f00 	ldrex	r2, [r2]
 8004336:	f022 0240 	bic.w	r2, r2, #64	@ 0x40
 800433a:	f103 0014 	add.w	r0, r3, #20
 800433e:	e840 2100 	strex	r1, r2, [r0]
 8004342:	2900      	cmp	r1, #0
 8004344:	d1f3      	bne.n	800432e <HAL_UART_IRQHandler+0x15a>
 8004346:	2220      	movs	r2, #32
 8004348:	f884 2042 	strb.w	r2, [r4, #66]	@ 0x42
 800434c:	6321      	str	r1, [r4, #48]	@ 0x30
 800434e:	f103 020c 	add.w	r2, r3, #12
 8004352:	e852 2f00 	ldrex	r2, [r2]
 8004356:	f022 0210 	bic.w	r2, r2, #16
 800435a:	f103 000c 	add.w	r0, r3, #12
 800435e:	e840 2100 	strex	r1, r2, [r0]
 8004362:	2900      	cmp	r1, #0
 8004364:	d1f3      	bne.n	800434e <HAL_UART_IRQHandler+0x17a>
 8004366:	6be0      	ldr	r0, [r4, #60]	@ 0x3c
 8004368:	f7fd ffcd 	bl	8002306 <HAL_DMA_Abort>
 800436c:	2302      	movs	r3, #2
 800436e:	6363      	str	r3, [r4, #52]	@ 0x34
 8004370:	8de3      	ldrh	r3, [r4, #46]	@ 0x2e
 8004372:	8da1      	ldrh	r1, [r4, #44]	@ 0x2c
 8004374:	1ac9      	subs	r1, r1, r3
 8004376:	b289      	uxth	r1, r1
 8004378:	4620      	mov	r0, r4
 800437a:	f7ff fe74 	bl	8004066 <HAL_UARTEx_RxEventCallback>
 800437e:	e796      	b.n	80042ae <HAL_UART_IRQHandler+0xda>
 8004380:	8de2      	ldrh	r2, [r4, #46]	@ 0x2e
 8004382:	8de0      	ldrh	r0, [r4, #46]	@ 0x2e
 8004384:	8da1      	ldrh	r1, [r4, #44]	@ 0x2c
 8004386:	b280      	uxth	r0, r0
 8004388:	b292      	uxth	r2, r2
 800438a:	2800      	cmp	r0, #0
 800438c:	d08f      	beq.n	80042ae <HAL_UART_IRQHandler+0xda>
 800438e:	1a89      	subs	r1, r1, r2
 8004390:	b289      	uxth	r1, r1
 8004392:	2900      	cmp	r1, #0
 8004394:	d08b      	beq.n	80042ae <HAL_UART_IRQHandler+0xda>
 8004396:	f103 020c 	add.w	r2, r3, #12
 800439a:	e852 2f00 	ldrex	r2, [r2]
 800439e:	f422 7290 	bic.w	r2, r2, #288	@ 0x120
 80043a2:	f103 050c 	add.w	r5, r3, #12
 80043a6:	e845 2000 	strex	r0, r2, [r5]
 80043aa:	2800      	cmp	r0, #0
 80043ac:	d1f3      	bne.n	8004396 <HAL_UART_IRQHandler+0x1c2>
 80043ae:	f103 0214 	add.w	r2, r3, #20
 80043b2:	e852 2f00 	ldrex	r2, [r2]
 80043b6:	f022 0201 	bic.w	r2, r2, #1
 80043ba:	f103 0514 	add.w	r5, r3, #20
 80043be:	e845 2000 	strex	r0, r2, [r5]
 80043c2:	2800      	cmp	r0, #0
 80043c4:	d1f3      	bne.n	80043ae <HAL_UART_IRQHandler+0x1da>
 80043c6:	2220      	movs	r2, #32
 80043c8:	f884 2042 	strb.w	r2, [r4, #66]	@ 0x42
 80043cc:	6320      	str	r0, [r4, #48]	@ 0x30
 80043ce:	f103 020c 	add.w	r2, r3, #12
 80043d2:	e852 2f00 	ldrex	r2, [r2]
 80043d6:	f022 0210 	bic.w	r2, r2, #16
 80043da:	f103 050c 	add.w	r5, r3, #12
 80043de:	e845 2000 	strex	r0, r2, [r5]
 80043e2:	2800      	cmp	r0, #0
 80043e4:	d1f3      	bne.n	80043ce <HAL_UART_IRQHandler+0x1fa>
 80043e6:	2302      	movs	r3, #2
 80043e8:	6363      	str	r3, [r4, #52]	@ 0x34
 80043ea:	e7c5      	b.n	8004378 <HAL_UART_IRQHandler+0x1a4>
 80043ec:	0616      	lsls	r6, r2, #24
 80043ee:	d528      	bpl.n	8004442 <HAL_UART_IRQHandler+0x26e>
 80043f0:	060d      	lsls	r5, r1, #24
 80043f2:	d526      	bpl.n	8004442 <HAL_UART_IRQHandler+0x26e>
 80043f4:	f894 2041 	ldrb.w	r2, [r4, #65]	@ 0x41
 80043f8:	2a21      	cmp	r2, #33	@ 0x21
 80043fa:	f47f af58 	bne.w	80042ae <HAL_UART_IRQHandler+0xda>
 80043fe:	68a1      	ldr	r1, [r4, #8]
 8004400:	6a22      	ldr	r2, [r4, #32]
 8004402:	f5b1 5f80 	cmp.w	r1, #4096	@ 0x1000
 8004406:	d117      	bne.n	8004438 <HAL_UART_IRQHandler+0x264>
 8004408:	6921      	ldr	r1, [r4, #16]
 800440a:	b9a9      	cbnz	r1, 8004438 <HAL_UART_IRQHandler+0x264>
 800440c:	f832 1b02 	ldrh.w	r1, [r2], #2
 8004410:	f3c1 0108 	ubfx	r1, r1, #0, #9
 8004414:	6059      	str	r1, [r3, #4]
 8004416:	6222      	str	r2, [r4, #32]
 8004418:	8ce2      	ldrh	r2, [r4, #38]	@ 0x26
 800441a:	3a01      	subs	r2, #1
 800441c:	b292      	uxth	r2, r2
 800441e:	84e2      	strh	r2, [r4, #38]	@ 0x26
 8004420:	2a00      	cmp	r2, #0
 8004422:	f47f af44 	bne.w	80042ae <HAL_UART_IRQHandler+0xda>
 8004426:	68da      	ldr	r2, [r3, #12]
 8004428:	f022 0280 	bic.w	r2, r2, #128	@ 0x80
 800442c:	60da      	str	r2, [r3, #12]
 800442e:	68da      	ldr	r2, [r3, #12]
 8004430:	f042 0240 	orr.w	r2, r2, #64	@ 0x40
 8004434:	60da      	str	r2, [r3, #12]
 8004436:	e73a      	b.n	80042ae <HAL_UART_IRQHandler+0xda>
 8004438:	1c51      	adds	r1, r2, #1
 800443a:	6221      	str	r1, [r4, #32]
 800443c:	7812      	ldrb	r2, [r2, #0]
 800443e:	605a      	str	r2, [r3, #4]
 8004440:	e7ea      	b.n	8004418 <HAL_UART_IRQHandler+0x244>
 8004442:	0650      	lsls	r0, r2, #25
 8004444:	f57f af33 	bpl.w	80042ae <HAL_UART_IRQHandler+0xda>
 8004448:	064a      	lsls	r2, r1, #25
 800444a:	f57f af30 	bpl.w	80042ae <HAL_UART_IRQHandler+0xda>
 800444e:	68da      	ldr	r2, [r3, #12]
 8004450:	f022 0240 	bic.w	r2, r2, #64	@ 0x40
 8004454:	60da      	str	r2, [r3, #12]
 8004456:	2320      	movs	r3, #32
 8004458:	f884 3041 	strb.w	r3, [r4, #65]	@ 0x41
 800445c:	4620      	mov	r0, r4
 800445e:	f7ff fdca 	bl	8003ff6 <HAL_UART_TxCpltCallback>
 8004462:	e724      	b.n	80042ae <HAL_UART_IRQHandler+0xda>
 8004464:	08004057 	.word	0x08004057

08004468 <UART_Start_Receive_DMA>:
 8004468:	b573      	push	{r0, r1, r4, r5, r6, lr}
 800446a:	4613      	mov	r3, r2
 800446c:	8582      	strh	r2, [r0, #44]	@ 0x2c
 800446e:	2500      	movs	r5, #0
 8004470:	2222      	movs	r2, #34	@ 0x22
 8004472:	4604      	mov	r4, r0
 8004474:	6281      	str	r1, [r0, #40]	@ 0x28
 8004476:	6445      	str	r5, [r0, #68]	@ 0x44
 8004478:	f880 2042 	strb.w	r2, [r0, #66]	@ 0x42
 800447c:	6bc0      	ldr	r0, [r0, #60]	@ 0x3c
 800447e:	4a1d      	ldr	r2, [pc, #116]	@ (80044f4 <UART_Start_Receive_DMA+0x8c>)
 8004480:	63c2      	str	r2, [r0, #60]	@ 0x3c
 8004482:	4a1d      	ldr	r2, [pc, #116]	@ (80044f8 <UART_Start_Receive_DMA+0x90>)
 8004484:	6826      	ldr	r6, [r4, #0]
 8004486:	6402      	str	r2, [r0, #64]	@ 0x40
 8004488:	4a1c      	ldr	r2, [pc, #112]	@ (80044fc <UART_Start_Receive_DMA+0x94>)
 800448a:	e9c0 2513 	strd	r2, r5, [r0, #76]	@ 0x4c
 800448e:	460a      	mov	r2, r1
 8004490:	1d31      	adds	r1, r6, #4
 8004492:	f7fd feff 	bl	8002294 <HAL_DMA_Start_IT>
 8004496:	6823      	ldr	r3, [r4, #0]
 8004498:	9501      	str	r5, [sp, #4]
 800449a:	681a      	ldr	r2, [r3, #0]
 800449c:	9201      	str	r2, [sp, #4]
 800449e:	685a      	ldr	r2, [r3, #4]
 80044a0:	9201      	str	r2, [sp, #4]
 80044a2:	9a01      	ldr	r2, [sp, #4]
 80044a4:	6922      	ldr	r2, [r4, #16]
 80044a6:	b15a      	cbz	r2, 80044c0 <UART_Start_Receive_DMA+0x58>
 80044a8:	f103 020c 	add.w	r2, r3, #12
 80044ac:	e852 2f00 	ldrex	r2, [r2]
 80044b0:	f442 7280 	orr.w	r2, r2, #256	@ 0x100
 80044b4:	f103 000c 	add.w	r0, r3, #12
 80044b8:	e840 2100 	strex	r1, r2, [r0]
 80044bc:	2900      	cmp	r1, #0
 80044be:	d1f3      	bne.n	80044a8 <UART_Start_Receive_DMA+0x40>
 80044c0:	f103 0214 	add.w	r2, r3, #20
 80044c4:	e852 2f00 	ldrex	r2, [r2]
 80044c8:	f042 0201 	orr.w	r2, r2, #1
 80044cc:	f103 0014 	add.w	r0, r3, #20
 80044d0:	e840 2100 	strex	r1, r2, [r0]
 80044d4:	2900      	cmp	r1, #0
 80044d6:	d1f3      	bne.n	80044c0 <UART_Start_Receive_DMA+0x58>
 80044d8:	f103 0214 	add.w	r2, r3, #20
 80044dc:	e852 2f00 	ldrex	r2, [r2]
 80044e0:	f042 0240 	orr.w	r2, r2, #64	@ 0x40
 80044e4:	f103 0114 	add.w	r1, r3, #20
 80044e8:	e841 2000 	strex	r0, r2, [r1]
 80044ec:	2800      	cmp	r0, #0
 80044ee:	d1f3      	bne.n	80044d8 <UART_Start_Receive_DMA+0x70>
 80044f0:	b002      	add	sp, #8
 80044f2:	bd70      	pop	{r4, r5, r6, pc}
 80044f4:	08004087 	.word	0x08004087
 80044f8:	08004069 	.word	0x08004069
 80044fc:	08003ffd 	.word	0x08003ffd

08004500 <HAL_UART_Receive_DMA>:
 8004500:	b470      	push	{r4, r5, r6}
 8004502:	f890 6042 	ldrb.w	r6, [r0, #66]	@ 0x42
 8004506:	2e20      	cmp	r6, #32
 8004508:	d106      	bne.n	8004518 <HAL_UART_Receive_DMA+0x18>
 800450a:	b141      	cbz	r1, 800451e <HAL_UART_Receive_DMA+0x1e>
 800450c:	b13a      	cbz	r2, 800451e <HAL_UART_Receive_DMA+0x1e>
 800450e:	2400      	movs	r4, #0
 8004510:	6304      	str	r4, [r0, #48]	@ 0x30
 8004512:	bc70      	pop	{r4, r5, r6}
 8004514:	f7ff bfa8 	b.w	8004468 <UART_Start_Receive_DMA>
 8004518:	2002      	movs	r0, #2
 800451a:	bc70      	pop	{r4, r5, r6}
 800451c:	4770      	bx	lr
 800451e:	2001      	movs	r0, #1
 8004520:	e7fb      	b.n	800451a <HAL_UART_Receive_DMA+0x1a>

08004522 <SysTick_Handler>:
 8004522:	b508      	push	{r3, lr}
 8004524:	f04f 23e0 	mov.w	r3, #3758153728	@ 0xe000e000
 8004528:	691b      	ldr	r3, [r3, #16]
 800452a:	f001 fc77 	bl	8005e1c <xTaskGetSchedulerState>
 800452e:	2801      	cmp	r0, #1
 8004530:	d003      	beq.n	800453a <SysTick_Handler+0x18>
 8004532:	e8bd 4008 	ldmia.w	sp!, {r3, lr}
 8004536:	f002 b835 	b.w	80065a4 <xPortSysTickHandler>
 800453a:	bd08      	pop	{r3, pc}

0800453c <osKernelInitialize>:
 800453c:	f3ef 8305 	mrs	r3, IPSR
 8004540:	b92b      	cbnz	r3, 800454e <osKernelInitialize+0x12>
 8004542:	4b06      	ldr	r3, [pc, #24]	@ (800455c <osKernelInitialize+0x20>)
 8004544:	6818      	ldr	r0, [r3, #0]
 8004546:	b928      	cbnz	r0, 8004554 <osKernelInitialize+0x18>
 8004548:	2201      	movs	r2, #1
 800454a:	601a      	str	r2, [r3, #0]
 800454c:	4770      	bx	lr
 800454e:	f06f 0005 	mvn.w	r0, #5
 8004552:	4770      	bx	lr
 8004554:	f04f 30ff 	mov.w	r0, #4294967295
 8004558:	4770      	bx	lr
 800455a:	bf00      	nop
 800455c:	20001aac 	.word	0x20001aac

08004560 <osKernelStart>:
 8004560:	b510      	push	{r4, lr}
 8004562:	f3ef 8405 	mrs	r4, IPSR
 8004566:	b95c      	cbnz	r4, 8004580 <osKernelStart+0x20>
 8004568:	4b08      	ldr	r3, [pc, #32]	@ (800458c <osKernelStart+0x2c>)
 800456a:	681a      	ldr	r2, [r3, #0]
 800456c:	2a01      	cmp	r2, #1
 800456e:	d10a      	bne.n	8004586 <osKernelStart+0x26>
 8004570:	4a07      	ldr	r2, [pc, #28]	@ (8004590 <osKernelStart+0x30>)
 8004572:	77d4      	strb	r4, [r2, #31]
 8004574:	2202      	movs	r2, #2
 8004576:	601a      	str	r2, [r3, #0]
 8004578:	f001 f948 	bl	800580c <vTaskStartScheduler>
 800457c:	4620      	mov	r0, r4
 800457e:	bd10      	pop	{r4, pc}
 8004580:	f06f 0005 	mvn.w	r0, #5
 8004584:	e7fb      	b.n	800457e <osKernelStart+0x1e>
 8004586:	f04f 30ff 	mov.w	r0, #4294967295
 800458a:	e7f8      	b.n	800457e <osKernelStart+0x1e>
 800458c:	20001aac 	.word	0x20001aac
 8004590:	e000ed00 	.word	0xe000ed00

08004594 <osThreadNew>:
 8004594:	b5f0      	push	{r4, r5, r6, r7, lr}
 8004596:	b087      	sub	sp, #28
 8004598:	4614      	mov	r4, r2
 800459a:	2200      	movs	r2, #0
 800459c:	460b      	mov	r3, r1
 800459e:	9205      	str	r2, [sp, #20]
 80045a0:	f3ef 8205 	mrs	r2, IPSR
 80045a4:	b9ca      	cbnz	r2, 80045da <osThreadNew+0x46>
 80045a6:	b1c0      	cbz	r0, 80045da <osThreadNew+0x46>
 80045a8:	b36c      	cbz	r4, 8004606 <osThreadNew+0x72>
 80045aa:	69a5      	ldr	r5, [r4, #24]
 80045ac:	2d00      	cmp	r5, #0
 80045ae:	bf08      	it	eq
 80045b0:	2518      	moveq	r5, #24
 80045b2:	1e69      	subs	r1, r5, #1
 80045b4:	2937      	cmp	r1, #55	@ 0x37
 80045b6:	46ac      	mov	ip, r5
 80045b8:	d82a      	bhi.n	8004610 <osThreadNew+0x7c>
 80045ba:	6861      	ldr	r1, [r4, #4]
 80045bc:	07c9      	lsls	r1, r1, #31
 80045be:	d427      	bmi.n	8004610 <osThreadNew+0x7c>
 80045c0:	6966      	ldr	r6, [r4, #20]
 80045c2:	b16e      	cbz	r6, 80045e0 <osThreadNew+0x4c>
 80045c4:	08b2      	lsrs	r2, r6, #2
 80045c6:	e9d4 7e02 	ldrd	r7, lr, [r4, #8]
 80045ca:	6821      	ldr	r1, [r4, #0]
 80045cc:	b157      	cbz	r7, 80045e4 <osThreadNew+0x50>
 80045ce:	f1be 0f63 	cmp.w	lr, #99	@ 0x63
 80045d2:	d902      	bls.n	80045da <osThreadNew+0x46>
 80045d4:	6924      	ldr	r4, [r4, #16]
 80045d6:	b104      	cbz	r4, 80045da <osThreadNew+0x46>
 80045d8:	b9e6      	cbnz	r6, 8004614 <osThreadNew+0x80>
 80045da:	9805      	ldr	r0, [sp, #20]
 80045dc:	b007      	add	sp, #28
 80045de:	bdf0      	pop	{r4, r5, r6, r7, pc}
 80045e0:	2280      	movs	r2, #128	@ 0x80
 80045e2:	e7f0      	b.n	80045c6 <osThreadNew+0x32>
 80045e4:	f1be 0f00 	cmp.w	lr, #0
 80045e8:	d1f7      	bne.n	80045da <osThreadNew+0x46>
 80045ea:	6924      	ldr	r4, [r4, #16]
 80045ec:	2c00      	cmp	r4, #0
 80045ee:	d1f4      	bne.n	80045da <osThreadNew+0x46>
 80045f0:	ac05      	add	r4, sp, #20
 80045f2:	e9cd c400 	strd	ip, r4, [sp]
 80045f6:	b292      	uxth	r2, r2
 80045f8:	f001 f83f 	bl	800567a <xTaskCreate>
 80045fc:	2801      	cmp	r0, #1
 80045fe:	bf1c      	itt	ne
 8004600:	2300      	movne	r3, #0
 8004602:	9305      	strne	r3, [sp, #20]
 8004604:	e7e9      	b.n	80045da <osThreadNew+0x46>
 8004606:	4621      	mov	r1, r4
 8004608:	f04f 0c18 	mov.w	ip, #24
 800460c:	2280      	movs	r2, #128	@ 0x80
 800460e:	e7ef      	b.n	80045f0 <osThreadNew+0x5c>
 8004610:	4610      	mov	r0, r2
 8004612:	e7e3      	b.n	80045dc <osThreadNew+0x48>
 8004614:	e9cd 4701 	strd	r4, r7, [sp, #4]
 8004618:	9500      	str	r5, [sp, #0]
 800461a:	f000 fff6 	bl	800560a <xTaskCreateStatic>
 800461e:	9005      	str	r0, [sp, #20]
 8004620:	e7db      	b.n	80045da <osThreadNew+0x46>

08004622 <osThreadTerminate>:
 8004622:	b538      	push	{r3, r4, r5, lr}
 8004624:	4605      	mov	r5, r0
 8004626:	f3ef 8405 	mrs	r4, IPSR
 800462a:	b94c      	cbnz	r4, 8004640 <osThreadTerminate+0x1e>
 800462c:	b158      	cbz	r0, 8004646 <osThreadTerminate+0x24>
 800462e:	f001 f8ab 	bl	8005788 <eTaskGetState>
 8004632:	2804      	cmp	r0, #4
 8004634:	d00a      	beq.n	800464c <osThreadTerminate+0x2a>
 8004636:	4628      	mov	r0, r5
 8004638:	f001 f84e 	bl	80056d8 <vTaskDelete>
 800463c:	4620      	mov	r0, r4
 800463e:	bd38      	pop	{r3, r4, r5, pc}
 8004640:	f06f 0005 	mvn.w	r0, #5
 8004644:	e7fb      	b.n	800463e <osThreadTerminate+0x1c>
 8004646:	f06f 0003 	mvn.w	r0, #3
 800464a:	e7f8      	b.n	800463e <osThreadTerminate+0x1c>
 800464c:	f06f 0002 	mvn.w	r0, #2
 8004650:	e7f5      	b.n	800463e <osThreadTerminate+0x1c>

08004652 <osDelay>:
 8004652:	b508      	push	{r3, lr}
 8004654:	f3ef 8205 	mrs	r2, IPSR
 8004658:	b922      	cbnz	r2, 8004664 <osDelay+0x12>
 800465a:	b108      	cbz	r0, 8004660 <osDelay+0xe>
 800465c:	f001 fa36 	bl	8005acc <vTaskDelay>
 8004660:	2000      	movs	r0, #0
 8004662:	bd08      	pop	{r3, pc}
 8004664:	f06f 0005 	mvn.w	r0, #5
 8004668:	e7fb      	b.n	8004662 <osDelay+0x10>

0800466a <osEventFlagsNew>:
 800466a:	f3ef 8205 	mrs	r2, IPSR
 800466e:	b942      	cbnz	r2, 8004682 <osEventFlagsNew+0x18>
 8004670:	b148      	cbz	r0, 8004686 <osEventFlagsNew+0x1c>
 8004672:	e9d0 0302 	ldrd	r0, r3, [r0, #8]
 8004676:	b118      	cbz	r0, 8004680 <osEventFlagsNew+0x16>
 8004678:	2b1f      	cmp	r3, #31
 800467a:	d902      	bls.n	8004682 <osEventFlagsNew+0x18>
 800467c:	f000 b8e8 	b.w	8004850 <xEventGroupCreateStatic>
 8004680:	b10b      	cbz	r3, 8004686 <osEventFlagsNew+0x1c>
 8004682:	2000      	movs	r0, #0
 8004684:	4770      	bx	lr
 8004686:	f000 b907 	b.w	8004898 <xEventGroupCreate>

0800468a <osEventFlagsSet>:
 800468a:	b513      	push	{r0, r1, r4, lr}
 800468c:	460c      	mov	r4, r1
 800468e:	b1f8      	cbz	r0, 80046d0 <osEventFlagsSet+0x46>
 8004690:	f1b1 7f80 	cmp.w	r1, #16777216	@ 0x1000000
 8004694:	d21c      	bcs.n	80046d0 <osEventFlagsSet+0x46>
 8004696:	f3ef 8305 	mrs	r3, IPSR
 800469a:	b1a3      	cbz	r3, 80046c6 <osEventFlagsSet+0x3c>
 800469c:	2300      	movs	r3, #0
 800469e:	aa01      	add	r2, sp, #4
 80046a0:	9301      	str	r3, [sp, #4]
 80046a2:	f000 f9d5 	bl	8004a50 <xEventGroupSetBitsFromISR>
 80046a6:	b1b0      	cbz	r0, 80046d6 <osEventFlagsSet+0x4c>
 80046a8:	9b01      	ldr	r3, [sp, #4]
 80046aa:	b14b      	cbz	r3, 80046c0 <osEventFlagsSet+0x36>
 80046ac:	f04f 23e0 	mov.w	r3, #3758153728	@ 0xe000e000
 80046b0:	f04f 5280 	mov.w	r2, #268435456	@ 0x10000000
 80046b4:	f8c3 2d04 	str.w	r2, [r3, #3332]	@ 0xd04
 80046b8:	f3bf 8f4f 	dsb	sy
 80046bc:	f3bf 8f6f 	isb	sy
 80046c0:	4620      	mov	r0, r4
 80046c2:	b002      	add	sp, #8
 80046c4:	bd10      	pop	{r4, pc}
 80046c6:	b002      	add	sp, #8
 80046c8:	e8bd 4010 	ldmia.w	sp!, {r4, lr}
 80046cc:	f000 b97a 	b.w	80049c4 <xEventGroupSetBits>
 80046d0:	f06f 0403 	mvn.w	r4, #3
 80046d4:	e7f4      	b.n	80046c0 <osEventFlagsSet+0x36>
 80046d6:	f06f 0402 	mvn.w	r4, #2
 80046da:	e7f1      	b.n	80046c0 <osEventFlagsSet+0x36>

080046dc <osEventFlagsWait>:
 80046dc:	b573      	push	{r0, r1, r4, r5, r6, lr}
 80046de:	460c      	mov	r4, r1
 80046e0:	461d      	mov	r5, r3
 80046e2:	b1f8      	cbz	r0, 8004724 <osEventFlagsWait+0x48>
 80046e4:	f1b1 7f80 	cmp.w	r1, #16777216	@ 0x1000000
 80046e8:	d21c      	bcs.n	8004724 <osEventFlagsWait+0x48>
 80046ea:	f3ef 8305 	mrs	r3, IPSR
 80046ee:	b9e3      	cbnz	r3, 800472a <osEventFlagsWait+0x4e>
 80046f0:	f002 0601 	and.w	r6, r2, #1
 80046f4:	f082 0202 	eor.w	r2, r2, #2
 80046f8:	f3c2 0240 	ubfx	r2, r2, #1, #1
 80046fc:	9500      	str	r5, [sp, #0]
 80046fe:	4633      	mov	r3, r6
 8004700:	f000 f8d8 	bl	80048b4 <xEventGroupWaitBits>
 8004704:	ea04 0200 	and.w	r2, r4, r0
 8004708:	b14e      	cbz	r6, 800471e <osEventFlagsWait+0x42>
 800470a:	42a2      	cmp	r2, r4
 800470c:	d005      	beq.n	800471a <osEventFlagsWait+0x3e>
 800470e:	2d00      	cmp	r5, #0
 8004710:	bf14      	ite	ne
 8004712:	f06f 0001 	mvnne.w	r0, #1
 8004716:	f06f 0002 	mvneq.w	r0, #2
 800471a:	b002      	add	sp, #8
 800471c:	bd70      	pop	{r4, r5, r6, pc}
 800471e:	2a00      	cmp	r2, #0
 8004720:	d0f5      	beq.n	800470e <osEventFlagsWait+0x32>
 8004722:	e7fa      	b.n	800471a <osEventFlagsWait+0x3e>
 8004724:	f06f 0003 	mvn.w	r0, #3
 8004728:	e7f7      	b.n	800471a <osEventFlagsWait+0x3e>
 800472a:	f06f 0005 	mvn.w	r0, #5
 800472e:	e7f4      	b.n	800471a <osEventFlagsWait+0x3e>

08004730 <osMutexNew>:
 8004730:	b570      	push	{r4, r5, r6, lr}
 8004732:	4605      	mov	r5, r0
 8004734:	f3ef 8605 	mrs	r6, IPSR
 8004738:	b116      	cbz	r6, 8004740 <osMutexNew+0x10>
 800473a:	2400      	movs	r4, #0
 800473c:	4620      	mov	r0, r4
 800473e:	bd70      	pop	{r4, r5, r6, pc}
 8004740:	b110      	cbz	r0, 8004748 <osMutexNew+0x18>
 8004742:	6846      	ldr	r6, [r0, #4]
 8004744:	0733      	lsls	r3, r6, #28
 8004746:	d4f8      	bmi.n	800473a <osMutexNew+0xa>
 8004748:	f006 0601 	and.w	r6, r6, #1
 800474c:	b17d      	cbz	r5, 800476e <osMutexNew+0x3e>
 800474e:	e9d5 1302 	ldrd	r1, r3, [r5, #8]
 8004752:	b151      	cbz	r1, 800476a <osMutexNew+0x3a>
 8004754:	2b4f      	cmp	r3, #79	@ 0x4f
 8004756:	d9f0      	bls.n	800473a <osMutexNew+0xa>
 8004758:	b1de      	cbz	r6, 8004792 <osMutexNew+0x62>
 800475a:	2004      	movs	r0, #4
 800475c:	f000 fb8b 	bl	8004e76 <xQueueCreateMutexStatic>
 8004760:	4604      	mov	r4, r0
 8004762:	2800      	cmp	r0, #0
 8004764:	d0e9      	beq.n	800473a <osMutexNew+0xa>
 8004766:	682d      	ldr	r5, [r5, #0]
 8004768:	e00a      	b.n	8004780 <osMutexNew+0x50>
 800476a:	2b00      	cmp	r3, #0
 800476c:	d1e5      	bne.n	800473a <osMutexNew+0xa>
 800476e:	b196      	cbz	r6, 8004796 <osMutexNew+0x66>
 8004770:	2004      	movs	r0, #4
 8004772:	f000 fbb4 	bl	8004ede <xQueueCreateMutex>
 8004776:	4604      	mov	r4, r0
 8004778:	2800      	cmp	r0, #0
 800477a:	d0de      	beq.n	800473a <osMutexNew+0xa>
 800477c:	2d00      	cmp	r5, #0
 800477e:	d1f2      	bne.n	8004766 <osMutexNew+0x36>
 8004780:	4629      	mov	r1, r5
 8004782:	4620      	mov	r0, r4
 8004784:	f000 fda2 	bl	80052cc <vQueueAddToRegistry>
 8004788:	2e00      	cmp	r6, #0
 800478a:	d0d7      	beq.n	800473c <osMutexNew+0xc>
 800478c:	f044 0401 	orr.w	r4, r4, #1
 8004790:	e7d4      	b.n	800473c <osMutexNew+0xc>
 8004792:	2001      	movs	r0, #1
 8004794:	e7e2      	b.n	800475c <osMutexNew+0x2c>
 8004796:	2001      	movs	r0, #1
 8004798:	e7eb      	b.n	8004772 <osMutexNew+0x42>

0800479a <osMutexAcquire>:
 800479a:	b538      	push	{r3, r4, r5, lr}
 800479c:	4603      	mov	r3, r0
 800479e:	460c      	mov	r4, r1
 80047a0:	f020 0001 	bic.w	r0, r0, #1
 80047a4:	f003 0201 	and.w	r2, r3, #1
 80047a8:	f3ef 8505 	mrs	r5, IPSR
 80047ac:	b995      	cbnz	r5, 80047d4 <osMutexAcquire+0x3a>
 80047ae:	2b01      	cmp	r3, #1
 80047b0:	d913      	bls.n	80047da <osMutexAcquire+0x40>
 80047b2:	b162      	cbz	r2, 80047ce <osMutexAcquire+0x34>
 80047b4:	f000 fd68 	bl	8005288 <xQueueTakeMutexRecursive>
 80047b8:	2801      	cmp	r0, #1
 80047ba:	d101      	bne.n	80047c0 <osMutexAcquire+0x26>
 80047bc:	2000      	movs	r0, #0
 80047be:	bd38      	pop	{r3, r4, r5, pc}
 80047c0:	2c00      	cmp	r4, #0
 80047c2:	bf14      	ite	ne
 80047c4:	f06f 0001 	mvnne.w	r0, #1
 80047c8:	f06f 0002 	mvneq.w	r0, #2
 80047cc:	e7f7      	b.n	80047be <osMutexAcquire+0x24>
 80047ce:	f000 fc9e 	bl	800510e <xQueueSemaphoreTake>
 80047d2:	e7f1      	b.n	80047b8 <osMutexAcquire+0x1e>
 80047d4:	f06f 0005 	mvn.w	r0, #5
 80047d8:	e7f1      	b.n	80047be <osMutexAcquire+0x24>
 80047da:	f06f 0003 	mvn.w	r0, #3
 80047de:	e7ee      	b.n	80047be <osMutexAcquire+0x24>

080047e0 <osMutexRelease>:
 80047e0:	4602      	mov	r2, r0
 80047e2:	b508      	push	{r3, lr}
 80047e4:	f020 0001 	bic.w	r0, r0, #1
 80047e8:	f002 0301 	and.w	r3, r2, #1
 80047ec:	f3ef 8105 	mrs	r1, IPSR
 80047f0:	b979      	cbnz	r1, 8004812 <osMutexRelease+0x32>
 80047f2:	2a01      	cmp	r2, #1
 80047f4:	d910      	bls.n	8004818 <osMutexRelease+0x38>
 80047f6:	b13b      	cbz	r3, 8004808 <osMutexRelease+0x28>
 80047f8:	f000 fb52 	bl	8004ea0 <xQueueGiveMutexRecursive>
 80047fc:	2801      	cmp	r0, #1
 80047fe:	bf0c      	ite	eq
 8004800:	2000      	moveq	r0, #0
 8004802:	f06f 0002 	mvnne.w	r0, #2
 8004806:	bd08      	pop	{r3, pc}
 8004808:	461a      	mov	r2, r3
 800480a:	4619      	mov	r1, r3
 800480c:	f000 fa81 	bl	8004d12 <xQueueGenericSend>
 8004810:	e7f4      	b.n	80047fc <osMutexRelease+0x1c>
 8004812:	f06f 0005 	mvn.w	r0, #5
 8004816:	e7f6      	b.n	8004806 <osMutexRelease+0x26>
 8004818:	f06f 0003 	mvn.w	r0, #3
 800481c:	e7f3      	b.n	8004806 <osMutexRelease+0x26>
	...

08004820 <vApplicationGetIdleTaskMemory>:
 8004820:	4b03      	ldr	r3, [pc, #12]	@ (8004830 <vApplicationGetIdleTaskMemory+0x10>)
 8004822:	6003      	str	r3, [r0, #0]
 8004824:	4b03      	ldr	r3, [pc, #12]	@ (8004834 <vApplicationGetIdleTaskMemory+0x14>)
 8004826:	600b      	str	r3, [r1, #0]
 8004828:	2380      	movs	r3, #128	@ 0x80
 800482a:	6013      	str	r3, [r2, #0]
 800482c:	4770      	bx	lr
 800482e:	bf00      	nop
 8004830:	20001a48 	.word	0x20001a48
 8004834:	20001848 	.word	0x20001848

08004838 <vApplicationGetTimerTaskMemory>:
 8004838:	4b03      	ldr	r3, [pc, #12]	@ (8004848 <vApplicationGetTimerTaskMemory+0x10>)
 800483a:	6003      	str	r3, [r0, #0]
 800483c:	4b03      	ldr	r3, [pc, #12]	@ (800484c <vApplicationGetTimerTaskMemory+0x14>)
 800483e:	600b      	str	r3, [r1, #0]
 8004840:	f44f 7380 	mov.w	r3, #256	@ 0x100
 8004844:	6013      	str	r3, [r2, #0]
 8004846:	4770      	bx	lr
 8004848:	200017e4 	.word	0x200017e4
 800484c:	200013e4 	.word	0x200013e4

08004850 <xEventGroupCreateStatic>:
 8004850:	b513      	push	{r0, r1, r4, lr}
 8004852:	4604      	mov	r4, r0
 8004854:	b940      	cbnz	r0, 8004868 <xEventGroupCreateStatic+0x18>
 8004856:	f04f 0350 	mov.w	r3, #80	@ 0x50
 800485a:	f383 8811 	msr	BASEPRI, r3
 800485e:	f3bf 8f6f 	isb	sy
 8004862:	f3bf 8f4f 	dsb	sy
 8004866:	e7fe      	b.n	8004866 <xEventGroupCreateStatic+0x16>
 8004868:	2320      	movs	r3, #32
 800486a:	9301      	str	r3, [sp, #4]
 800486c:	9b01      	ldr	r3, [sp, #4]
 800486e:	2b20      	cmp	r3, #32
 8004870:	d008      	beq.n	8004884 <xEventGroupCreateStatic+0x34>
 8004872:	f04f 0350 	mov.w	r3, #80	@ 0x50
 8004876:	f383 8811 	msr	BASEPRI, r3
 800487a:	f3bf 8f6f 	isb	sy
 800487e:	f3bf 8f4f 	dsb	sy
 8004882:	e7fe      	b.n	8004882 <xEventGroupCreateStatic+0x32>
 8004884:	2300      	movs	r3, #0
 8004886:	f840 3b04 	str.w	r3, [r0], #4
 800488a:	f000 f8e9 	bl	8004a60 <vListInitialise>
 800488e:	2301      	movs	r3, #1
 8004890:	4620      	mov	r0, r4
 8004892:	7723      	strb	r3, [r4, #28]
 8004894:	b002      	add	sp, #8
 8004896:	bd10      	pop	{r4, pc}

08004898 <xEventGroupCreate>:
 8004898:	b538      	push	{r3, r4, r5, lr}
 800489a:	2020      	movs	r0, #32
 800489c:	f001 ff80 	bl	80067a0 <pvPortMalloc>
 80048a0:	4604      	mov	r4, r0
 80048a2:	b128      	cbz	r0, 80048b0 <xEventGroupCreate+0x18>
 80048a4:	2500      	movs	r5, #0
 80048a6:	f840 5b04 	str.w	r5, [r0], #4
 80048aa:	f000 f8d9 	bl	8004a60 <vListInitialise>
 80048ae:	7725      	strb	r5, [r4, #28]
 80048b0:	4620      	mov	r0, r4
 80048b2:	bd38      	pop	{r3, r4, r5, pc}

080048b4 <xEventGroupWaitBits>:
 80048b4:	e92d 43f8 	stmdb	sp!, {r3, r4, r5, r6, r7, r8, r9, lr}
 80048b8:	f8dd 9020 	ldr.w	r9, [sp, #32]
 80048bc:	460d      	mov	r5, r1
 80048be:	4617      	mov	r7, r2
 80048c0:	4698      	mov	r8, r3
 80048c2:	4606      	mov	r6, r0
 80048c4:	b940      	cbnz	r0, 80048d8 <xEventGroupWaitBits+0x24>
 80048c6:	f04f 0350 	mov.w	r3, #80	@ 0x50
 80048ca:	f383 8811 	msr	BASEPRI, r3
 80048ce:	f3bf 8f6f 	isb	sy
 80048d2:	f3bf 8f4f 	dsb	sy
 80048d6:	e7fe      	b.n	80048d6 <xEventGroupWaitBits+0x22>
 80048d8:	f1b1 7f80 	cmp.w	r1, #16777216	@ 0x1000000
 80048dc:	d308      	bcc.n	80048f0 <xEventGroupWaitBits+0x3c>
 80048de:	f04f 0350 	mov.w	r3, #80	@ 0x50
 80048e2:	f383 8811 	msr	BASEPRI, r3
 80048e6:	f3bf 8f6f 	isb	sy
 80048ea:	f3bf 8f4f 	dsb	sy
 80048ee:	e7fe      	b.n	80048ee <xEventGroupWaitBits+0x3a>
 80048f0:	b941      	cbnz	r1, 8004904 <xEventGroupWaitBits+0x50>
 80048f2:	f04f 0350 	mov.w	r3, #80	@ 0x50
 80048f6:	f383 8811 	msr	BASEPRI, r3
 80048fa:	f3bf 8f6f 	isb	sy
 80048fe:	f3bf 8f4f 	dsb	sy
 8004902:	e7fe      	b.n	8004902 <xEventGroupWaitBits+0x4e>
 8004904:	f001 fa8a 	bl	8005e1c <xTaskGetSchedulerState>
 8004908:	b958      	cbnz	r0, 8004922 <xEventGroupWaitBits+0x6e>
 800490a:	f1b9 0f00 	cmp.w	r9, #0
 800490e:	d008      	beq.n	8004922 <xEventGroupWaitBits+0x6e>
 8004910:	f04f 0350 	mov.w	r3, #80	@ 0x50
 8004914:	f383 8811 	msr	BASEPRI, r3
 8004918:	f3bf 8f6f 	isb	sy
 800491c:	f3bf 8f4f 	dsb	sy
 8004920:	e7fe      	b.n	8004920 <xEventGroupWaitBits+0x6c>
 8004922:	f000 ffbb 	bl	800589c <vTaskSuspendAll>
 8004926:	6834      	ldr	r4, [r6, #0]
 8004928:	ea05 0304 	and.w	r3, r5, r4
 800492c:	f1b8 0f00 	cmp.w	r8, #0
 8004930:	d113      	bne.n	800495a <xEventGroupWaitBits+0xa6>
 8004932:	b9a3      	cbnz	r3, 800495e <xEventGroupWaitBits+0xaa>
 8004934:	f1b9 0f00 	cmp.w	r9, #0
 8004938:	d015      	beq.n	8004966 <xEventGroupWaitBits+0xb2>
 800493a:	1e39      	subs	r1, r7, #0
 800493c:	bf18      	it	ne
 800493e:	2101      	movne	r1, #1
 8004940:	0609      	lsls	r1, r1, #24
 8004942:	f1b8 0f00 	cmp.w	r8, #0
 8004946:	d001      	beq.n	800494c <xEventGroupWaitBits+0x98>
 8004948:	f041 6180 	orr.w	r1, r1, #67108864	@ 0x4000000
 800494c:	464a      	mov	r2, r9
 800494e:	4329      	orrs	r1, r5
 8004950:	1d30      	adds	r0, r6, #4
 8004952:	f001 f943 	bl	8005bdc <vTaskPlaceOnUnorderedEventList>
 8004956:	2400      	movs	r4, #0
 8004958:	e007      	b.n	800496a <xEventGroupWaitBits+0xb6>
 800495a:	429d      	cmp	r5, r3
 800495c:	d1ea      	bne.n	8004934 <xEventGroupWaitBits+0x80>
 800495e:	b117      	cbz	r7, 8004966 <xEventGroupWaitBits+0xb2>
 8004960:	ea24 0305 	bic.w	r3, r4, r5
 8004964:	6033      	str	r3, [r6, #0]
 8004966:	f04f 0900 	mov.w	r9, #0
 800496a:	f001 f83b 	bl	80059e4 <xTaskResumeAll>
 800496e:	f1b9 0f00 	cmp.w	r9, #0
 8004972:	d01c      	beq.n	80049ae <xEventGroupWaitBits+0xfa>
 8004974:	b948      	cbnz	r0, 800498a <xEventGroupWaitBits+0xd6>
 8004976:	f04f 23e0 	mov.w	r3, #3758153728	@ 0xe000e000
 800497a:	f04f 5280 	mov.w	r2, #268435456	@ 0x10000000
 800497e:	f8c3 2d04 	str.w	r2, [r3, #3332]	@ 0xd04
 8004982:	f3bf 8f4f 	dsb	sy
 8004986:	f3bf 8f6f 	isb	sy
 800498a:	f001 fb25 	bl	8005fd8 <uxTaskResetEventItemValue>
 800498e:	0183      	lsls	r3, r0, #6
 8004990:	4604      	mov	r4, r0
 8004992:	d40a      	bmi.n	80049aa <xEventGroupWaitBits+0xf6>
 8004994:	f001 fd9e 	bl	80064d4 <vPortEnterCritical>
 8004998:	6834      	ldr	r4, [r6, #0]
 800499a:	ea05 0304 	and.w	r3, r5, r4
 800499e:	f1b8 0f00 	cmp.w	r8, #0
 80049a2:	d107      	bne.n	80049b4 <xEventGroupWaitBits+0x100>
 80049a4:	b943      	cbnz	r3, 80049b8 <xEventGroupWaitBits+0x104>
 80049a6:	f001 fdb5 	bl	8006514 <vPortExitCritical>
 80049aa:	f024 447f 	bic.w	r4, r4, #4278190080	@ 0xff000000
 80049ae:	4620      	mov	r0, r4
 80049b0:	e8bd 83f8 	ldmia.w	sp!, {r3, r4, r5, r6, r7, r8, r9, pc}
 80049b4:	429d      	cmp	r5, r3
 80049b6:	d1f6      	bne.n	80049a6 <xEventGroupWaitBits+0xf2>
 80049b8:	2f00      	cmp	r7, #0
 80049ba:	d0f4      	beq.n	80049a6 <xEventGroupWaitBits+0xf2>
 80049bc:	ea24 0505 	bic.w	r5, r4, r5
 80049c0:	6035      	str	r5, [r6, #0]
 80049c2:	e7f0      	b.n	80049a6 <xEventGroupWaitBits+0xf2>

080049c4 <xEventGroupSetBits>:
 80049c4:	e92d 41f0 	stmdb	sp!, {r4, r5, r6, r7, r8, lr}
 80049c8:	460d      	mov	r5, r1
 80049ca:	4604      	mov	r4, r0
 80049cc:	b940      	cbnz	r0, 80049e0 <xEventGroupSetBits+0x1c>
 80049ce:	f04f 0350 	mov.w	r3, #80	@ 0x50
 80049d2:	f383 8811 	msr	BASEPRI, r3
 80049d6:	f3bf 8f6f 	isb	sy
 80049da:	f3bf 8f4f 	dsb	sy
 80049de:	e7fe      	b.n	80049de <xEventGroupSetBits+0x1a>
 80049e0:	f1b1 7f80 	cmp.w	r1, #16777216	@ 0x1000000
 80049e4:	d308      	bcc.n	80049f8 <xEventGroupSetBits+0x34>
 80049e6:	f04f 0350 	mov.w	r3, #80	@ 0x50
 80049ea:	f383 8811 	msr	BASEPRI, r3
 80049ee:	f3bf 8f6f 	isb	sy
 80049f2:	f3bf 8f4f 	dsb	sy
 80049f6:	e7fe      	b.n	80049f6 <xEventGroupSetBits+0x32>
 80049f8:	f100 060c 	add.w	r6, r0, #12
 80049fc:	f000 ff4e 	bl	800589c <vTaskSuspendAll>
 8004a00:	6823      	ldr	r3, [r4, #0]
 8004a02:	6920      	ldr	r0, [r4, #16]
 8004a04:	432b      	orrs	r3, r5
 8004a06:	6023      	str	r3, [r4, #0]
 8004a08:	2500      	movs	r5, #0
 8004a0a:	4286      	cmp	r6, r0
 8004a0c:	6821      	ldr	r1, [r4, #0]
 8004a0e:	d107      	bne.n	8004a20 <xEventGroupSetBits+0x5c>
 8004a10:	ea21 0105 	bic.w	r1, r1, r5
 8004a14:	6021      	str	r1, [r4, #0]
 8004a16:	f000 ffe5 	bl	80059e4 <xTaskResumeAll>
 8004a1a:	6820      	ldr	r0, [r4, #0]
 8004a1c:	e8bd 81f0 	ldmia.w	sp!, {r4, r5, r6, r7, r8, pc}
 8004a20:	e9d0 2800 	ldrd	r2, r8, [r0]
 8004a24:	f022 437f 	bic.w	r3, r2, #4278190080	@ 0xff000000
 8004a28:	f012 6f80 	tst.w	r2, #67108864	@ 0x4000000
 8004a2c:	ea03 0701 	and.w	r7, r3, r1
 8004a30:	d102      	bne.n	8004a38 <xEventGroupSetBits+0x74>
 8004a32:	b91f      	cbnz	r7, 8004a3c <xEventGroupSetBits+0x78>
 8004a34:	4640      	mov	r0, r8
 8004a36:	e7e8      	b.n	8004a0a <xEventGroupSetBits+0x46>
 8004a38:	42bb      	cmp	r3, r7
 8004a3a:	d1fb      	bne.n	8004a34 <xEventGroupSetBits+0x70>
 8004a3c:	01d2      	lsls	r2, r2, #7
 8004a3e:	f041 7100 	orr.w	r1, r1, #33554432	@ 0x2000000
 8004a42:	bf48      	it	mi
 8004a44:	431d      	orrmi	r5, r3
 8004a46:	f001 f953 	bl	8005cf0 <vTaskRemoveFromUnorderedEventList>
 8004a4a:	e7f3      	b.n	8004a34 <xEventGroupSetBits+0x70>

08004a4c <vEventGroupSetBitsCallback>:
 8004a4c:	f7ff bfba 	b.w	80049c4 <xEventGroupSetBits>

08004a50 <xEventGroupSetBitsFromISR>:
 8004a50:	4613      	mov	r3, r2
 8004a52:	460a      	mov	r2, r1
 8004a54:	4601      	mov	r1, r0
 8004a56:	4801      	ldr	r0, [pc, #4]	@ (8004a5c <xEventGroupSetBitsFromISR+0xc>)
 8004a58:	f001 bcbe 	b.w	80063d8 <xTimerPendFunctionCallFromISR>
 8004a5c:	08004a4d 	.word	0x08004a4d

08004a60 <vListInitialise>:
 8004a60:	f100 0308 	add.w	r3, r0, #8
 8004a64:	f04f 32ff 	mov.w	r2, #4294967295
 8004a68:	e9c0 2302 	strd	r2, r3, [r0, #8]
 8004a6c:	6043      	str	r3, [r0, #4]
 8004a6e:	6103      	str	r3, [r0, #16]
 8004a70:	2300      	movs	r3, #0
 8004a72:	6003      	str	r3, [r0, #0]
 8004a74:	4770      	bx	lr

08004a76 <vListInitialiseItem>:
 8004a76:	2300      	movs	r3, #0
 8004a78:	6103      	str	r3, [r0, #16]
 8004a7a:	4770      	bx	lr

08004a7c <vListInsertEnd>:
 8004a7c:	6843      	ldr	r3, [r0, #4]
 8004a7e:	604b      	str	r3, [r1, #4]
 8004a80:	689a      	ldr	r2, [r3, #8]
 8004a82:	608a      	str	r2, [r1, #8]
 8004a84:	6051      	str	r1, [r2, #4]
 8004a86:	6099      	str	r1, [r3, #8]
 8004a88:	6803      	ldr	r3, [r0, #0]
 8004a8a:	6108      	str	r0, [r1, #16]
 8004a8c:	3301      	adds	r3, #1
 8004a8e:	6003      	str	r3, [r0, #0]
 8004a90:	4770      	bx	lr

08004a92 <vListInsert>:
 8004a92:	b530      	push	{r4, r5, lr}
 8004a94:	680c      	ldr	r4, [r1, #0]
 8004a96:	1c63      	adds	r3, r4, #1
 8004a98:	d10a      	bne.n	8004ab0 <vListInsert+0x1e>
 8004a9a:	6903      	ldr	r3, [r0, #16]
 8004a9c:	685a      	ldr	r2, [r3, #4]
 8004a9e:	604a      	str	r2, [r1, #4]
 8004aa0:	6091      	str	r1, [r2, #8]
 8004aa2:	608b      	str	r3, [r1, #8]
 8004aa4:	6059      	str	r1, [r3, #4]
 8004aa6:	6803      	ldr	r3, [r0, #0]
 8004aa8:	6108      	str	r0, [r1, #16]
 8004aaa:	3301      	adds	r3, #1
 8004aac:	6003      	str	r3, [r0, #0]
 8004aae:	bd30      	pop	{r4, r5, pc}
 8004ab0:	f100 0208 	add.w	r2, r0, #8
 8004ab4:	4613      	mov	r3, r2
 8004ab6:	6852      	ldr	r2, [r2, #4]
 8004ab8:	6815      	ldr	r5, [r2, #0]
 8004aba:	42a5      	cmp	r5, r4
 8004abc:	d9fa      	bls.n	8004ab4 <vListInsert+0x22>
 8004abe:	e7ed      	b.n	8004a9c <vListInsert+0xa>

08004ac0 <uxListRemove>:
 8004ac0:	e9d0 1201 	ldrd	r1, r2, [r0, #4]
 8004ac4:	6903      	ldr	r3, [r0, #16]
 8004ac6:	608a      	str	r2, [r1, #8]
 8004ac8:	6051      	str	r1, [r2, #4]
 8004aca:	6859      	ldr	r1, [r3, #4]
 8004acc:	4281      	cmp	r1, r0
 8004ace:	bf08      	it	eq
 8004ad0:	605a      	streq	r2, [r3, #4]
 8004ad2:	2200      	movs	r2, #0
 8004ad4:	6102      	str	r2, [r0, #16]
 8004ad6:	681a      	ldr	r2, [r3, #0]
 8004ad8:	3a01      	subs	r2, #1
 8004ada:	601a      	str	r2, [r3, #0]
 8004adc:	6818      	ldr	r0, [r3, #0]
 8004ade:	4770      	bx	lr

08004ae0 <prvIsQueueEmpty>:
 8004ae0:	b510      	push	{r4, lr}
 8004ae2:	4604      	mov	r4, r0
 8004ae4:	f001 fcf6 	bl	80064d4 <vPortEnterCritical>
 8004ae8:	6ba4      	ldr	r4, [r4, #56]	@ 0x38
 8004aea:	f001 fd13 	bl	8006514 <vPortExitCritical>
 8004aee:	fab4 f084 	clz	r0, r4
 8004af2:	0940      	lsrs	r0, r0, #5
 8004af4:	bd10      	pop	{r4, pc}

08004af6 <prvCopyDataToQueue>:
 8004af6:	b570      	push	{r4, r5, r6, lr}
 8004af8:	4616      	mov	r6, r2
 8004afa:	6c02      	ldr	r2, [r0, #64]	@ 0x40
 8004afc:	6b85      	ldr	r5, [r0, #56]	@ 0x38
 8004afe:	4604      	mov	r4, r0
 8004b00:	b942      	cbnz	r2, 8004b14 <prvCopyDataToQueue+0x1e>
 8004b02:	6806      	ldr	r6, [r0, #0]
 8004b04:	b99e      	cbnz	r6, 8004b2e <prvCopyDataToQueue+0x38>
 8004b06:	6880      	ldr	r0, [r0, #8]
 8004b08:	f001 f9d6 	bl	8005eb8 <xTaskPriorityDisinherit>
 8004b0c:	60a6      	str	r6, [r4, #8]
 8004b0e:	3501      	adds	r5, #1
 8004b10:	63a5      	str	r5, [r4, #56]	@ 0x38
 8004b12:	bd70      	pop	{r4, r5, r6, pc}
 8004b14:	b96e      	cbnz	r6, 8004b32 <prvCopyDataToQueue+0x3c>
 8004b16:	6840      	ldr	r0, [r0, #4]
 8004b18:	f001 ffd2 	bl	8006ac0 <memcpy>
 8004b1c:	6863      	ldr	r3, [r4, #4]
 8004b1e:	6c22      	ldr	r2, [r4, #64]	@ 0x40
 8004b20:	4413      	add	r3, r2
 8004b22:	68a2      	ldr	r2, [r4, #8]
 8004b24:	6063      	str	r3, [r4, #4]
 8004b26:	4293      	cmp	r3, r2
 8004b28:	bf24      	itt	cs
 8004b2a:	6823      	ldrcs	r3, [r4, #0]
 8004b2c:	6063      	strcs	r3, [r4, #4]
 8004b2e:	2000      	movs	r0, #0
 8004b30:	e7ed      	b.n	8004b0e <prvCopyDataToQueue+0x18>
 8004b32:	68c0      	ldr	r0, [r0, #12]
 8004b34:	f001 ffc4 	bl	8006ac0 <memcpy>
 8004b38:	6c22      	ldr	r2, [r4, #64]	@ 0x40
 8004b3a:	68e3      	ldr	r3, [r4, #12]
 8004b3c:	4251      	negs	r1, r2
 8004b3e:	1a9b      	subs	r3, r3, r2
 8004b40:	6822      	ldr	r2, [r4, #0]
 8004b42:	60e3      	str	r3, [r4, #12]
 8004b44:	4293      	cmp	r3, r2
 8004b46:	bf3e      	ittt	cc
 8004b48:	68a3      	ldrcc	r3, [r4, #8]
 8004b4a:	185b      	addcc	r3, r3, r1
 8004b4c:	60e3      	strcc	r3, [r4, #12]
 8004b4e:	2e02      	cmp	r6, #2
 8004b50:	d1ed      	bne.n	8004b2e <prvCopyDataToQueue+0x38>
 8004b52:	b10d      	cbz	r5, 8004b58 <prvCopyDataToQueue+0x62>
 8004b54:	3d01      	subs	r5, #1
 8004b56:	e7ea      	b.n	8004b2e <prvCopyDataToQueue+0x38>
 8004b58:	4628      	mov	r0, r5
 8004b5a:	e7d8      	b.n	8004b0e <prvCopyDataToQueue+0x18>

08004b5c <prvCopyDataFromQueue>:
 8004b5c:	4603      	mov	r3, r0
 8004b5e:	b410      	push	{r4}
 8004b60:	6c1a      	ldr	r2, [r3, #64]	@ 0x40
 8004b62:	4608      	mov	r0, r1
 8004b64:	b16a      	cbz	r2, 8004b82 <prvCopyDataFromQueue+0x26>
 8004b66:	68dc      	ldr	r4, [r3, #12]
 8004b68:	6899      	ldr	r1, [r3, #8]
 8004b6a:	4414      	add	r4, r2
 8004b6c:	428c      	cmp	r4, r1
 8004b6e:	bf28      	it	cs
 8004b70:	6819      	ldrcs	r1, [r3, #0]
 8004b72:	60dc      	str	r4, [r3, #12]
 8004b74:	bf28      	it	cs
 8004b76:	60d9      	strcs	r1, [r3, #12]
 8004b78:	68d9      	ldr	r1, [r3, #12]
 8004b7a:	f85d 4b04 	ldr.w	r4, [sp], #4
 8004b7e:	f001 bf9f 	b.w	8006ac0 <memcpy>
 8004b82:	f85d 4b04 	ldr.w	r4, [sp], #4
 8004b86:	4770      	bx	lr

08004b88 <prvUnlockQueue>:
 8004b88:	b570      	push	{r4, r5, r6, lr}
 8004b8a:	4604      	mov	r4, r0
 8004b8c:	f001 fca2 	bl	80064d4 <vPortEnterCritical>
 8004b90:	f894 5045 	ldrb.w	r5, [r4, #69]	@ 0x45
 8004b94:	f104 0624 	add.w	r6, r4, #36	@ 0x24
 8004b98:	b26d      	sxtb	r5, r5
 8004b9a:	2d00      	cmp	r5, #0
 8004b9c:	dc14      	bgt.n	8004bc8 <prvUnlockQueue+0x40>
 8004b9e:	23ff      	movs	r3, #255	@ 0xff
 8004ba0:	f884 3045 	strb.w	r3, [r4, #69]	@ 0x45
 8004ba4:	f001 fcb6 	bl	8006514 <vPortExitCritical>
 8004ba8:	f001 fc94 	bl	80064d4 <vPortEnterCritical>
 8004bac:	f894 5044 	ldrb.w	r5, [r4, #68]	@ 0x44
 8004bb0:	f104 0610 	add.w	r6, r4, #16
 8004bb4:	b26d      	sxtb	r5, r5
 8004bb6:	2d00      	cmp	r5, #0
 8004bb8:	dc12      	bgt.n	8004be0 <prvUnlockQueue+0x58>
 8004bba:	23ff      	movs	r3, #255	@ 0xff
 8004bbc:	f884 3044 	strb.w	r3, [r4, #68]	@ 0x44
 8004bc0:	e8bd 4070 	ldmia.w	sp!, {r4, r5, r6, lr}
 8004bc4:	f001 bca6 	b.w	8006514 <vPortExitCritical>
 8004bc8:	6a63      	ldr	r3, [r4, #36]	@ 0x24
 8004bca:	2b00      	cmp	r3, #0
 8004bcc:	d0e7      	beq.n	8004b9e <prvUnlockQueue+0x16>
 8004bce:	4630      	mov	r0, r6
 8004bd0:	f001 f84e 	bl	8005c70 <xTaskRemoveFromEventList>
 8004bd4:	b108      	cbz	r0, 8004bda <prvUnlockQueue+0x52>
 8004bd6:	f001 f915 	bl	8005e04 <vTaskMissedYield>
 8004bda:	3d01      	subs	r5, #1
 8004bdc:	b26d      	sxtb	r5, r5
 8004bde:	e7dc      	b.n	8004b9a <prvUnlockQueue+0x12>
 8004be0:	6923      	ldr	r3, [r4, #16]
 8004be2:	2b00      	cmp	r3, #0
 8004be4:	d0e9      	beq.n	8004bba <prvUnlockQueue+0x32>
 8004be6:	4630      	mov	r0, r6
 8004be8:	f001 f842 	bl	8005c70 <xTaskRemoveFromEventList>
 8004bec:	b108      	cbz	r0, 8004bf2 <prvUnlockQueue+0x6a>
 8004bee:	f001 f909 	bl	8005e04 <vTaskMissedYield>
 8004bf2:	3d01      	subs	r5, #1
 8004bf4:	b26d      	sxtb	r5, r5
 8004bf6:	e7de      	b.n	8004bb6 <prvUnlockQueue+0x2e>

08004bf8 <xQueueGenericReset>:
 8004bf8:	b538      	push	{r3, r4, r5, lr}
 8004bfa:	460d      	mov	r5, r1
 8004bfc:	4604      	mov	r4, r0
 8004bfe:	b940      	cbnz	r0, 8004c12 <xQueueGenericReset+0x1a>
 8004c00:	f04f 0350 	mov.w	r3, #80	@ 0x50
 8004c04:	f383 8811 	msr	BASEPRI, r3
 8004c08:	f3bf 8f6f 	isb	sy
 8004c0c:	f3bf 8f4f 	dsb	sy
 8004c10:	e7fe      	b.n	8004c10 <xQueueGenericReset+0x18>
 8004c12:	f001 fc5f 	bl	80064d4 <vPortEnterCritical>
 8004c16:	e9d4 310f 	ldrd	r3, r1, [r4, #60]	@ 0x3c
 8004c1a:	6822      	ldr	r2, [r4, #0]
 8004c1c:	6062      	str	r2, [r4, #4]
 8004c1e:	434b      	muls	r3, r1
 8004c20:	18d0      	adds	r0, r2, r3
 8004c22:	1a5b      	subs	r3, r3, r1
 8004c24:	441a      	add	r2, r3
 8004c26:	60a0      	str	r0, [r4, #8]
 8004c28:	23ff      	movs	r3, #255	@ 0xff
 8004c2a:	2000      	movs	r0, #0
 8004c2c:	63a0      	str	r0, [r4, #56]	@ 0x38
 8004c2e:	60e2      	str	r2, [r4, #12]
 8004c30:	f884 3044 	strb.w	r3, [r4, #68]	@ 0x44
 8004c34:	f884 3045 	strb.w	r3, [r4, #69]	@ 0x45
 8004c38:	b9a5      	cbnz	r5, 8004c64 <xQueueGenericReset+0x6c>
 8004c3a:	6923      	ldr	r3, [r4, #16]
 8004c3c:	b173      	cbz	r3, 8004c5c <xQueueGenericReset+0x64>
 8004c3e:	f104 0010 	add.w	r0, r4, #16
 8004c42:	f001 f815 	bl	8005c70 <xTaskRemoveFromEventList>
 8004c46:	b148      	cbz	r0, 8004c5c <xQueueGenericReset+0x64>
 8004c48:	f04f 23e0 	mov.w	r3, #3758153728	@ 0xe000e000
 8004c4c:	f04f 5280 	mov.w	r2, #268435456	@ 0x10000000
 8004c50:	f8c3 2d04 	str.w	r2, [r3, #3332]	@ 0xd04
 8004c54:	f3bf 8f4f 	dsb	sy
 8004c58:	f3bf 8f6f 	isb	sy
 8004c5c:	f001 fc5a 	bl	8006514 <vPortExitCritical>
 8004c60:	2001      	movs	r0, #1
 8004c62:	bd38      	pop	{r3, r4, r5, pc}
 8004c64:	f104 0010 	add.w	r0, r4, #16
 8004c68:	f7ff fefa 	bl	8004a60 <vListInitialise>
 8004c6c:	f104 0024 	add.w	r0, r4, #36	@ 0x24
 8004c70:	f7ff fef6 	bl	8004a60 <vListInitialise>
 8004c74:	e7f2      	b.n	8004c5c <xQueueGenericReset+0x64>

08004c76 <xQueueGenericCreateStatic>:
 8004c76:	b537      	push	{r0, r1, r2, r4, r5, lr}
 8004c78:	460d      	mov	r5, r1
 8004c7a:	461c      	mov	r4, r3
 8004c7c:	b940      	cbnz	r0, 8004c90 <xQueueGenericCreateStatic+0x1a>
 8004c7e:	f04f 0350 	mov.w	r3, #80	@ 0x50
 8004c82:	f383 8811 	msr	BASEPRI, r3
 8004c86:	f3bf 8f6f 	isb	sy
 8004c8a:	f3bf 8f4f 	dsb	sy
 8004c8e:	e7fe      	b.n	8004c8e <xQueueGenericCreateStatic+0x18>
 8004c90:	b943      	cbnz	r3, 8004ca4 <xQueueGenericCreateStatic+0x2e>
 8004c92:	f04f 0350 	mov.w	r3, #80	@ 0x50
 8004c96:	f383 8811 	msr	BASEPRI, r3
 8004c9a:	f3bf 8f6f 	isb	sy
 8004c9e:	f3bf 8f4f 	dsb	sy
 8004ca2:	e7fe      	b.n	8004ca2 <xQueueGenericCreateStatic+0x2c>
 8004ca4:	b14a      	cbz	r2, 8004cba <xQueueGenericCreateStatic+0x44>
 8004ca6:	b991      	cbnz	r1, 8004cce <xQueueGenericCreateStatic+0x58>
 8004ca8:	f04f 0350 	mov.w	r3, #80	@ 0x50
 8004cac:	f383 8811 	msr	BASEPRI, r3
 8004cb0:	f3bf 8f6f 	isb	sy
 8004cb4:	f3bf 8f4f 	dsb	sy
 8004cb8:	e7fe      	b.n	8004cb8 <xQueueGenericCreateStatic+0x42>
 8004cba:	b141      	cbz	r1, 8004cce <xQueueGenericCreateStatic+0x58>
 8004cbc:	f04f 0350 	mov.w	r3, #80	@ 0x50
 8004cc0:	f383 8811 	msr	BASEPRI, r3
 8004cc4:	f3bf 8f6f 	isb	sy
 8004cc8:	f3bf 8f4f 	dsb	sy
 8004ccc:	e7fe      	b.n	8004ccc <xQueueGenericCreateStatic+0x56>
 8004cce:	2350      	movs	r3, #80	@ 0x50
 8004cd0:	9301      	str	r3, [sp, #4]
 8004cd2:	9b01      	ldr	r3, [sp, #4]
 8004cd4:	2b50      	cmp	r3, #80	@ 0x50
 8004cd6:	d008      	beq.n	8004cea <xQueueGenericCreateStatic+0x74>
 8004cd8:	f04f 0350 	mov.w	r3, #80	@ 0x50
 8004cdc:	f383 8811 	msr	BASEPRI, r3
 8004ce0:	f3bf 8f6f 	isb	sy
 8004ce4:	f3bf 8f4f 	dsb	sy
 8004ce8:	e7fe      	b.n	8004ce8 <xQueueGenericCreateStatic+0x72>
 8004cea:	2101      	movs	r1, #1
 8004cec:	2d00      	cmp	r5, #0
 8004cee:	bf08      	it	eq
 8004cf0:	4622      	moveq	r2, r4
 8004cf2:	e9c4 050f 	strd	r0, r5, [r4, #60]	@ 0x3c
 8004cf6:	f884 1046 	strb.w	r1, [r4, #70]	@ 0x46
 8004cfa:	6022      	str	r2, [r4, #0]
 8004cfc:	4620      	mov	r0, r4
 8004cfe:	9b01      	ldr	r3, [sp, #4]
 8004d00:	f7ff ff7a 	bl	8004bf8 <xQueueGenericReset>
 8004d04:	f89d 3018 	ldrb.w	r3, [sp, #24]
 8004d08:	f884 304c 	strb.w	r3, [r4, #76]	@ 0x4c
 8004d0c:	4620      	mov	r0, r4
 8004d0e:	b003      	add	sp, #12
 8004d10:	bd30      	pop	{r4, r5, pc}

08004d12 <xQueueGenericSend>:
 8004d12:	e92d 41ff 	stmdb	sp!, {r0, r1, r2, r3, r4, r5, r6, r7, r8, lr}
 8004d16:	460f      	mov	r7, r1
 8004d18:	9201      	str	r2, [sp, #4]
 8004d1a:	461e      	mov	r6, r3
 8004d1c:	4604      	mov	r4, r0
 8004d1e:	b940      	cbnz	r0, 8004d32 <xQueueGenericSend+0x20>
 8004d20:	f04f 0350 	mov.w	r3, #80	@ 0x50
 8004d24:	f383 8811 	msr	BASEPRI, r3
 8004d28:	f3bf 8f6f 	isb	sy
 8004d2c:	f3bf 8f4f 	dsb	sy
 8004d30:	e7fe      	b.n	8004d30 <xQueueGenericSend+0x1e>
 8004d32:	b951      	cbnz	r1, 8004d4a <xQueueGenericSend+0x38>
 8004d34:	6c03      	ldr	r3, [r0, #64]	@ 0x40
 8004d36:	b143      	cbz	r3, 8004d4a <xQueueGenericSend+0x38>
 8004d38:	f04f 0350 	mov.w	r3, #80	@ 0x50
 8004d3c:	f383 8811 	msr	BASEPRI, r3
 8004d40:	f3bf 8f6f 	isb	sy
 8004d44:	f3bf 8f4f 	dsb	sy
 8004d48:	e7fe      	b.n	8004d48 <xQueueGenericSend+0x36>
 8004d4a:	2e02      	cmp	r6, #2
 8004d4c:	d10b      	bne.n	8004d66 <xQueueGenericSend+0x54>
 8004d4e:	6be3      	ldr	r3, [r4, #60]	@ 0x3c
 8004d50:	2b01      	cmp	r3, #1
 8004d52:	d008      	beq.n	8004d66 <xQueueGenericSend+0x54>
 8004d54:	f04f 0350 	mov.w	r3, #80	@ 0x50
 8004d58:	f383 8811 	msr	BASEPRI, r3
 8004d5c:	f3bf 8f6f 	isb	sy
 8004d60:	f3bf 8f4f 	dsb	sy
 8004d64:	e7fe      	b.n	8004d64 <xQueueGenericSend+0x52>
 8004d66:	f001 f859 	bl	8005e1c <xTaskGetSchedulerState>
 8004d6a:	4605      	mov	r5, r0
 8004d6c:	b330      	cbz	r0, 8004dbc <xQueueGenericSend+0xaa>
 8004d6e:	2500      	movs	r5, #0
 8004d70:	f04f 0800 	mov.w	r8, #0
 8004d74:	f001 fbae 	bl	80064d4 <vPortEnterCritical>
 8004d78:	6ba2      	ldr	r2, [r4, #56]	@ 0x38
 8004d7a:	6be3      	ldr	r3, [r4, #60]	@ 0x3c
 8004d7c:	429a      	cmp	r2, r3
 8004d7e:	d301      	bcc.n	8004d84 <xQueueGenericSend+0x72>
 8004d80:	2e02      	cmp	r6, #2
 8004d82:	d127      	bne.n	8004dd4 <xQueueGenericSend+0xc2>
 8004d84:	4632      	mov	r2, r6
 8004d86:	4639      	mov	r1, r7
 8004d88:	4620      	mov	r0, r4
 8004d8a:	f7ff feb4 	bl	8004af6 <prvCopyDataToQueue>
 8004d8e:	6a63      	ldr	r3, [r4, #36]	@ 0x24
 8004d90:	b11b      	cbz	r3, 8004d9a <xQueueGenericSend+0x88>
 8004d92:	f104 0024 	add.w	r0, r4, #36	@ 0x24
 8004d96:	f000 ff6b 	bl	8005c70 <xTaskRemoveFromEventList>
 8004d9a:	b148      	cbz	r0, 8004db0 <xQueueGenericSend+0x9e>
 8004d9c:	f04f 23e0 	mov.w	r3, #3758153728	@ 0xe000e000
 8004da0:	f04f 5280 	mov.w	r2, #268435456	@ 0x10000000
 8004da4:	f8c3 2d04 	str.w	r2, [r3, #3332]	@ 0xd04
 8004da8:	f3bf 8f4f 	dsb	sy
 8004dac:	f3bf 8f6f 	isb	sy
 8004db0:	f001 fbb0 	bl	8006514 <vPortExitCritical>
 8004db4:	2001      	movs	r0, #1
 8004db6:	b004      	add	sp, #16
 8004db8:	e8bd 81f0 	ldmia.w	sp!, {r4, r5, r6, r7, r8, pc}
 8004dbc:	9b01      	ldr	r3, [sp, #4]
 8004dbe:	2b00      	cmp	r3, #0
 8004dc0:	d0d6      	beq.n	8004d70 <xQueueGenericSend+0x5e>
 8004dc2:	f04f 0350 	mov.w	r3, #80	@ 0x50
 8004dc6:	f383 8811 	msr	BASEPRI, r3
 8004dca:	f3bf 8f6f 	isb	sy
 8004dce:	f3bf 8f4f 	dsb	sy
 8004dd2:	e7fe      	b.n	8004dd2 <xQueueGenericSend+0xc0>
 8004dd4:	9b01      	ldr	r3, [sp, #4]
 8004dd6:	b91b      	cbnz	r3, 8004de0 <xQueueGenericSend+0xce>
 8004dd8:	f001 fb9c 	bl	8006514 <vPortExitCritical>
 8004ddc:	2000      	movs	r0, #0
 8004dde:	e7ea      	b.n	8004db6 <xQueueGenericSend+0xa4>
 8004de0:	b915      	cbnz	r5, 8004de8 <xQueueGenericSend+0xd6>
 8004de2:	a802      	add	r0, sp, #8
 8004de4:	f000 ffc6 	bl	8005d74 <vTaskInternalSetTimeOutState>
 8004de8:	f001 fb94 	bl	8006514 <vPortExitCritical>
 8004dec:	f000 fd56 	bl	800589c <vTaskSuspendAll>
 8004df0:	f001 fb70 	bl	80064d4 <vPortEnterCritical>
 8004df4:	f894 3044 	ldrb.w	r3, [r4, #68]	@ 0x44
 8004df8:	2bff      	cmp	r3, #255	@ 0xff
 8004dfa:	bf08      	it	eq
 8004dfc:	f884 8044 	strbeq.w	r8, [r4, #68]	@ 0x44
 8004e00:	f894 3045 	ldrb.w	r3, [r4, #69]	@ 0x45
 8004e04:	2bff      	cmp	r3, #255	@ 0xff
 8004e06:	bf08      	it	eq
 8004e08:	f884 8045 	strbeq.w	r8, [r4, #69]	@ 0x45
 8004e0c:	f001 fb82 	bl	8006514 <vPortExitCritical>
 8004e10:	a901      	add	r1, sp, #4
 8004e12:	a802      	add	r0, sp, #8
 8004e14:	f000 ffba 	bl	8005d8c <xTaskCheckForTimeOut>
 8004e18:	bb38      	cbnz	r0, 8004e6a <xQueueGenericSend+0x158>
 8004e1a:	f001 fb5b 	bl	80064d4 <vPortEnterCritical>
 8004e1e:	6ba2      	ldr	r2, [r4, #56]	@ 0x38
 8004e20:	6be3      	ldr	r3, [r4, #60]	@ 0x3c
 8004e22:	429a      	cmp	r2, r3
 8004e24:	d10e      	bne.n	8004e44 <xQueueGenericSend+0x132>
 8004e26:	f001 fb75 	bl	8006514 <vPortExitCritical>
 8004e2a:	9901      	ldr	r1, [sp, #4]
 8004e2c:	f104 0010 	add.w	r0, r4, #16
 8004e30:	f000 feba 	bl	8005ba8 <vTaskPlaceOnEventList>
 8004e34:	4620      	mov	r0, r4
 8004e36:	f7ff fea7 	bl	8004b88 <prvUnlockQueue>
 8004e3a:	f000 fdd3 	bl	80059e4 <xTaskResumeAll>
 8004e3e:	b148      	cbz	r0, 8004e54 <xQueueGenericSend+0x142>
 8004e40:	2501      	movs	r5, #1
 8004e42:	e797      	b.n	8004d74 <xQueueGenericSend+0x62>
 8004e44:	f001 fb66 	bl	8006514 <vPortExitCritical>
 8004e48:	4620      	mov	r0, r4
 8004e4a:	f7ff fe9d 	bl	8004b88 <prvUnlockQueue>
 8004e4e:	f000 fdc9 	bl	80059e4 <xTaskResumeAll>
 8004e52:	e7f5      	b.n	8004e40 <xQueueGenericSend+0x12e>
 8004e54:	f04f 23e0 	mov.w	r3, #3758153728	@ 0xe000e000
 8004e58:	f04f 5280 	mov.w	r2, #268435456	@ 0x10000000
 8004e5c:	f8c3 2d04 	str.w	r2, [r3, #3332]	@ 0xd04
 8004e60:	f3bf 8f4f 	dsb	sy
 8004e64:	f3bf 8f6f 	isb	sy
 8004e68:	e7ea      	b.n	8004e40 <xQueueGenericSend+0x12e>
 8004e6a:	4620      	mov	r0, r4
 8004e6c:	f7ff fe8c 	bl	8004b88 <prvUnlockQueue>
 8004e70:	f000 fdb8 	bl	80059e4 <xTaskResumeAll>
 8004e74:	e7b2      	b.n	8004ddc <xQueueGenericSend+0xca>

08004e76 <xQueueCreateMutexStatic>:
 8004e76:	b513      	push	{r0, r1, r4, lr}
 8004e78:	2200      	movs	r2, #0
 8004e7a:	460b      	mov	r3, r1
 8004e7c:	9000      	str	r0, [sp, #0]
 8004e7e:	4611      	mov	r1, r2
 8004e80:	2001      	movs	r0, #1
 8004e82:	f7ff fef8 	bl	8004c76 <xQueueGenericCreateStatic>
 8004e86:	4604      	mov	r4, r0
 8004e88:	b138      	cbz	r0, 8004e9a <xQueueCreateMutexStatic+0x24>
 8004e8a:	2300      	movs	r3, #0
 8004e8c:	6083      	str	r3, [r0, #8]
 8004e8e:	6003      	str	r3, [r0, #0]
 8004e90:	60c3      	str	r3, [r0, #12]
 8004e92:	461a      	mov	r2, r3
 8004e94:	4619      	mov	r1, r3
 8004e96:	f7ff ff3c 	bl	8004d12 <xQueueGenericSend>
 8004e9a:	4620      	mov	r0, r4
 8004e9c:	b002      	add	sp, #8
 8004e9e:	bd10      	pop	{r4, pc}

08004ea0 <xQueueGiveMutexRecursive>:
 8004ea0:	b538      	push	{r3, r4, r5, lr}
 8004ea2:	4604      	mov	r4, r0
 8004ea4:	b940      	cbnz	r0, 8004eb8 <xQueueGiveMutexRecursive+0x18>
 8004ea6:	f04f 0350 	mov.w	r3, #80	@ 0x50
 8004eaa:	f383 8811 	msr	BASEPRI, r3
 8004eae:	f3bf 8f6f 	isb	sy
 8004eb2:	f3bf 8f4f 	dsb	sy
 8004eb6:	e7fe      	b.n	8004eb6 <xQueueGiveMutexRecursive+0x16>
 8004eb8:	6885      	ldr	r5, [r0, #8]
 8004eba:	f000 ffa9 	bl	8005e10 <xTaskGetCurrentTaskHandle>
 8004ebe:	4285      	cmp	r5, r0
 8004ec0:	d10b      	bne.n	8004eda <xQueueGiveMutexRecursive+0x3a>
 8004ec2:	68e3      	ldr	r3, [r4, #12]
 8004ec4:	3b01      	subs	r3, #1
 8004ec6:	60e3      	str	r3, [r4, #12]
 8004ec8:	b10b      	cbz	r3, 8004ece <xQueueGiveMutexRecursive+0x2e>
 8004eca:	2001      	movs	r0, #1
 8004ecc:	bd38      	pop	{r3, r4, r5, pc}
 8004ece:	461a      	mov	r2, r3
 8004ed0:	4619      	mov	r1, r3
 8004ed2:	4620      	mov	r0, r4
 8004ed4:	f7ff ff1d 	bl	8004d12 <xQueueGenericSend>
 8004ed8:	e7f7      	b.n	8004eca <xQueueGiveMutexRecursive+0x2a>
 8004eda:	2000      	movs	r0, #0
 8004edc:	e7f6      	b.n	8004ecc <xQueueGiveMutexRecursive+0x2c>

08004ede <xQueueCreateMutex>:
 8004ede:	b570      	push	{r4, r5, r6, lr}
 8004ee0:	4606      	mov	r6, r0
 8004ee2:	2050      	movs	r0, #80	@ 0x50
 8004ee4:	f001 fc5c 	bl	80067a0 <pvPortMalloc>
 8004ee8:	4604      	mov	r4, r0
 8004eea:	b198      	cbz	r0, 8004f14 <xQueueCreateMutex+0x36>
 8004eec:	2500      	movs	r5, #0
 8004eee:	2101      	movs	r1, #1
 8004ef0:	e9c0 150f 	strd	r1, r5, [r0, #60]	@ 0x3c
 8004ef4:	f880 5046 	strb.w	r5, [r0, #70]	@ 0x46
 8004ef8:	6000      	str	r0, [r0, #0]
 8004efa:	f7ff fe7d 	bl	8004bf8 <xQueueGenericReset>
 8004efe:	f884 604c 	strb.w	r6, [r4, #76]	@ 0x4c
 8004f02:	60a5      	str	r5, [r4, #8]
 8004f04:	6025      	str	r5, [r4, #0]
 8004f06:	60e5      	str	r5, [r4, #12]
 8004f08:	462b      	mov	r3, r5
 8004f0a:	462a      	mov	r2, r5
 8004f0c:	4629      	mov	r1, r5
 8004f0e:	4620      	mov	r0, r4
 8004f10:	f7ff feff 	bl	8004d12 <xQueueGenericSend>
 8004f14:	4620      	mov	r0, r4
 8004f16:	bd70      	pop	{r4, r5, r6, pc}

08004f18 <xQueueGenericSendFromISR>:
 8004f18:	e92d 43f8 	stmdb	sp!, {r3, r4, r5, r6, r7, r8, r9, lr}
 8004f1c:	4689      	mov	r9, r1
 8004f1e:	4617      	mov	r7, r2
 8004f20:	461e      	mov	r6, r3
 8004f22:	4604      	mov	r4, r0
 8004f24:	b940      	cbnz	r0, 8004f38 <xQueueGenericSendFromISR+0x20>
 8004f26:	f04f 0350 	mov.w	r3, #80	@ 0x50
 8004f2a:	f383 8811 	msr	BASEPRI, r3
 8004f2e:	f3bf 8f6f 	isb	sy
 8004f32:	f3bf 8f4f 	dsb	sy
 8004f36:	e7fe      	b.n	8004f36 <xQueueGenericSendFromISR+0x1e>
 8004f38:	b951      	cbnz	r1, 8004f50 <xQueueGenericSendFromISR+0x38>
 8004f3a:	6c03      	ldr	r3, [r0, #64]	@ 0x40
 8004f3c:	b143      	cbz	r3, 8004f50 <xQueueGenericSendFromISR+0x38>
 8004f3e:	f04f 0350 	mov.w	r3, #80	@ 0x50
 8004f42:	f383 8811 	msr	BASEPRI, r3
 8004f46:	f3bf 8f6f 	isb	sy
 8004f4a:	f3bf 8f4f 	dsb	sy
 8004f4e:	e7fe      	b.n	8004f4e <xQueueGenericSendFromISR+0x36>
 8004f50:	2e02      	cmp	r6, #2
 8004f52:	d10b      	bne.n	8004f6c <xQueueGenericSendFromISR+0x54>
 8004f54:	6be3      	ldr	r3, [r4, #60]	@ 0x3c
 8004f56:	2b01      	cmp	r3, #1
 8004f58:	d008      	beq.n	8004f6c <xQueueGenericSendFromISR+0x54>
 8004f5a:	f04f 0350 	mov.w	r3, #80	@ 0x50
 8004f5e:	f383 8811 	msr	BASEPRI, r3
 8004f62:	f3bf 8f6f 	isb	sy
 8004f66:	f3bf 8f4f 	dsb	sy
 8004f6a:	e7fe      	b.n	8004f6a <xQueueGenericSendFromISR+0x52>
 8004f6c:	f001 fbc4 	bl	80066f8 <vPortValidateInterruptPriority>
 8004f70:	f3ef 8811 	mrs	r8, BASEPRI
 8004f74:	f04f 0350 	mov.w	r3, #80	@ 0x50
 8004f78:	f383 8811 	msr	BASEPRI, r3
 8004f7c:	f3bf 8f6f 	isb	sy
 8004f80:	f3bf 8f4f 	dsb	sy
 8004f84:	6ba2      	ldr	r2, [r4, #56]	@ 0x38
 8004f86:	6be3      	ldr	r3, [r4, #60]	@ 0x3c
 8004f88:	429a      	cmp	r2, r3
 8004f8a:	d301      	bcc.n	8004f90 <xQueueGenericSendFromISR+0x78>
 8004f8c:	2e02      	cmp	r6, #2
 8004f8e:	d11e      	bne.n	8004fce <xQueueGenericSendFromISR+0xb6>
 8004f90:	f894 5045 	ldrb.w	r5, [r4, #69]	@ 0x45
 8004f94:	6ba3      	ldr	r3, [r4, #56]	@ 0x38
 8004f96:	b26d      	sxtb	r5, r5
 8004f98:	4632      	mov	r2, r6
 8004f9a:	4649      	mov	r1, r9
 8004f9c:	4620      	mov	r0, r4
 8004f9e:	f7ff fdaa 	bl	8004af6 <prvCopyDataToQueue>
 8004fa2:	1c6b      	adds	r3, r5, #1
 8004fa4:	d10e      	bne.n	8004fc4 <xQueueGenericSendFromISR+0xac>
 8004fa6:	6a63      	ldr	r3, [r4, #36]	@ 0x24
 8004fa8:	b13b      	cbz	r3, 8004fba <xQueueGenericSendFromISR+0xa2>
 8004faa:	f104 0024 	add.w	r0, r4, #36	@ 0x24
 8004fae:	f000 fe5f 	bl	8005c70 <xTaskRemoveFromEventList>
 8004fb2:	b110      	cbz	r0, 8004fba <xQueueGenericSendFromISR+0xa2>
 8004fb4:	b10f      	cbz	r7, 8004fba <xQueueGenericSendFromISR+0xa2>
 8004fb6:	2301      	movs	r3, #1
 8004fb8:	603b      	str	r3, [r7, #0]
 8004fba:	2001      	movs	r0, #1
 8004fbc:	f388 8811 	msr	BASEPRI, r8
 8004fc0:	e8bd 83f8 	ldmia.w	sp!, {r3, r4, r5, r6, r7, r8, r9, pc}
 8004fc4:	3501      	adds	r5, #1
 8004fc6:	b26d      	sxtb	r5, r5
 8004fc8:	f884 5045 	strb.w	r5, [r4, #69]	@ 0x45
 8004fcc:	e7f5      	b.n	8004fba <xQueueGenericSendFromISR+0xa2>
 8004fce:	2000      	movs	r0, #0
 8004fd0:	e7f4      	b.n	8004fbc <xQueueGenericSendFromISR+0xa4>

08004fd2 <xQueueReceive>:
 8004fd2:	e92d 41ff 	stmdb	sp!, {r0, r1, r2, r3, r4, r5, r6, r7, r8, lr}
 8004fd6:	460e      	mov	r6, r1
 8004fd8:	9201      	str	r2, [sp, #4]
 8004fda:	4604      	mov	r4, r0
 8004fdc:	b940      	cbnz	r0, 8004ff0 <xQueueReceive+0x1e>
 8004fde:	f04f 0350 	mov.w	r3, #80	@ 0x50
 8004fe2:	f383 8811 	msr	BASEPRI, r3
 8004fe6:	f3bf 8f6f 	isb	sy
 8004fea:	f3bf 8f4f 	dsb	sy
 8004fee:	e7fe      	b.n	8004fee <xQueueReceive+0x1c>
 8004ff0:	b951      	cbnz	r1, 8005008 <xQueueReceive+0x36>
 8004ff2:	6c03      	ldr	r3, [r0, #64]	@ 0x40
 8004ff4:	b143      	cbz	r3, 8005008 <xQueueReceive+0x36>
 8004ff6:	f04f 0350 	mov.w	r3, #80	@ 0x50
 8004ffa:	f383 8811 	msr	BASEPRI, r3
 8004ffe:	f3bf 8f6f 	isb	sy
 8005002:	f3bf 8f4f 	dsb	sy
 8005006:	e7fe      	b.n	8005006 <xQueueReceive+0x34>
 8005008:	f000 ff08 	bl	8005e1c <xTaskGetSchedulerState>
 800500c:	4605      	mov	r5, r0
 800500e:	b318      	cbz	r0, 8005058 <xQueueReceive+0x86>
 8005010:	2500      	movs	r5, #0
 8005012:	f04f 0800 	mov.w	r8, #0
 8005016:	f001 fa5d 	bl	80064d4 <vPortEnterCritical>
 800501a:	6ba7      	ldr	r7, [r4, #56]	@ 0x38
 800501c:	b347      	cbz	r7, 8005070 <xQueueReceive+0x9e>
 800501e:	4631      	mov	r1, r6
 8005020:	4620      	mov	r0, r4
 8005022:	3f01      	subs	r7, #1
 8005024:	f7ff fd9a 	bl	8004b5c <prvCopyDataFromQueue>
 8005028:	63a7      	str	r7, [r4, #56]	@ 0x38
 800502a:	6923      	ldr	r3, [r4, #16]
 800502c:	b173      	cbz	r3, 800504c <xQueueReceive+0x7a>
 800502e:	f104 0010 	add.w	r0, r4, #16
 8005032:	f000 fe1d 	bl	8005c70 <xTaskRemoveFromEventList>
 8005036:	b148      	cbz	r0, 800504c <xQueueReceive+0x7a>
 8005038:	f04f 23e0 	mov.w	r3, #3758153728	@ 0xe000e000
 800503c:	f04f 5280 	mov.w	r2, #268435456	@ 0x10000000
 8005040:	f8c3 2d04 	str.w	r2, [r3, #3332]	@ 0xd04
 8005044:	f3bf 8f4f 	dsb	sy
 8005048:	f3bf 8f6f 	isb	sy
 800504c:	f001 fa62 	bl	8006514 <vPortExitCritical>
 8005050:	2001      	movs	r0, #1
 8005052:	b004      	add	sp, #16
 8005054:	e8bd 81f0 	ldmia.w	sp!, {r4, r5, r6, r7, r8, pc}
 8005058:	9b01      	ldr	r3, [sp, #4]
 800505a:	2b00      	cmp	r3, #0
 800505c:	d0d9      	beq.n	8005012 <xQueueReceive+0x40>
 800505e:	f04f 0350 	mov.w	r3, #80	@ 0x50
 8005062:	f383 8811 	msr	BASEPRI, r3
 8005066:	f3bf 8f6f 	isb	sy
 800506a:	f3bf 8f4f 	dsb	sy
 800506e:	e7fe      	b.n	800506e <xQueueReceive+0x9c>
 8005070:	9b01      	ldr	r3, [sp, #4]
 8005072:	b91b      	cbnz	r3, 800507c <xQueueReceive+0xaa>
 8005074:	f001 fa4e 	bl	8006514 <vPortExitCritical>
 8005078:	2000      	movs	r0, #0
 800507a:	e7ea      	b.n	8005052 <xQueueReceive+0x80>
 800507c:	b915      	cbnz	r5, 8005084 <xQueueReceive+0xb2>
 800507e:	a802      	add	r0, sp, #8
 8005080:	f000 fe78 	bl	8005d74 <vTaskInternalSetTimeOutState>
 8005084:	f001 fa46 	bl	8006514 <vPortExitCritical>
 8005088:	f000 fc08 	bl	800589c <vTaskSuspendAll>
 800508c:	f001 fa22 	bl	80064d4 <vPortEnterCritical>
 8005090:	f894 3044 	ldrb.w	r3, [r4, #68]	@ 0x44
 8005094:	2bff      	cmp	r3, #255	@ 0xff
 8005096:	bf08      	it	eq
 8005098:	f884 8044 	strbeq.w	r8, [r4, #68]	@ 0x44
 800509c:	f894 3045 	ldrb.w	r3, [r4, #69]	@ 0x45
 80050a0:	2bff      	cmp	r3, #255	@ 0xff
 80050a2:	bf08      	it	eq
 80050a4:	f884 8045 	strbeq.w	r8, [r4, #69]	@ 0x45
 80050a8:	f001 fa34 	bl	8006514 <vPortExitCritical>
 80050ac:	a901      	add	r1, sp, #4
 80050ae:	a802      	add	r0, sp, #8
 80050b0:	f000 fe6c 	bl	8005d8c <xTaskCheckForTimeOut>
 80050b4:	bb00      	cbnz	r0, 80050f8 <xQueueReceive+0x126>
 80050b6:	4620      	mov	r0, r4
 80050b8:	f7ff fd12 	bl	8004ae0 <prvIsQueueEmpty>
 80050bc:	b1b0      	cbz	r0, 80050ec <xQueueReceive+0x11a>
 80050be:	9901      	ldr	r1, [sp, #4]
 80050c0:	f104 0024 	add.w	r0, r4, #36	@ 0x24
 80050c4:	f000 fd70 	bl	8005ba8 <vTaskPlaceOnEventList>
 80050c8:	4620      	mov	r0, r4
 80050ca:	f7ff fd5d 	bl	8004b88 <prvUnlockQueue>
 80050ce:	f000 fc89 	bl	80059e4 <xTaskResumeAll>
 80050d2:	b948      	cbnz	r0, 80050e8 <xQueueReceive+0x116>
 80050d4:	f04f 23e0 	mov.w	r3, #3758153728	@ 0xe000e000
 80050d8:	f04f 5280 	mov.w	r2, #268435456	@ 0x10000000
 80050dc:	f8c3 2d04 	str.w	r2, [r3, #3332]	@ 0xd04
 80050e0:	f3bf 8f4f 	dsb	sy
 80050e4:	f3bf 8f6f 	isb	sy
 80050e8:	2501      	movs	r5, #1
 80050ea:	e794      	b.n	8005016 <xQueueReceive+0x44>
 80050ec:	4620      	mov	r0, r4
 80050ee:	f7ff fd4b 	bl	8004b88 <prvUnlockQueue>
 80050f2:	f000 fc77 	bl	80059e4 <xTaskResumeAll>
 80050f6:	e7f7      	b.n	80050e8 <xQueueReceive+0x116>
 80050f8:	4620      	mov	r0, r4
 80050fa:	f7ff fd45 	bl	8004b88 <prvUnlockQueue>
 80050fe:	f000 fc71 	bl	80059e4 <xTaskResumeAll>
 8005102:	4620      	mov	r0, r4
 8005104:	f7ff fcec 	bl	8004ae0 <prvIsQueueEmpty>
 8005108:	2800      	cmp	r0, #0
 800510a:	d0ed      	beq.n	80050e8 <xQueueReceive+0x116>
 800510c:	e7b4      	b.n	8005078 <xQueueReceive+0xa6>

0800510e <xQueueSemaphoreTake>:
 800510e:	b5f0      	push	{r4, r5, r6, r7, lr}
 8005110:	b085      	sub	sp, #20
 8005112:	4604      	mov	r4, r0
 8005114:	9101      	str	r1, [sp, #4]
 8005116:	b940      	cbnz	r0, 800512a <xQueueSemaphoreTake+0x1c>
 8005118:	f04f 0350 	mov.w	r3, #80	@ 0x50
 800511c:	f383 8811 	msr	BASEPRI, r3
 8005120:	f3bf 8f6f 	isb	sy
 8005124:	f3bf 8f4f 	dsb	sy
 8005128:	e7fe      	b.n	8005128 <xQueueSemaphoreTake+0x1a>
 800512a:	6c05      	ldr	r5, [r0, #64]	@ 0x40
 800512c:	b145      	cbz	r5, 8005140 <xQueueSemaphoreTake+0x32>
 800512e:	f04f 0350 	mov.w	r3, #80	@ 0x50
 8005132:	f383 8811 	msr	BASEPRI, r3
 8005136:	f3bf 8f6f 	isb	sy
 800513a:	f3bf 8f4f 	dsb	sy
 800513e:	e7fe      	b.n	800513e <xQueueSemaphoreTake+0x30>
 8005140:	f000 fe6c 	bl	8005e1c <xTaskGetSchedulerState>
 8005144:	4606      	mov	r6, r0
 8005146:	b320      	cbz	r0, 8005192 <xQueueSemaphoreTake+0x84>
 8005148:	462e      	mov	r6, r5
 800514a:	2700      	movs	r7, #0
 800514c:	f001 f9c2 	bl	80064d4 <vPortEnterCritical>
 8005150:	6ba3      	ldr	r3, [r4, #56]	@ 0x38
 8005152:	b353      	cbz	r3, 80051aa <xQueueSemaphoreTake+0x9c>
 8005154:	3b01      	subs	r3, #1
 8005156:	63a3      	str	r3, [r4, #56]	@ 0x38
 8005158:	6823      	ldr	r3, [r4, #0]
 800515a:	b913      	cbnz	r3, 8005162 <xQueueSemaphoreTake+0x54>
 800515c:	f000 ff48 	bl	8005ff0 <pvTaskIncrementMutexHeldCount>
 8005160:	60a0      	str	r0, [r4, #8]
 8005162:	6923      	ldr	r3, [r4, #16]
 8005164:	b173      	cbz	r3, 8005184 <xQueueSemaphoreTake+0x76>
 8005166:	f104 0010 	add.w	r0, r4, #16
 800516a:	f000 fd81 	bl	8005c70 <xTaskRemoveFromEventList>
 800516e:	b148      	cbz	r0, 8005184 <xQueueSemaphoreTake+0x76>
 8005170:	f04f 23e0 	mov.w	r3, #3758153728	@ 0xe000e000
 8005174:	f04f 5280 	mov.w	r2, #268435456	@ 0x10000000
 8005178:	f8c3 2d04 	str.w	r2, [r3, #3332]	@ 0xd04
 800517c:	f3bf 8f4f 	dsb	sy
 8005180:	f3bf 8f6f 	isb	sy
 8005184:	f001 f9c6 	bl	8006514 <vPortExitCritical>
 8005188:	2001      	movs	r0, #1
 800518a:	b005      	add	sp, #20
 800518c:	bdf0      	pop	{r4, r5, r6, r7, pc}
 800518e:	4635      	mov	r5, r6
 8005190:	e7db      	b.n	800514a <xQueueSemaphoreTake+0x3c>
 8005192:	9b01      	ldr	r3, [sp, #4]
 8005194:	2b00      	cmp	r3, #0
 8005196:	d0fa      	beq.n	800518e <xQueueSemaphoreTake+0x80>
 8005198:	f04f 0350 	mov.w	r3, #80	@ 0x50
 800519c:	f383 8811 	msr	BASEPRI, r3
 80051a0:	f3bf 8f6f 	isb	sy
 80051a4:	f3bf 8f4f 	dsb	sy
 80051a8:	e7fe      	b.n	80051a8 <xQueueSemaphoreTake+0x9a>
 80051aa:	9b01      	ldr	r3, [sp, #4]
 80051ac:	b953      	cbnz	r3, 80051c4 <xQueueSemaphoreTake+0xb6>
 80051ae:	2d00      	cmp	r5, #0
 80051b0:	d066      	beq.n	8005280 <xQueueSemaphoreTake+0x172>
 80051b2:	f04f 0350 	mov.w	r3, #80	@ 0x50
 80051b6:	f383 8811 	msr	BASEPRI, r3
 80051ba:	f3bf 8f6f 	isb	sy
 80051be:	f3bf 8f4f 	dsb	sy
 80051c2:	e7fe      	b.n	80051c2 <xQueueSemaphoreTake+0xb4>
 80051c4:	b916      	cbnz	r6, 80051cc <xQueueSemaphoreTake+0xbe>
 80051c6:	a802      	add	r0, sp, #8
 80051c8:	f000 fdd4 	bl	8005d74 <vTaskInternalSetTimeOutState>
 80051cc:	f001 f9a2 	bl	8006514 <vPortExitCritical>
 80051d0:	f000 fb64 	bl	800589c <vTaskSuspendAll>
 80051d4:	f001 f97e 	bl	80064d4 <vPortEnterCritical>
 80051d8:	f894 3044 	ldrb.w	r3, [r4, #68]	@ 0x44
 80051dc:	2bff      	cmp	r3, #255	@ 0xff
 80051de:	bf08      	it	eq
 80051e0:	f884 7044 	strbeq.w	r7, [r4, #68]	@ 0x44
 80051e4:	f894 3045 	ldrb.w	r3, [r4, #69]	@ 0x45
 80051e8:	2bff      	cmp	r3, #255	@ 0xff
 80051ea:	bf08      	it	eq
 80051ec:	f884 7045 	strbeq.w	r7, [r4, #69]	@ 0x45
 80051f0:	f001 f990 	bl	8006514 <vPortExitCritical>
 80051f4:	a901      	add	r1, sp, #4
 80051f6:	a802      	add	r0, sp, #8
 80051f8:	f000 fdc8 	bl	8005d8c <xTaskCheckForTimeOut>
 80051fc:	bb50      	cbnz	r0, 8005254 <xQueueSemaphoreTake+0x146>
 80051fe:	4620      	mov	r0, r4
 8005200:	f7ff fc6e 	bl	8004ae0 <prvIsQueueEmpty>
 8005204:	b300      	cbz	r0, 8005248 <xQueueSemaphoreTake+0x13a>
 8005206:	6823      	ldr	r3, [r4, #0]
 8005208:	b93b      	cbnz	r3, 800521a <xQueueSemaphoreTake+0x10c>
 800520a:	f001 f963 	bl	80064d4 <vPortEnterCritical>
 800520e:	68a0      	ldr	r0, [r4, #8]
 8005210:	f000 fe14 	bl	8005e3c <xTaskPriorityInherit>
 8005214:	4605      	mov	r5, r0
 8005216:	f001 f97d 	bl	8006514 <vPortExitCritical>
 800521a:	9901      	ldr	r1, [sp, #4]
 800521c:	f104 0024 	add.w	r0, r4, #36	@ 0x24
 8005220:	f000 fcc2 	bl	8005ba8 <vTaskPlaceOnEventList>
 8005224:	4620      	mov	r0, r4
 8005226:	f7ff fcaf 	bl	8004b88 <prvUnlockQueue>
 800522a:	f000 fbdb 	bl	80059e4 <xTaskResumeAll>
 800522e:	b948      	cbnz	r0, 8005244 <xQueueSemaphoreTake+0x136>
 8005230:	f04f 23e0 	mov.w	r3, #3758153728	@ 0xe000e000
 8005234:	f04f 5280 	mov.w	r2, #268435456	@ 0x10000000
 8005238:	f8c3 2d04 	str.w	r2, [r3, #3332]	@ 0xd04
 800523c:	f3bf 8f4f 	dsb	sy
 8005240:	f3bf 8f6f 	isb	sy
 8005244:	2601      	movs	r6, #1
 8005246:	e781      	b.n	800514c <xQueueSemaphoreTake+0x3e>
 8005248:	4620      	mov	r0, r4
 800524a:	f7ff fc9d 	bl	8004b88 <prvUnlockQueue>
 800524e:	f000 fbc9 	bl	80059e4 <xTaskResumeAll>
 8005252:	e7f7      	b.n	8005244 <xQueueSemaphoreTake+0x136>
 8005254:	4620      	mov	r0, r4
 8005256:	f7ff fc97 	bl	8004b88 <prvUnlockQueue>
 800525a:	f000 fbc3 	bl	80059e4 <xTaskResumeAll>
 800525e:	4620      	mov	r0, r4
 8005260:	f7ff fc3e 	bl	8004ae0 <prvIsQueueEmpty>
 8005264:	2800      	cmp	r0, #0
 8005266:	d0ed      	beq.n	8005244 <xQueueSemaphoreTake+0x136>
 8005268:	b165      	cbz	r5, 8005284 <xQueueSemaphoreTake+0x176>
 800526a:	f001 f933 	bl	80064d4 <vPortEnterCritical>
 800526e:	6a61      	ldr	r1, [r4, #36]	@ 0x24
 8005270:	b119      	cbz	r1, 800527a <xQueueSemaphoreTake+0x16c>
 8005272:	6b23      	ldr	r3, [r4, #48]	@ 0x30
 8005274:	6819      	ldr	r1, [r3, #0]
 8005276:	f1c1 0138 	rsb	r1, r1, #56	@ 0x38
 800527a:	68a0      	ldr	r0, [r4, #8]
 800527c:	f000 fe5e 	bl	8005f3c <vTaskPriorityDisinheritAfterTimeout>
 8005280:	f001 f948 	bl	8006514 <vPortExitCritical>
 8005284:	2000      	movs	r0, #0
 8005286:	e780      	b.n	800518a <xQueueSemaphoreTake+0x7c>

08005288 <xQueueTakeMutexRecursive>:
 8005288:	b570      	push	{r4, r5, r6, lr}
 800528a:	460d      	mov	r5, r1
 800528c:	4604      	mov	r4, r0
 800528e:	b940      	cbnz	r0, 80052a2 <xQueueTakeMutexRecursive+0x1a>
 8005290:	f04f 0350 	mov.w	r3, #80	@ 0x50
 8005294:	f383 8811 	msr	BASEPRI, r3
 8005298:	f3bf 8f6f 	isb	sy
 800529c:	f3bf 8f4f 	dsb	sy
 80052a0:	e7fe      	b.n	80052a0 <xQueueTakeMutexRecursive+0x18>
 80052a2:	6886      	ldr	r6, [r0, #8]
 80052a4:	f000 fdb4 	bl	8005e10 <xTaskGetCurrentTaskHandle>
 80052a8:	4286      	cmp	r6, r0
 80052aa:	d104      	bne.n	80052b6 <xQueueTakeMutexRecursive+0x2e>
 80052ac:	68e3      	ldr	r3, [r4, #12]
 80052ae:	3301      	adds	r3, #1
 80052b0:	60e3      	str	r3, [r4, #12]
 80052b2:	2001      	movs	r0, #1
 80052b4:	bd70      	pop	{r4, r5, r6, pc}
 80052b6:	4629      	mov	r1, r5
 80052b8:	4620      	mov	r0, r4
 80052ba:	f7ff ff28 	bl	800510e <xQueueSemaphoreTake>
 80052be:	2800      	cmp	r0, #0
 80052c0:	d0f8      	beq.n	80052b4 <xQueueTakeMutexRecursive+0x2c>
 80052c2:	68e3      	ldr	r3, [r4, #12]
 80052c4:	3301      	adds	r3, #1
 80052c6:	60e3      	str	r3, [r4, #12]
 80052c8:	e7f4      	b.n	80052b4 <xQueueTakeMutexRecursive+0x2c>
	...

080052cc <vQueueAddToRegistry>:
 80052cc:	b530      	push	{r4, r5, lr}
 80052ce:	4a07      	ldr	r2, [pc, #28]	@ (80052ec <vQueueAddToRegistry+0x20>)
 80052d0:	2300      	movs	r3, #0
 80052d2:	f852 5033 	ldr.w	r5, [r2, r3, lsl #3]
 80052d6:	eb02 04c3 	add.w	r4, r2, r3, lsl #3
 80052da:	b91d      	cbnz	r5, 80052e4 <vQueueAddToRegistry+0x18>
 80052dc:	f842 1033 	str.w	r1, [r2, r3, lsl #3]
 80052e0:	6060      	str	r0, [r4, #4]
 80052e2:	bd30      	pop	{r4, r5, pc}
 80052e4:	3301      	adds	r3, #1
 80052e6:	2b08      	cmp	r3, #8
 80052e8:	d1f3      	bne.n	80052d2 <vQueueAddToRegistry+0x6>
 80052ea:	e7fa      	b.n	80052e2 <vQueueAddToRegistry+0x16>
 80052ec:	20001ab0 	.word	0x20001ab0

080052f0 <vQueueWaitForMessageRestricted>:
 80052f0:	b570      	push	{r4, r5, r6, lr}
 80052f2:	4604      	mov	r4, r0
 80052f4:	460d      	mov	r5, r1
 80052f6:	4616      	mov	r6, r2
 80052f8:	f001 f8ec 	bl	80064d4 <vPortEnterCritical>
 80052fc:	f894 3044 	ldrb.w	r3, [r4, #68]	@ 0x44
 8005300:	2bff      	cmp	r3, #255	@ 0xff
 8005302:	bf04      	itt	eq
 8005304:	2300      	moveq	r3, #0
 8005306:	f884 3044 	strbeq.w	r3, [r4, #68]	@ 0x44
 800530a:	f894 3045 	ldrb.w	r3, [r4, #69]	@ 0x45
 800530e:	2bff      	cmp	r3, #255	@ 0xff
 8005310:	bf04      	itt	eq
 8005312:	2300      	moveq	r3, #0
 8005314:	f884 3045 	strbeq.w	r3, [r4, #69]	@ 0x45
 8005318:	f001 f8fc 	bl	8006514 <vPortExitCritical>
 800531c:	6ba3      	ldr	r3, [r4, #56]	@ 0x38
 800531e:	b92b      	cbnz	r3, 800532c <vQueueWaitForMessageRestricted+0x3c>
 8005320:	4632      	mov	r2, r6
 8005322:	4629      	mov	r1, r5
 8005324:	f104 0024 	add.w	r0, r4, #36	@ 0x24
 8005328:	f000 fc84 	bl	8005c34 <vTaskPlaceOnEventListRestricted>
 800532c:	4620      	mov	r0, r4
 800532e:	e8bd 4070 	ldmia.w	sp!, {r4, r5, r6, lr}
 8005332:	f7ff bc29 	b.w	8004b88 <prvUnlockQueue>
	...

08005338 <prvAddNewTaskToReadyList>:
 8005338:	e92d 41f0 	stmdb	sp!, {r4, r5, r6, r7, r8, lr}
 800533c:	4604      	mov	r4, r0
 800533e:	f001 f8c9 	bl	80064d4 <vPortEnterCritical>
 8005342:	4b30      	ldr	r3, [pc, #192]	@ (8005404 <prvAddNewTaskToReadyList+0xcc>)
 8005344:	4e30      	ldr	r6, [pc, #192]	@ (8005408 <prvAddNewTaskToReadyList+0xd0>)
 8005346:	681a      	ldr	r2, [r3, #0]
 8005348:	4f30      	ldr	r7, [pc, #192]	@ (800540c <prvAddNewTaskToReadyList+0xd4>)
 800534a:	3201      	adds	r2, #1
 800534c:	601a      	str	r2, [r3, #0]
 800534e:	6835      	ldr	r5, [r6, #0]
 8005350:	2d00      	cmp	r5, #0
 8005352:	d14b      	bne.n	80053ec <prvAddNewTaskToReadyList+0xb4>
 8005354:	6034      	str	r4, [r6, #0]
 8005356:	681b      	ldr	r3, [r3, #0]
 8005358:	2b01      	cmp	r3, #1
 800535a:	d11f      	bne.n	800539c <prvAddNewTaskToReadyList+0x64>
 800535c:	46b8      	mov	r8, r7
 800535e:	4640      	mov	r0, r8
 8005360:	3501      	adds	r5, #1
 8005362:	f7ff fb7d 	bl	8004a60 <vListInitialise>
 8005366:	2d38      	cmp	r5, #56	@ 0x38
 8005368:	f108 0814 	add.w	r8, r8, #20
 800536c:	d1f7      	bne.n	800535e <prvAddNewTaskToReadyList+0x26>
 800536e:	f8df 80c4 	ldr.w	r8, [pc, #196]	@ 8005434 <prvAddNewTaskToReadyList+0xfc>
 8005372:	4d27      	ldr	r5, [pc, #156]	@ (8005410 <prvAddNewTaskToReadyList+0xd8>)
 8005374:	4640      	mov	r0, r8
 8005376:	f7ff fb73 	bl	8004a60 <vListInitialise>
 800537a:	4628      	mov	r0, r5
 800537c:	f7ff fb70 	bl	8004a60 <vListInitialise>
 8005380:	4824      	ldr	r0, [pc, #144]	@ (8005414 <prvAddNewTaskToReadyList+0xdc>)
 8005382:	f7ff fb6d 	bl	8004a60 <vListInitialise>
 8005386:	4824      	ldr	r0, [pc, #144]	@ (8005418 <prvAddNewTaskToReadyList+0xe0>)
 8005388:	f7ff fb6a 	bl	8004a60 <vListInitialise>
 800538c:	4823      	ldr	r0, [pc, #140]	@ (800541c <prvAddNewTaskToReadyList+0xe4>)
 800538e:	f7ff fb67 	bl	8004a60 <vListInitialise>
 8005392:	4b23      	ldr	r3, [pc, #140]	@ (8005420 <prvAddNewTaskToReadyList+0xe8>)
 8005394:	f8c3 8000 	str.w	r8, [r3]
 8005398:	4b22      	ldr	r3, [pc, #136]	@ (8005424 <prvAddNewTaskToReadyList+0xec>)
 800539a:	601d      	str	r5, [r3, #0]
 800539c:	4a22      	ldr	r2, [pc, #136]	@ (8005428 <prvAddNewTaskToReadyList+0xf0>)
 800539e:	6813      	ldr	r3, [r2, #0]
 80053a0:	3301      	adds	r3, #1
 80053a2:	6013      	str	r3, [r2, #0]
 80053a4:	4a21      	ldr	r2, [pc, #132]	@ (800542c <prvAddNewTaskToReadyList+0xf4>)
 80053a6:	64a3      	str	r3, [r4, #72]	@ 0x48
 80053a8:	6811      	ldr	r1, [r2, #0]
 80053aa:	6ae3      	ldr	r3, [r4, #44]	@ 0x2c
 80053ac:	2014      	movs	r0, #20
 80053ae:	428b      	cmp	r3, r1
 80053b0:	fb00 7003 	mla	r0, r0, r3, r7
 80053b4:	f104 0104 	add.w	r1, r4, #4
 80053b8:	bf88      	it	hi
 80053ba:	6013      	strhi	r3, [r2, #0]
 80053bc:	f7ff fb5e 	bl	8004a7c <vListInsertEnd>
 80053c0:	f001 f8a8 	bl	8006514 <vPortExitCritical>
 80053c4:	4b1a      	ldr	r3, [pc, #104]	@ (8005430 <prvAddNewTaskToReadyList+0xf8>)
 80053c6:	681b      	ldr	r3, [r3, #0]
 80053c8:	b173      	cbz	r3, 80053e8 <prvAddNewTaskToReadyList+0xb0>
 80053ca:	6833      	ldr	r3, [r6, #0]
 80053cc:	6ada      	ldr	r2, [r3, #44]	@ 0x2c
 80053ce:	6ae3      	ldr	r3, [r4, #44]	@ 0x2c
 80053d0:	429a      	cmp	r2, r3
 80053d2:	d209      	bcs.n	80053e8 <prvAddNewTaskToReadyList+0xb0>
 80053d4:	f04f 23e0 	mov.w	r3, #3758153728	@ 0xe000e000
 80053d8:	f04f 5280 	mov.w	r2, #268435456	@ 0x10000000
 80053dc:	f8c3 2d04 	str.w	r2, [r3, #3332]	@ 0xd04
 80053e0:	f3bf 8f4f 	dsb	sy
 80053e4:	f3bf 8f6f 	isb	sy
 80053e8:	e8bd 81f0 	ldmia.w	sp!, {r4, r5, r6, r7, r8, pc}
 80053ec:	4b10      	ldr	r3, [pc, #64]	@ (8005430 <prvAddNewTaskToReadyList+0xf8>)
 80053ee:	681a      	ldr	r2, [r3, #0]
 80053f0:	6ae3      	ldr	r3, [r4, #44]	@ 0x2c
 80053f2:	2a00      	cmp	r2, #0
 80053f4:	d1d2      	bne.n	800539c <prvAddNewTaskToReadyList+0x64>
 80053f6:	6832      	ldr	r2, [r6, #0]
 80053f8:	6ad2      	ldr	r2, [r2, #44]	@ 0x2c
 80053fa:	429a      	cmp	r2, r3
 80053fc:	bf98      	it	ls
 80053fe:	6034      	strls	r4, [r6, #0]
 8005400:	e7cc      	b.n	800539c <prvAddNewTaskToReadyList+0x64>
 8005402:	bf00      	nop
 8005404:	20001b18 	.word	0x20001b18
 8005408:	20001fec 	.word	0x20001fec
 800540c:	20001b8c 	.word	0x20001b8c
 8005410:	20001b64 	.word	0x20001b64
 8005414:	20001b48 	.word	0x20001b48
 8005418:	20001b34 	.word	0x20001b34
 800541c:	20001b1c 	.word	0x20001b1c
 8005420:	20001b60 	.word	0x20001b60
 8005424:	20001b5c 	.word	0x20001b5c
 8005428:	20001afc 	.word	0x20001afc
 800542c:	20001b10 	.word	0x20001b10
 8005430:	20001b0c 	.word	0x20001b0c
 8005434:	20001b78 	.word	0x20001b78

08005438 <prvAddCurrentTaskToDelayedList>:
 8005438:	b5f8      	push	{r3, r4, r5, r6, r7, lr}
 800543a:	4b15      	ldr	r3, [pc, #84]	@ (8005490 <prvAddCurrentTaskToDelayedList+0x58>)
 800543c:	4d15      	ldr	r5, [pc, #84]	@ (8005494 <prvAddCurrentTaskToDelayedList+0x5c>)
 800543e:	681c      	ldr	r4, [r3, #0]
 8005440:	4606      	mov	r6, r0
 8005442:	6828      	ldr	r0, [r5, #0]
 8005444:	3004      	adds	r0, #4
 8005446:	460f      	mov	r7, r1
 8005448:	f7ff fb3a 	bl	8004ac0 <uxListRemove>
 800544c:	1c73      	adds	r3, r6, #1
 800544e:	d107      	bne.n	8005460 <prvAddCurrentTaskToDelayedList+0x28>
 8005450:	b137      	cbz	r7, 8005460 <prvAddCurrentTaskToDelayedList+0x28>
 8005452:	6829      	ldr	r1, [r5, #0]
 8005454:	4810      	ldr	r0, [pc, #64]	@ (8005498 <prvAddCurrentTaskToDelayedList+0x60>)
 8005456:	e8bd 40f8 	ldmia.w	sp!, {r3, r4, r5, r6, r7, lr}
 800545a:	3104      	adds	r1, #4
 800545c:	f7ff bb0e 	b.w	8004a7c <vListInsertEnd>
 8005460:	682b      	ldr	r3, [r5, #0]
 8005462:	19a4      	adds	r4, r4, r6
 8005464:	605c      	str	r4, [r3, #4]
 8005466:	d307      	bcc.n	8005478 <prvAddCurrentTaskToDelayedList+0x40>
 8005468:	4b0c      	ldr	r3, [pc, #48]	@ (800549c <prvAddCurrentTaskToDelayedList+0x64>)
 800546a:	6818      	ldr	r0, [r3, #0]
 800546c:	6829      	ldr	r1, [r5, #0]
 800546e:	e8bd 40f8 	ldmia.w	sp!, {r3, r4, r5, r6, r7, lr}
 8005472:	3104      	adds	r1, #4
 8005474:	f7ff bb0d 	b.w	8004a92 <vListInsert>
 8005478:	4b09      	ldr	r3, [pc, #36]	@ (80054a0 <prvAddCurrentTaskToDelayedList+0x68>)
 800547a:	6818      	ldr	r0, [r3, #0]
 800547c:	6829      	ldr	r1, [r5, #0]
 800547e:	3104      	adds	r1, #4
 8005480:	f7ff fb07 	bl	8004a92 <vListInsert>
 8005484:	4b07      	ldr	r3, [pc, #28]	@ (80054a4 <prvAddCurrentTaskToDelayedList+0x6c>)
 8005486:	681a      	ldr	r2, [r3, #0]
 8005488:	42a2      	cmp	r2, r4
 800548a:	bf88      	it	hi
 800548c:	601c      	strhi	r4, [r3, #0]
 800548e:	bdf8      	pop	{r3, r4, r5, r6, r7, pc}
 8005490:	20001b14 	.word	0x20001b14
 8005494:	20001fec 	.word	0x20001fec
 8005498:	20001b1c 	.word	0x20001b1c
 800549c:	20001b5c 	.word	0x20001b5c
 80054a0:	20001b60 	.word	0x20001b60
 80054a4:	20001af8 	.word	0x20001af8

080054a8 <prvResetNextTaskUnblockTime>:
 80054a8:	4a06      	ldr	r2, [pc, #24]	@ (80054c4 <prvResetNextTaskUnblockTime+0x1c>)
 80054aa:	6813      	ldr	r3, [r2, #0]
 80054ac:	6819      	ldr	r1, [r3, #0]
 80054ae:	4b06      	ldr	r3, [pc, #24]	@ (80054c8 <prvResetNextTaskUnblockTime+0x20>)
 80054b0:	b919      	cbnz	r1, 80054ba <prvResetNextTaskUnblockTime+0x12>
 80054b2:	f04f 32ff 	mov.w	r2, #4294967295
 80054b6:	601a      	str	r2, [r3, #0]
 80054b8:	4770      	bx	lr
 80054ba:	6812      	ldr	r2, [r2, #0]
 80054bc:	68d2      	ldr	r2, [r2, #12]
 80054be:	68d2      	ldr	r2, [r2, #12]
 80054c0:	6852      	ldr	r2, [r2, #4]
 80054c2:	e7f8      	b.n	80054b6 <prvResetNextTaskUnblockTime+0xe>
 80054c4:	20001b60 	.word	0x20001b60
 80054c8:	20001af8 	.word	0x20001af8

080054cc <prvDeleteTCB>:
 80054cc:	b510      	push	{r4, lr}
 80054ce:	f890 3061 	ldrb.w	r3, [r0, #97]	@ 0x61
 80054d2:	4604      	mov	r4, r0
 80054d4:	b93b      	cbnz	r3, 80054e6 <prvDeleteTCB+0x1a>
 80054d6:	6b00      	ldr	r0, [r0, #48]	@ 0x30
 80054d8:	f001 f9fa 	bl	80068d0 <vPortFree>
 80054dc:	4620      	mov	r0, r4
 80054de:	e8bd 4010 	ldmia.w	sp!, {r4, lr}
 80054e2:	f001 b9f5 	b.w	80068d0 <vPortFree>
 80054e6:	2b01      	cmp	r3, #1
 80054e8:	d0f9      	beq.n	80054de <prvDeleteTCB+0x12>
 80054ea:	2b02      	cmp	r3, #2
 80054ec:	d008      	beq.n	8005500 <prvDeleteTCB+0x34>
 80054ee:	f04f 0350 	mov.w	r3, #80	@ 0x50
 80054f2:	f383 8811 	msr	BASEPRI, r3
 80054f6:	f3bf 8f6f 	isb	sy
 80054fa:	f3bf 8f4f 	dsb	sy
 80054fe:	e7fe      	b.n	80054fe <prvDeleteTCB+0x32>
 8005500:	bd10      	pop	{r4, pc}
	...

08005504 <prvIdleTask>:
 8005504:	b580      	push	{r7, lr}
 8005506:	4c14      	ldr	r4, [pc, #80]	@ (8005558 <prvIdleTask+0x54>)
 8005508:	4f14      	ldr	r7, [pc, #80]	@ (800555c <prvIdleTask+0x58>)
 800550a:	4d15      	ldr	r5, [pc, #84]	@ (8005560 <prvIdleTask+0x5c>)
 800550c:	6823      	ldr	r3, [r4, #0]
 800550e:	b983      	cbnz	r3, 8005532 <prvIdleTask+0x2e>
 8005510:	4b14      	ldr	r3, [pc, #80]	@ (8005564 <prvIdleTask+0x60>)
 8005512:	681b      	ldr	r3, [r3, #0]
 8005514:	2b01      	cmp	r3, #1
 8005516:	d909      	bls.n	800552c <prvIdleTask+0x28>
 8005518:	f04f 23e0 	mov.w	r3, #3758153728	@ 0xe000e000
 800551c:	f04f 5280 	mov.w	r2, #268435456	@ 0x10000000
 8005520:	f8c3 2d04 	str.w	r2, [r3, #3332]	@ 0xd04
 8005524:	f3bf 8f4f 	dsb	sy
 8005528:	f3bf 8f6f 	isb	sy
 800552c:	f7fa ffd3 	bl	80004d6 <vApplicationIdleHook>
 8005530:	e7eb      	b.n	800550a <prvIdleTask+0x6>
 8005532:	f000 ffcf 	bl	80064d4 <vPortEnterCritical>
 8005536:	68fb      	ldr	r3, [r7, #12]
 8005538:	68de      	ldr	r6, [r3, #12]
 800553a:	1d30      	adds	r0, r6, #4
 800553c:	f7ff fac0 	bl	8004ac0 <uxListRemove>
 8005540:	682b      	ldr	r3, [r5, #0]
 8005542:	3b01      	subs	r3, #1
 8005544:	602b      	str	r3, [r5, #0]
 8005546:	6823      	ldr	r3, [r4, #0]
 8005548:	3b01      	subs	r3, #1
 800554a:	6023      	str	r3, [r4, #0]
 800554c:	f000 ffe2 	bl	8006514 <vPortExitCritical>
 8005550:	4630      	mov	r0, r6
 8005552:	f7ff ffbb 	bl	80054cc <prvDeleteTCB>
 8005556:	e7d9      	b.n	800550c <prvIdleTask+0x8>
 8005558:	20001b30 	.word	0x20001b30
 800555c:	20001b34 	.word	0x20001b34
 8005560:	20001b18 	.word	0x20001b18
 8005564:	20001b8c 	.word	0x20001b8c

08005568 <prvInitialiseNewTask.constprop.0>:
 8005568:	e92d 47f0 	stmdb	sp!, {r4, r5, r6, r7, r8, r9, sl, lr}
 800556c:	e9dd 8409 	ldrd	r8, r4, [sp, #36]	@ 0x24
 8005570:	ea4f 0982 	mov.w	r9, r2, lsl #2
 8005574:	464a      	mov	r2, r9
 8005576:	4606      	mov	r6, r0
 8005578:	460d      	mov	r5, r1
 800557a:	6b20      	ldr	r0, [r4, #48]	@ 0x30
 800557c:	21a5      	movs	r1, #165	@ 0xa5
 800557e:	461f      	mov	r7, r3
 8005580:	f001 fa6c 	bl	8006a5c <memset>
 8005584:	6b23      	ldr	r3, [r4, #48]	@ 0x30
 8005586:	f1a9 0904 	sub.w	r9, r9, #4
 800558a:	444b      	add	r3, r9
 800558c:	f023 0907 	bic.w	r9, r3, #7
 8005590:	f8c4 9044 	str.w	r9, [r4, #68]	@ 0x44
 8005594:	b3b5      	cbz	r5, 8005604 <prvInitialiseNewTask.constprop.0+0x9c>
 8005596:	1e6b      	subs	r3, r5, #1
 8005598:	f104 0233 	add.w	r2, r4, #51	@ 0x33
 800559c:	350f      	adds	r5, #15
 800559e:	f813 1f01 	ldrb.w	r1, [r3, #1]!
 80055a2:	f802 1f01 	strb.w	r1, [r2, #1]!
 80055a6:	b109      	cbz	r1, 80055ac <prvInitialiseNewTask.constprop.0+0x44>
 80055a8:	42ab      	cmp	r3, r5
 80055aa:	d1f8      	bne.n	800559e <prvInitialiseNewTask.constprop.0+0x36>
 80055ac:	2300      	movs	r3, #0
 80055ae:	f884 3043 	strb.w	r3, [r4, #67]	@ 0x43
 80055b2:	9d08      	ldr	r5, [sp, #32]
 80055b4:	2d37      	cmp	r5, #55	@ 0x37
 80055b6:	bf28      	it	cs
 80055b8:	2537      	movcs	r5, #55	@ 0x37
 80055ba:	f04f 0a00 	mov.w	sl, #0
 80055be:	62e5      	str	r5, [r4, #44]	@ 0x2c
 80055c0:	6525      	str	r5, [r4, #80]	@ 0x50
 80055c2:	1d20      	adds	r0, r4, #4
 80055c4:	f8c4 a054 	str.w	sl, [r4, #84]	@ 0x54
 80055c8:	f7ff fa55 	bl	8004a76 <vListInitialiseItem>
 80055cc:	f1c5 0538 	rsb	r5, r5, #56	@ 0x38
 80055d0:	f104 0018 	add.w	r0, r4, #24
 80055d4:	f7ff fa4f 	bl	8004a76 <vListInitialiseItem>
 80055d8:	f8c4 a05c 	str.w	sl, [r4, #92]	@ 0x5c
 80055dc:	6124      	str	r4, [r4, #16]
 80055de:	61a5      	str	r5, [r4, #24]
 80055e0:	6264      	str	r4, [r4, #36]	@ 0x24
 80055e2:	f8c4 a058 	str.w	sl, [r4, #88]	@ 0x58
 80055e6:	f884 a060 	strb.w	sl, [r4, #96]	@ 0x60
 80055ea:	463a      	mov	r2, r7
 80055ec:	4631      	mov	r1, r6
 80055ee:	4648      	mov	r0, r9
 80055f0:	f000 ff44 	bl	800647c <pxPortInitialiseStack>
 80055f4:	6020      	str	r0, [r4, #0]
 80055f6:	f1b8 0f00 	cmp.w	r8, #0
 80055fa:	d001      	beq.n	8005600 <prvInitialiseNewTask.constprop.0+0x98>
 80055fc:	f8c8 4000 	str.w	r4, [r8]
 8005600:	e8bd 87f0 	ldmia.w	sp!, {r4, r5, r6, r7, r8, r9, sl, pc}
 8005604:	f884 5034 	strb.w	r5, [r4, #52]	@ 0x34
 8005608:	e7d3      	b.n	80055b2 <prvInitialiseNewTask.constprop.0+0x4a>

0800560a <xTaskCreateStatic>:
 800560a:	b570      	push	{r4, r5, r6, lr}
 800560c:	b086      	sub	sp, #24
 800560e:	e9dd 540b 	ldrd	r5, r4, [sp, #44]	@ 0x2c
 8005612:	b945      	cbnz	r5, 8005626 <xTaskCreateStatic+0x1c>
 8005614:	f04f 0350 	mov.w	r3, #80	@ 0x50
 8005618:	f383 8811 	msr	BASEPRI, r3
 800561c:	f3bf 8f6f 	isb	sy
 8005620:	f3bf 8f4f 	dsb	sy
 8005624:	e7fe      	b.n	8005624 <xTaskCreateStatic+0x1a>
 8005626:	b944      	cbnz	r4, 800563a <xTaskCreateStatic+0x30>
 8005628:	f04f 0350 	mov.w	r3, #80	@ 0x50
 800562c:	f383 8811 	msr	BASEPRI, r3
 8005630:	f3bf 8f6f 	isb	sy
 8005634:	f3bf 8f4f 	dsb	sy
 8005638:	e7fe      	b.n	8005638 <xTaskCreateStatic+0x2e>
 800563a:	2664      	movs	r6, #100	@ 0x64
 800563c:	9605      	str	r6, [sp, #20]
 800563e:	9e05      	ldr	r6, [sp, #20]
 8005640:	2e64      	cmp	r6, #100	@ 0x64
 8005642:	d008      	beq.n	8005656 <xTaskCreateStatic+0x4c>
 8005644:	f04f 0350 	mov.w	r3, #80	@ 0x50
 8005648:	f383 8811 	msr	BASEPRI, r3
 800564c:	f3bf 8f6f 	isb	sy
 8005650:	f3bf 8f4f 	dsb	sy
 8005654:	e7fe      	b.n	8005654 <xTaskCreateStatic+0x4a>
 8005656:	6325      	str	r5, [r4, #48]	@ 0x30
 8005658:	2502      	movs	r5, #2
 800565a:	f884 5061 	strb.w	r5, [r4, #97]	@ 0x61
 800565e:	ad04      	add	r5, sp, #16
 8005660:	9501      	str	r5, [sp, #4]
 8005662:	9d0a      	ldr	r5, [sp, #40]	@ 0x28
 8005664:	9402      	str	r4, [sp, #8]
 8005666:	9500      	str	r5, [sp, #0]
 8005668:	9e05      	ldr	r6, [sp, #20]
 800566a:	f7ff ff7d 	bl	8005568 <prvInitialiseNewTask.constprop.0>
 800566e:	4620      	mov	r0, r4
 8005670:	f7ff fe62 	bl	8005338 <prvAddNewTaskToReadyList>
 8005674:	9804      	ldr	r0, [sp, #16]
 8005676:	b006      	add	sp, #24
 8005678:	bd70      	pop	{r4, r5, r6, pc}

0800567a <xTaskCreate>:
 800567a:	e92d 43f0 	stmdb	sp!, {r4, r5, r6, r7, r8, r9, lr}
 800567e:	4607      	mov	r7, r0
 8005680:	b085      	sub	sp, #20
 8005682:	0090      	lsls	r0, r2, #2
 8005684:	4688      	mov	r8, r1
 8005686:	4616      	mov	r6, r2
 8005688:	4699      	mov	r9, r3
 800568a:	f001 f889 	bl	80067a0 <pvPortMalloc>
 800568e:	4605      	mov	r5, r0
 8005690:	b920      	cbnz	r0, 800569c <xTaskCreate+0x22>
 8005692:	f04f 30ff 	mov.w	r0, #4294967295
 8005696:	b005      	add	sp, #20
 8005698:	e8bd 83f0 	ldmia.w	sp!, {r4, r5, r6, r7, r8, r9, pc}
 800569c:	2064      	movs	r0, #100	@ 0x64
 800569e:	f001 f87f 	bl	80067a0 <pvPortMalloc>
 80056a2:	4604      	mov	r4, r0
 80056a4:	b198      	cbz	r0, 80056ce <xTaskCreate+0x54>
 80056a6:	2300      	movs	r3, #0
 80056a8:	f880 3061 	strb.w	r3, [r0, #97]	@ 0x61
 80056ac:	9b0d      	ldr	r3, [sp, #52]	@ 0x34
 80056ae:	6305      	str	r5, [r0, #48]	@ 0x30
 80056b0:	9301      	str	r3, [sp, #4]
 80056b2:	9b0c      	ldr	r3, [sp, #48]	@ 0x30
 80056b4:	9002      	str	r0, [sp, #8]
 80056b6:	9300      	str	r3, [sp, #0]
 80056b8:	4632      	mov	r2, r6
 80056ba:	464b      	mov	r3, r9
 80056bc:	4641      	mov	r1, r8
 80056be:	4638      	mov	r0, r7
 80056c0:	f7ff ff52 	bl	8005568 <prvInitialiseNewTask.constprop.0>
 80056c4:	4620      	mov	r0, r4
 80056c6:	f7ff fe37 	bl	8005338 <prvAddNewTaskToReadyList>
 80056ca:	2001      	movs	r0, #1
 80056cc:	e7e3      	b.n	8005696 <xTaskCreate+0x1c>
 80056ce:	4628      	mov	r0, r5
 80056d0:	f001 f8fe 	bl	80068d0 <vPortFree>
 80056d4:	e7dd      	b.n	8005692 <xTaskCreate+0x18>
	...

080056d8 <vTaskDelete>:
 80056d8:	b570      	push	{r4, r5, r6, lr}
 80056da:	4604      	mov	r4, r0
 80056dc:	4d23      	ldr	r5, [pc, #140]	@ (800576c <vTaskDelete+0x94>)
 80056de:	f000 fef9 	bl	80064d4 <vPortEnterCritical>
 80056e2:	b904      	cbnz	r4, 80056e6 <vTaskDelete+0xe>
 80056e4:	682c      	ldr	r4, [r5, #0]
 80056e6:	1d26      	adds	r6, r4, #4
 80056e8:	4630      	mov	r0, r6
 80056ea:	f7ff f9e9 	bl	8004ac0 <uxListRemove>
 80056ee:	6aa3      	ldr	r3, [r4, #40]	@ 0x28
 80056f0:	b11b      	cbz	r3, 80056fa <vTaskDelete+0x22>
 80056f2:	f104 0018 	add.w	r0, r4, #24
 80056f6:	f7ff f9e3 	bl	8004ac0 <uxListRemove>
 80056fa:	4a1d      	ldr	r2, [pc, #116]	@ (8005770 <vTaskDelete+0x98>)
 80056fc:	6813      	ldr	r3, [r2, #0]
 80056fe:	3301      	adds	r3, #1
 8005700:	6013      	str	r3, [r2, #0]
 8005702:	682b      	ldr	r3, [r5, #0]
 8005704:	42a3      	cmp	r3, r4
 8005706:	d11b      	bne.n	8005740 <vTaskDelete+0x68>
 8005708:	481a      	ldr	r0, [pc, #104]	@ (8005774 <vTaskDelete+0x9c>)
 800570a:	4631      	mov	r1, r6
 800570c:	f7ff f9b6 	bl	8004a7c <vListInsertEnd>
 8005710:	4a19      	ldr	r2, [pc, #100]	@ (8005778 <vTaskDelete+0xa0>)
 8005712:	6813      	ldr	r3, [r2, #0]
 8005714:	3301      	adds	r3, #1
 8005716:	6013      	str	r3, [r2, #0]
 8005718:	f000 fefc 	bl	8006514 <vPortExitCritical>
 800571c:	4b17      	ldr	r3, [pc, #92]	@ (800577c <vTaskDelete+0xa4>)
 800571e:	681b      	ldr	r3, [r3, #0]
 8005720:	b313      	cbz	r3, 8005768 <vTaskDelete+0x90>
 8005722:	682b      	ldr	r3, [r5, #0]
 8005724:	42a3      	cmp	r3, r4
 8005726:	d11f      	bne.n	8005768 <vTaskDelete+0x90>
 8005728:	4b15      	ldr	r3, [pc, #84]	@ (8005780 <vTaskDelete+0xa8>)
 800572a:	681b      	ldr	r3, [r3, #0]
 800572c:	b193      	cbz	r3, 8005754 <vTaskDelete+0x7c>
 800572e:	f04f 0350 	mov.w	r3, #80	@ 0x50
 8005732:	f383 8811 	msr	BASEPRI, r3
 8005736:	f3bf 8f6f 	isb	sy
 800573a:	f3bf 8f4f 	dsb	sy
 800573e:	e7fe      	b.n	800573e <vTaskDelete+0x66>
 8005740:	4a10      	ldr	r2, [pc, #64]	@ (8005784 <vTaskDelete+0xac>)
 8005742:	6813      	ldr	r3, [r2, #0]
 8005744:	4620      	mov	r0, r4
 8005746:	3b01      	subs	r3, #1
 8005748:	6013      	str	r3, [r2, #0]
 800574a:	f7ff febf 	bl	80054cc <prvDeleteTCB>
 800574e:	f7ff feab 	bl	80054a8 <prvResetNextTaskUnblockTime>
 8005752:	e7e1      	b.n	8005718 <vTaskDelete+0x40>
 8005754:	f04f 23e0 	mov.w	r3, #3758153728	@ 0xe000e000
 8005758:	f04f 5280 	mov.w	r2, #268435456	@ 0x10000000
 800575c:	f8c3 2d04 	str.w	r2, [r3, #3332]	@ 0xd04
 8005760:	f3bf 8f4f 	dsb	sy
 8005764:	f3bf 8f6f 	isb	sy
 8005768:	bd70      	pop	{r4, r5, r6, pc}
 800576a:	bf00      	nop
 800576c:	20001fec 	.word	0x20001fec
 8005770:	20001afc 	.word	0x20001afc
 8005774:	20001b34 	.word	0x20001b34
 8005778:	20001b30 	.word	0x20001b30
 800577c:	20001b0c 	.word	0x20001b0c
 8005780:	20001af4 	.word	0x20001af4
 8005784:	20001b18 	.word	0x20001b18

08005788 <eTaskGetState>:
 8005788:	b5f8      	push	{r3, r4, r5, r6, r7, lr}
 800578a:	4604      	mov	r4, r0
 800578c:	b940      	cbnz	r0, 80057a0 <eTaskGetState+0x18>
 800578e:	f04f 0350 	mov.w	r3, #80	@ 0x50
 8005792:	f383 8811 	msr	BASEPRI, r3
 8005796:	f3bf 8f6f 	isb	sy
 800579a:	f3bf 8f4f 	dsb	sy
 800579e:	e7fe      	b.n	800579e <eTaskGetState+0x16>
 80057a0:	4b15      	ldr	r3, [pc, #84]	@ (80057f8 <eTaskGetState+0x70>)
 80057a2:	681b      	ldr	r3, [r3, #0]
 80057a4:	4283      	cmp	r3, r0
 80057a6:	d020      	beq.n	80057ea <eTaskGetState+0x62>
 80057a8:	f000 fe94 	bl	80064d4 <vPortEnterCritical>
 80057ac:	4b13      	ldr	r3, [pc, #76]	@ (80057fc <eTaskGetState+0x74>)
 80057ae:	6965      	ldr	r5, [r4, #20]
 80057b0:	681f      	ldr	r7, [r3, #0]
 80057b2:	4b13      	ldr	r3, [pc, #76]	@ (8005800 <eTaskGetState+0x78>)
 80057b4:	681e      	ldr	r6, [r3, #0]
 80057b6:	f000 fead 	bl	8006514 <vPortExitCritical>
 80057ba:	42bd      	cmp	r5, r7
 80057bc:	d017      	beq.n	80057ee <eTaskGetState+0x66>
 80057be:	42b5      	cmp	r5, r6
 80057c0:	d015      	beq.n	80057ee <eTaskGetState+0x66>
 80057c2:	4b10      	ldr	r3, [pc, #64]	@ (8005804 <eTaskGetState+0x7c>)
 80057c4:	429d      	cmp	r5, r3
 80057c6:	d108      	bne.n	80057da <eTaskGetState+0x52>
 80057c8:	6aa3      	ldr	r3, [r4, #40]	@ 0x28
 80057ca:	b983      	cbnz	r3, 80057ee <eTaskGetState+0x66>
 80057cc:	f894 3060 	ldrb.w	r3, [r4, #96]	@ 0x60
 80057d0:	2b01      	cmp	r3, #1
 80057d2:	bf14      	ite	ne
 80057d4:	2003      	movne	r0, #3
 80057d6:	2002      	moveq	r0, #2
 80057d8:	bdf8      	pop	{r3, r4, r5, r6, r7, pc}
 80057da:	4b0b      	ldr	r3, [pc, #44]	@ (8005808 <eTaskGetState+0x80>)
 80057dc:	429d      	cmp	r5, r3
 80057de:	d008      	beq.n	80057f2 <eTaskGetState+0x6a>
 80057e0:	2d00      	cmp	r5, #0
 80057e2:	bf14      	ite	ne
 80057e4:	2001      	movne	r0, #1
 80057e6:	2004      	moveq	r0, #4
 80057e8:	e7f6      	b.n	80057d8 <eTaskGetState+0x50>
 80057ea:	2000      	movs	r0, #0
 80057ec:	e7f4      	b.n	80057d8 <eTaskGetState+0x50>
 80057ee:	2002      	movs	r0, #2
 80057f0:	e7f2      	b.n	80057d8 <eTaskGetState+0x50>
 80057f2:	2004      	movs	r0, #4
 80057f4:	e7f0      	b.n	80057d8 <eTaskGetState+0x50>
 80057f6:	bf00      	nop
 80057f8:	20001fec 	.word	0x20001fec
 80057fc:	20001b60 	.word	0x20001b60
 8005800:	20001b5c 	.word	0x20001b5c
 8005804:	20001b1c 	.word	0x20001b1c
 8005808:	20001b34 	.word	0x20001b34

0800580c <vTaskStartScheduler>:
 800580c:	b510      	push	{r4, lr}
 800580e:	b088      	sub	sp, #32
 8005810:	2400      	movs	r4, #0
 8005812:	aa07      	add	r2, sp, #28
 8005814:	a906      	add	r1, sp, #24
 8005816:	a805      	add	r0, sp, #20
 8005818:	e9cd 4405 	strd	r4, r4, [sp, #20]
 800581c:	f7ff f800 	bl	8004820 <vApplicationGetIdleTaskMemory>
 8005820:	9b05      	ldr	r3, [sp, #20]
 8005822:	9302      	str	r3, [sp, #8]
 8005824:	9b06      	ldr	r3, [sp, #24]
 8005826:	9a07      	ldr	r2, [sp, #28]
 8005828:	4917      	ldr	r1, [pc, #92]	@ (8005888 <vTaskStartScheduler+0x7c>)
 800582a:	4818      	ldr	r0, [pc, #96]	@ (800588c <vTaskStartScheduler+0x80>)
 800582c:	e9cd 4300 	strd	r4, r3, [sp]
 8005830:	4623      	mov	r3, r4
 8005832:	f7ff feea 	bl	800560a <xTaskCreateStatic>
 8005836:	b328      	cbz	r0, 8005884 <vTaskStartScheduler+0x78>
 8005838:	f000 fc38 	bl	80060ac <xTimerCreateTimerTask>
 800583c:	2801      	cmp	r0, #1
 800583e:	d116      	bne.n	800586e <vTaskStartScheduler+0x62>
 8005840:	f04f 0350 	mov.w	r3, #80	@ 0x50
 8005844:	f383 8811 	msr	BASEPRI, r3
 8005848:	f3bf 8f6f 	isb	sy
 800584c:	f3bf 8f4f 	dsb	sy
 8005850:	4b0f      	ldr	r3, [pc, #60]	@ (8005890 <vTaskStartScheduler+0x84>)
 8005852:	f04f 32ff 	mov.w	r2, #4294967295
 8005856:	601a      	str	r2, [r3, #0]
 8005858:	4b0e      	ldr	r3, [pc, #56]	@ (8005894 <vTaskStartScheduler+0x88>)
 800585a:	6018      	str	r0, [r3, #0]
 800585c:	4b0e      	ldr	r3, [pc, #56]	@ (8005898 <vTaskStartScheduler+0x8c>)
 800585e:	601c      	str	r4, [r3, #0]
 8005860:	f7fa fe36 	bl	80004d0 <configureTimerForRunTimeStats>
 8005864:	b008      	add	sp, #32
 8005866:	e8bd 4010 	ldmia.w	sp!, {r4, lr}
 800586a:	f000 bec3 	b.w	80065f4 <xPortStartScheduler>
 800586e:	3001      	adds	r0, #1
 8005870:	d108      	bne.n	8005884 <vTaskStartScheduler+0x78>
 8005872:	f04f 0350 	mov.w	r3, #80	@ 0x50
 8005876:	f383 8811 	msr	BASEPRI, r3
 800587a:	f3bf 8f6f 	isb	sy
 800587e:	f3bf 8f4f 	dsb	sy
 8005882:	e7fe      	b.n	8005882 <vTaskStartScheduler+0x76>
 8005884:	b008      	add	sp, #32
 8005886:	bd10      	pop	{r4, pc}
 8005888:	080074e9 	.word	0x080074e9
 800588c:	08005505 	.word	0x08005505
 8005890:	20001af8 	.word	0x20001af8
 8005894:	20001b0c 	.word	0x20001b0c
 8005898:	20001b14 	.word	0x20001b14

0800589c <vTaskSuspendAll>:
 800589c:	4a02      	ldr	r2, [pc, #8]	@ (80058a8 <vTaskSuspendAll+0xc>)
 800589e:	6813      	ldr	r3, [r2, #0]
 80058a0:	3301      	adds	r3, #1
 80058a2:	6013      	str	r3, [r2, #0]
 80058a4:	4770      	bx	lr
 80058a6:	bf00      	nop
 80058a8:	20001af4 	.word	0x20001af4

080058ac <xTaskGetTickCount>:
 80058ac:	4b01      	ldr	r3, [pc, #4]	@ (80058b4 <xTaskGetTickCount+0x8>)
 80058ae:	6818      	ldr	r0, [r3, #0]
 80058b0:	4770      	bx	lr
 80058b2:	bf00      	nop
 80058b4:	20001b14 	.word	0x20001b14

080058b8 <xTaskIncrementTick>:
 80058b8:	4b3f      	ldr	r3, [pc, #252]	@ (80059b8 <xTaskIncrementTick+0x100>)
 80058ba:	681b      	ldr	r3, [r3, #0]
 80058bc:	e92d 4ff7 	stmdb	sp!, {r0, r1, r2, r4, r5, r6, r7, r8, r9, sl, fp, lr}
 80058c0:	2b00      	cmp	r3, #0
 80058c2:	d172      	bne.n	80059aa <xTaskIncrementTick+0xf2>
 80058c4:	4b3d      	ldr	r3, [pc, #244]	@ (80059bc <xTaskIncrementTick+0x104>)
 80058c6:	681c      	ldr	r4, [r3, #0]
 80058c8:	3401      	adds	r4, #1
 80058ca:	601c      	str	r4, [r3, #0]
 80058cc:	b9bc      	cbnz	r4, 80058fe <xTaskIncrementTick+0x46>
 80058ce:	4b3c      	ldr	r3, [pc, #240]	@ (80059c0 <xTaskIncrementTick+0x108>)
 80058d0:	681a      	ldr	r2, [r3, #0]
 80058d2:	6812      	ldr	r2, [r2, #0]
 80058d4:	b142      	cbz	r2, 80058e8 <xTaskIncrementTick+0x30>
 80058d6:	f04f 0350 	mov.w	r3, #80	@ 0x50
 80058da:	f383 8811 	msr	BASEPRI, r3
 80058de:	f3bf 8f6f 	isb	sy
 80058e2:	f3bf 8f4f 	dsb	sy
 80058e6:	e7fe      	b.n	80058e6 <xTaskIncrementTick+0x2e>
 80058e8:	4a36      	ldr	r2, [pc, #216]	@ (80059c4 <xTaskIncrementTick+0x10c>)
 80058ea:	6819      	ldr	r1, [r3, #0]
 80058ec:	6810      	ldr	r0, [r2, #0]
 80058ee:	6018      	str	r0, [r3, #0]
 80058f0:	6011      	str	r1, [r2, #0]
 80058f2:	4a35      	ldr	r2, [pc, #212]	@ (80059c8 <xTaskIncrementTick+0x110>)
 80058f4:	6813      	ldr	r3, [r2, #0]
 80058f6:	3301      	adds	r3, #1
 80058f8:	6013      	str	r3, [r2, #0]
 80058fa:	f7ff fdd5 	bl	80054a8 <prvResetNextTaskUnblockTime>
 80058fe:	4d33      	ldr	r5, [pc, #204]	@ (80059cc <xTaskIncrementTick+0x114>)
 8005900:	4e33      	ldr	r6, [pc, #204]	@ (80059d0 <xTaskIncrementTick+0x118>)
 8005902:	682b      	ldr	r3, [r5, #0]
 8005904:	4f33      	ldr	r7, [pc, #204]	@ (80059d4 <xTaskIncrementTick+0x11c>)
 8005906:	429c      	cmp	r4, r3
 8005908:	f04f 0b00 	mov.w	fp, #0
 800590c:	d212      	bcs.n	8005934 <xTaskIncrementTick+0x7c>
 800590e:	683a      	ldr	r2, [r7, #0]
 8005910:	6ad2      	ldr	r2, [r2, #44]	@ 0x2c
 8005912:	2114      	movs	r1, #20
 8005914:	434a      	muls	r2, r1
 8005916:	58b2      	ldr	r2, [r6, r2]
 8005918:	2a02      	cmp	r2, #2
 800591a:	4a2f      	ldr	r2, [pc, #188]	@ (80059d8 <xTaskIncrementTick+0x120>)
 800591c:	6812      	ldr	r2, [r2, #0]
 800591e:	bf28      	it	cs
 8005920:	f04f 0b01 	movcs.w	fp, #1
 8005924:	2a00      	cmp	r2, #0
 8005926:	bf18      	it	ne
 8005928:	f04f 0b01 	movne.w	fp, #1
 800592c:	4658      	mov	r0, fp
 800592e:	b003      	add	sp, #12
 8005930:	e8bd 8ff0 	ldmia.w	sp!, {r4, r5, r6, r7, r8, r9, sl, fp, pc}
 8005934:	f8df 9088 	ldr.w	r9, [pc, #136]	@ 80059c0 <xTaskIncrementTick+0x108>
 8005938:	f8df a0a4 	ldr.w	sl, [pc, #164]	@ 80059e0 <xTaskIncrementTick+0x128>
 800593c:	f8d9 2000 	ldr.w	r2, [r9]
 8005940:	6812      	ldr	r2, [r2, #0]
 8005942:	b91a      	cbnz	r2, 800594c <xTaskIncrementTick+0x94>
 8005944:	f04f 32ff 	mov.w	r2, #4294967295
 8005948:	602a      	str	r2, [r5, #0]
 800594a:	e7e0      	b.n	800590e <xTaskIncrementTick+0x56>
 800594c:	f8d9 2000 	ldr.w	r2, [r9]
 8005950:	68d2      	ldr	r2, [r2, #12]
 8005952:	f8d2 800c 	ldr.w	r8, [r2, #12]
 8005956:	f8d8 1004 	ldr.w	r1, [r8, #4]
 800595a:	428c      	cmp	r4, r1
 800595c:	d201      	bcs.n	8005962 <xTaskIncrementTick+0xaa>
 800595e:	6029      	str	r1, [r5, #0]
 8005960:	e7d5      	b.n	800590e <xTaskIncrementTick+0x56>
 8005962:	f108 0304 	add.w	r3, r8, #4
 8005966:	4618      	mov	r0, r3
 8005968:	9301      	str	r3, [sp, #4]
 800596a:	f7ff f8a9 	bl	8004ac0 <uxListRemove>
 800596e:	f8d8 1028 	ldr.w	r1, [r8, #40]	@ 0x28
 8005972:	b119      	cbz	r1, 800597c <xTaskIncrementTick+0xc4>
 8005974:	f108 0018 	add.w	r0, r8, #24
 8005978:	f7ff f8a2 	bl	8004ac0 <uxListRemove>
 800597c:	f8d8 002c 	ldr.w	r0, [r8, #44]	@ 0x2c
 8005980:	f8da 1000 	ldr.w	r1, [sl]
 8005984:	2314      	movs	r3, #20
 8005986:	4288      	cmp	r0, r1
 8005988:	bf88      	it	hi
 800598a:	f8ca 0000 	strhi.w	r0, [sl]
 800598e:	9901      	ldr	r1, [sp, #4]
 8005990:	fb03 6000 	mla	r0, r3, r0, r6
 8005994:	f7ff f872 	bl	8004a7c <vListInsertEnd>
 8005998:	6838      	ldr	r0, [r7, #0]
 800599a:	f8d8 102c 	ldr.w	r1, [r8, #44]	@ 0x2c
 800599e:	6ac2      	ldr	r2, [r0, #44]	@ 0x2c
 80059a0:	4291      	cmp	r1, r2
 80059a2:	bf28      	it	cs
 80059a4:	f04f 0b01 	movcs.w	fp, #1
 80059a8:	e7c8      	b.n	800593c <xTaskIncrementTick+0x84>
 80059aa:	4a0c      	ldr	r2, [pc, #48]	@ (80059dc <xTaskIncrementTick+0x124>)
 80059ac:	6813      	ldr	r3, [r2, #0]
 80059ae:	3301      	adds	r3, #1
 80059b0:	6013      	str	r3, [r2, #0]
 80059b2:	f04f 0b00 	mov.w	fp, #0
 80059b6:	e7b9      	b.n	800592c <xTaskIncrementTick+0x74>
 80059b8:	20001af4 	.word	0x20001af4
 80059bc:	20001b14 	.word	0x20001b14
 80059c0:	20001b60 	.word	0x20001b60
 80059c4:	20001b5c 	.word	0x20001b5c
 80059c8:	20001b00 	.word	0x20001b00
 80059cc:	20001af8 	.word	0x20001af8
 80059d0:	20001b8c 	.word	0x20001b8c
 80059d4:	20001fec 	.word	0x20001fec
 80059d8:	20001b04 	.word	0x20001b04
 80059dc:	20001b08 	.word	0x20001b08
 80059e0:	20001b10 	.word	0x20001b10

080059e4 <xTaskResumeAll>:
 80059e4:	e92d 41f0 	stmdb	sp!, {r4, r5, r6, r7, r8, lr}
 80059e8:	4c30      	ldr	r4, [pc, #192]	@ (8005aac <xTaskResumeAll+0xc8>)
 80059ea:	6823      	ldr	r3, [r4, #0]
 80059ec:	b943      	cbnz	r3, 8005a00 <xTaskResumeAll+0x1c>
 80059ee:	f04f 0350 	mov.w	r3, #80	@ 0x50
 80059f2:	f383 8811 	msr	BASEPRI, r3
 80059f6:	f3bf 8f6f 	isb	sy
 80059fa:	f3bf 8f4f 	dsb	sy
 80059fe:	e7fe      	b.n	80059fe <xTaskResumeAll+0x1a>
 8005a00:	f000 fd68 	bl	80064d4 <vPortEnterCritical>
 8005a04:	6823      	ldr	r3, [r4, #0]
 8005a06:	3b01      	subs	r3, #1
 8005a08:	6023      	str	r3, [r4, #0]
 8005a0a:	6824      	ldr	r4, [r4, #0]
 8005a0c:	b12c      	cbz	r4, 8005a1a <xTaskResumeAll+0x36>
 8005a0e:	2400      	movs	r4, #0
 8005a10:	f000 fd80 	bl	8006514 <vPortExitCritical>
 8005a14:	4620      	mov	r0, r4
 8005a16:	e8bd 81f0 	ldmia.w	sp!, {r4, r5, r6, r7, r8, pc}
 8005a1a:	4b25      	ldr	r3, [pc, #148]	@ (8005ab0 <xTaskResumeAll+0xcc>)
 8005a1c:	681b      	ldr	r3, [r3, #0]
 8005a1e:	2b00      	cmp	r3, #0
 8005a20:	d0f5      	beq.n	8005a0e <xTaskResumeAll+0x2a>
 8005a22:	4d24      	ldr	r5, [pc, #144]	@ (8005ab4 <xTaskResumeAll+0xd0>)
 8005a24:	4e24      	ldr	r6, [pc, #144]	@ (8005ab8 <xTaskResumeAll+0xd4>)
 8005a26:	f8df 80a0 	ldr.w	r8, [pc, #160]	@ 8005ac8 <xTaskResumeAll+0xe4>
 8005a2a:	e01d      	b.n	8005a68 <xTaskResumeAll+0x84>
 8005a2c:	68eb      	ldr	r3, [r5, #12]
 8005a2e:	68dc      	ldr	r4, [r3, #12]
 8005a30:	1d27      	adds	r7, r4, #4
 8005a32:	f104 0018 	add.w	r0, r4, #24
 8005a36:	f7ff f843 	bl	8004ac0 <uxListRemove>
 8005a3a:	4638      	mov	r0, r7
 8005a3c:	f7ff f840 	bl	8004ac0 <uxListRemove>
 8005a40:	6ae3      	ldr	r3, [r4, #44]	@ 0x2c
 8005a42:	6832      	ldr	r2, [r6, #0]
 8005a44:	2014      	movs	r0, #20
 8005a46:	4293      	cmp	r3, r2
 8005a48:	fb00 8003 	mla	r0, r0, r3, r8
 8005a4c:	4639      	mov	r1, r7
 8005a4e:	bf88      	it	hi
 8005a50:	6033      	strhi	r3, [r6, #0]
 8005a52:	f7ff f813 	bl	8004a7c <vListInsertEnd>
 8005a56:	4b19      	ldr	r3, [pc, #100]	@ (8005abc <xTaskResumeAll+0xd8>)
 8005a58:	6ae2      	ldr	r2, [r4, #44]	@ 0x2c
 8005a5a:	681b      	ldr	r3, [r3, #0]
 8005a5c:	6adb      	ldr	r3, [r3, #44]	@ 0x2c
 8005a5e:	429a      	cmp	r2, r3
 8005a60:	d302      	bcc.n	8005a68 <xTaskResumeAll+0x84>
 8005a62:	4b17      	ldr	r3, [pc, #92]	@ (8005ac0 <xTaskResumeAll+0xdc>)
 8005a64:	2201      	movs	r2, #1
 8005a66:	601a      	str	r2, [r3, #0]
 8005a68:	682b      	ldr	r3, [r5, #0]
 8005a6a:	2b00      	cmp	r3, #0
 8005a6c:	d1de      	bne.n	8005a2c <xTaskResumeAll+0x48>
 8005a6e:	b10c      	cbz	r4, 8005a74 <xTaskResumeAll+0x90>
 8005a70:	f7ff fd1a 	bl	80054a8 <prvResetNextTaskUnblockTime>
 8005a74:	4d13      	ldr	r5, [pc, #76]	@ (8005ac4 <xTaskResumeAll+0xe0>)
 8005a76:	682c      	ldr	r4, [r5, #0]
 8005a78:	b144      	cbz	r4, 8005a8c <xTaskResumeAll+0xa8>
 8005a7a:	4e11      	ldr	r6, [pc, #68]	@ (8005ac0 <xTaskResumeAll+0xdc>)
 8005a7c:	2701      	movs	r7, #1
 8005a7e:	f7ff ff1b 	bl	80058b8 <xTaskIncrementTick>
 8005a82:	b100      	cbz	r0, 8005a86 <xTaskResumeAll+0xa2>
 8005a84:	6037      	str	r7, [r6, #0]
 8005a86:	3c01      	subs	r4, #1
 8005a88:	d1f9      	bne.n	8005a7e <xTaskResumeAll+0x9a>
 8005a8a:	602c      	str	r4, [r5, #0]
 8005a8c:	4b0c      	ldr	r3, [pc, #48]	@ (8005ac0 <xTaskResumeAll+0xdc>)
 8005a8e:	681b      	ldr	r3, [r3, #0]
 8005a90:	2b00      	cmp	r3, #0
 8005a92:	d0bc      	beq.n	8005a0e <xTaskResumeAll+0x2a>
 8005a94:	f04f 23e0 	mov.w	r3, #3758153728	@ 0xe000e000
 8005a98:	f04f 5280 	mov.w	r2, #268435456	@ 0x10000000
 8005a9c:	f8c3 2d04 	str.w	r2, [r3, #3332]	@ 0xd04
 8005aa0:	f3bf 8f4f 	dsb	sy
 8005aa4:	f3bf 8f6f 	isb	sy
 8005aa8:	2401      	movs	r4, #1
 8005aaa:	e7b1      	b.n	8005a10 <xTaskResumeAll+0x2c>
 8005aac:	20001af4 	.word	0x20001af4
 8005ab0:	20001b18 	.word	0x20001b18
 8005ab4:	20001b48 	.word	0x20001b48
 8005ab8:	20001b10 	.word	0x20001b10
 8005abc:	20001fec 	.word	0x20001fec
 8005ac0:	20001b04 	.word	0x20001b04
 8005ac4:	20001b08 	.word	0x20001b08
 8005ac8:	20001b8c 	.word	0x20001b8c

08005acc <vTaskDelay>:
 8005acc:	b508      	push	{r3, lr}
 8005ace:	b950      	cbnz	r0, 8005ae6 <vTaskDelay+0x1a>
 8005ad0:	f04f 23e0 	mov.w	r3, #3758153728	@ 0xe000e000
 8005ad4:	f04f 5280 	mov.w	r2, #268435456	@ 0x10000000
 8005ad8:	f8c3 2d04 	str.w	r2, [r3, #3332]	@ 0xd04
 8005adc:	f3bf 8f4f 	dsb	sy
 8005ae0:	f3bf 8f6f 	isb	sy
 8005ae4:	bd08      	pop	{r3, pc}
 8005ae6:	4b0a      	ldr	r3, [pc, #40]	@ (8005b10 <vTaskDelay+0x44>)
 8005ae8:	6819      	ldr	r1, [r3, #0]
 8005aea:	b141      	cbz	r1, 8005afe <vTaskDelay+0x32>
 8005aec:	f04f 0350 	mov.w	r3, #80	@ 0x50
 8005af0:	f383 8811 	msr	BASEPRI, r3
 8005af4:	f3bf 8f6f 	isb	sy
 8005af8:	f3bf 8f4f 	dsb	sy
 8005afc:	e7fe      	b.n	8005afc <vTaskDelay+0x30>
 8005afe:	f7ff fecd 	bl	800589c <vTaskSuspendAll>
 8005b02:	f7ff fc99 	bl	8005438 <prvAddCurrentTaskToDelayedList>
 8005b06:	f7ff ff6d 	bl	80059e4 <xTaskResumeAll>
 8005b0a:	2800      	cmp	r0, #0
 8005b0c:	d0e0      	beq.n	8005ad0 <vTaskDelay+0x4>
 8005b0e:	e7e9      	b.n	8005ae4 <vTaskDelay+0x18>
 8005b10:	20001af4 	.word	0x20001af4

08005b14 <vTaskSwitchContext>:
 8005b14:	4b1e      	ldr	r3, [pc, #120]	@ (8005b90 <vTaskSwitchContext+0x7c>)
 8005b16:	681a      	ldr	r2, [r3, #0]
 8005b18:	4b1e      	ldr	r3, [pc, #120]	@ (8005b94 <vTaskSwitchContext+0x80>)
 8005b1a:	b570      	push	{r4, r5, r6, lr}
 8005b1c:	b112      	cbz	r2, 8005b24 <vTaskSwitchContext+0x10>
 8005b1e:	2201      	movs	r2, #1
 8005b20:	601a      	str	r2, [r3, #0]
 8005b22:	bd70      	pop	{r4, r5, r6, pc}
 8005b24:	601a      	str	r2, [r3, #0]
 8005b26:	f7fa fcd4 	bl	80004d2 <getRunTimeCounterValue>
 8005b2a:	4a1b      	ldr	r2, [pc, #108]	@ (8005b98 <vTaskSwitchContext+0x84>)
 8005b2c:	6814      	ldr	r4, [r2, #0]
 8005b2e:	42a0      	cmp	r0, r4
 8005b30:	d905      	bls.n	8005b3e <vTaskSwitchContext+0x2a>
 8005b32:	4b1a      	ldr	r3, [pc, #104]	@ (8005b9c <vTaskSwitchContext+0x88>)
 8005b34:	6819      	ldr	r1, [r3, #0]
 8005b36:	6d8b      	ldr	r3, [r1, #88]	@ 0x58
 8005b38:	1b1b      	subs	r3, r3, r4
 8005b3a:	4403      	add	r3, r0
 8005b3c:	658b      	str	r3, [r1, #88]	@ 0x58
 8005b3e:	4d18      	ldr	r5, [pc, #96]	@ (8005ba0 <vTaskSwitchContext+0x8c>)
 8005b40:	6010      	str	r0, [r2, #0]
 8005b42:	4918      	ldr	r1, [pc, #96]	@ (8005ba4 <vTaskSwitchContext+0x90>)
 8005b44:	682a      	ldr	r2, [r5, #0]
 8005b46:	2614      	movs	r6, #20
 8005b48:	fb06 f302 	mul.w	r3, r6, r2
 8005b4c:	18c8      	adds	r0, r1, r3
 8005b4e:	58cc      	ldr	r4, [r1, r3]
 8005b50:	b18c      	cbz	r4, 8005b76 <vTaskSwitchContext+0x62>
 8005b52:	6844      	ldr	r4, [r0, #4]
 8005b54:	3308      	adds	r3, #8
 8005b56:	6864      	ldr	r4, [r4, #4]
 8005b58:	6044      	str	r4, [r0, #4]
 8005b5a:	440b      	add	r3, r1
 8005b5c:	429c      	cmp	r4, r3
 8005b5e:	bf04      	itt	eq
 8005b60:	6863      	ldreq	r3, [r4, #4]
 8005b62:	6043      	streq	r3, [r0, #4]
 8005b64:	2314      	movs	r3, #20
 8005b66:	fb03 1102 	mla	r1, r3, r2, r1
 8005b6a:	684b      	ldr	r3, [r1, #4]
 8005b6c:	68d9      	ldr	r1, [r3, #12]
 8005b6e:	4b0b      	ldr	r3, [pc, #44]	@ (8005b9c <vTaskSwitchContext+0x88>)
 8005b70:	6019      	str	r1, [r3, #0]
 8005b72:	602a      	str	r2, [r5, #0]
 8005b74:	e7d5      	b.n	8005b22 <vTaskSwitchContext+0xe>
 8005b76:	b942      	cbnz	r2, 8005b8a <vTaskSwitchContext+0x76>
 8005b78:	f04f 0350 	mov.w	r3, #80	@ 0x50
 8005b7c:	f383 8811 	msr	BASEPRI, r3
 8005b80:	f3bf 8f6f 	isb	sy
 8005b84:	f3bf 8f4f 	dsb	sy
 8005b88:	e7fe      	b.n	8005b88 <vTaskSwitchContext+0x74>
 8005b8a:	3a01      	subs	r2, #1
 8005b8c:	e7dc      	b.n	8005b48 <vTaskSwitchContext+0x34>
 8005b8e:	bf00      	nop
 8005b90:	20001af4 	.word	0x20001af4
 8005b94:	20001b04 	.word	0x20001b04
 8005b98:	20001af0 	.word	0x20001af0
 8005b9c:	20001fec 	.word	0x20001fec
 8005ba0:	20001b10 	.word	0x20001b10
 8005ba4:	20001b8c 	.word	0x20001b8c

08005ba8 <vTaskPlaceOnEventList>:
 8005ba8:	b510      	push	{r4, lr}
 8005baa:	460c      	mov	r4, r1
 8005bac:	b940      	cbnz	r0, 8005bc0 <vTaskPlaceOnEventList+0x18>
 8005bae:	f04f 0350 	mov.w	r3, #80	@ 0x50
 8005bb2:	f383 8811 	msr	BASEPRI, r3
 8005bb6:	f3bf 8f6f 	isb	sy
 8005bba:	f3bf 8f4f 	dsb	sy
 8005bbe:	e7fe      	b.n	8005bbe <vTaskPlaceOnEventList+0x16>
 8005bc0:	4b05      	ldr	r3, [pc, #20]	@ (8005bd8 <vTaskPlaceOnEventList+0x30>)
 8005bc2:	6819      	ldr	r1, [r3, #0]
 8005bc4:	3118      	adds	r1, #24
 8005bc6:	f7fe ff64 	bl	8004a92 <vListInsert>
 8005bca:	4620      	mov	r0, r4
 8005bcc:	2101      	movs	r1, #1
 8005bce:	e8bd 4010 	ldmia.w	sp!, {r4, lr}
 8005bd2:	f7ff bc31 	b.w	8005438 <prvAddCurrentTaskToDelayedList>
 8005bd6:	bf00      	nop
 8005bd8:	20001fec 	.word	0x20001fec

08005bdc <vTaskPlaceOnUnorderedEventList>:
 8005bdc:	b510      	push	{r4, lr}
 8005bde:	4614      	mov	r4, r2
 8005be0:	b940      	cbnz	r0, 8005bf4 <vTaskPlaceOnUnorderedEventList+0x18>
 8005be2:	f04f 0350 	mov.w	r3, #80	@ 0x50
 8005be6:	f383 8811 	msr	BASEPRI, r3
 8005bea:	f3bf 8f6f 	isb	sy
 8005bee:	f3bf 8f4f 	dsb	sy
 8005bf2:	e7fe      	b.n	8005bf2 <vTaskPlaceOnUnorderedEventList+0x16>
 8005bf4:	4b0d      	ldr	r3, [pc, #52]	@ (8005c2c <vTaskPlaceOnUnorderedEventList+0x50>)
 8005bf6:	681b      	ldr	r3, [r3, #0]
 8005bf8:	b943      	cbnz	r3, 8005c0c <vTaskPlaceOnUnorderedEventList+0x30>
 8005bfa:	f04f 0350 	mov.w	r3, #80	@ 0x50
 8005bfe:	f383 8811 	msr	BASEPRI, r3
 8005c02:	f3bf 8f6f 	isb	sy
 8005c06:	f3bf 8f4f 	dsb	sy
 8005c0a:	e7fe      	b.n	8005c0a <vTaskPlaceOnUnorderedEventList+0x2e>
 8005c0c:	4b08      	ldr	r3, [pc, #32]	@ (8005c30 <vTaskPlaceOnUnorderedEventList+0x54>)
 8005c0e:	681a      	ldr	r2, [r3, #0]
 8005c10:	f041 4100 	orr.w	r1, r1, #2147483648	@ 0x80000000
 8005c14:	6191      	str	r1, [r2, #24]
 8005c16:	6819      	ldr	r1, [r3, #0]
 8005c18:	3118      	adds	r1, #24
 8005c1a:	f7fe ff2f 	bl	8004a7c <vListInsertEnd>
 8005c1e:	4620      	mov	r0, r4
 8005c20:	2101      	movs	r1, #1
 8005c22:	e8bd 4010 	ldmia.w	sp!, {r4, lr}
 8005c26:	f7ff bc07 	b.w	8005438 <prvAddCurrentTaskToDelayedList>
 8005c2a:	bf00      	nop
 8005c2c:	20001af4 	.word	0x20001af4
 8005c30:	20001fec 	.word	0x20001fec

08005c34 <vTaskPlaceOnEventListRestricted>:
 8005c34:	b538      	push	{r3, r4, r5, lr}
 8005c36:	460d      	mov	r5, r1
 8005c38:	4614      	mov	r4, r2
 8005c3a:	b940      	cbnz	r0, 8005c4e <vTaskPlaceOnEventListRestricted+0x1a>
 8005c3c:	f04f 0350 	mov.w	r3, #80	@ 0x50
 8005c40:	f383 8811 	msr	BASEPRI, r3
 8005c44:	f3bf 8f6f 	isb	sy
 8005c48:	f3bf 8f4f 	dsb	sy
 8005c4c:	e7fe      	b.n	8005c4c <vTaskPlaceOnEventListRestricted+0x18>
 8005c4e:	4b07      	ldr	r3, [pc, #28]	@ (8005c6c <vTaskPlaceOnEventListRestricted+0x38>)
 8005c50:	6819      	ldr	r1, [r3, #0]
 8005c52:	3118      	adds	r1, #24
 8005c54:	f7fe ff12 	bl	8004a7c <vListInsertEnd>
 8005c58:	2c00      	cmp	r4, #0
 8005c5a:	4621      	mov	r1, r4
 8005c5c:	bf0c      	ite	eq
 8005c5e:	4628      	moveq	r0, r5
 8005c60:	f04f 30ff 	movne.w	r0, #4294967295
 8005c64:	e8bd 4038 	ldmia.w	sp!, {r3, r4, r5, lr}
 8005c68:	f7ff bbe6 	b.w	8005438 <prvAddCurrentTaskToDelayedList>
 8005c6c:	20001fec 	.word	0x20001fec

08005c70 <xTaskRemoveFromEventList>:
 8005c70:	b538      	push	{r3, r4, r5, lr}
 8005c72:	68c3      	ldr	r3, [r0, #12]
 8005c74:	68dc      	ldr	r4, [r3, #12]
 8005c76:	b944      	cbnz	r4, 8005c8a <xTaskRemoveFromEventList+0x1a>
 8005c78:	f04f 0350 	mov.w	r3, #80	@ 0x50
 8005c7c:	f383 8811 	msr	BASEPRI, r3
 8005c80:	f3bf 8f6f 	isb	sy
 8005c84:	f3bf 8f4f 	dsb	sy
 8005c88:	e7fe      	b.n	8005c88 <xTaskRemoveFromEventList+0x18>
 8005c8a:	f104 0518 	add.w	r5, r4, #24
 8005c8e:	4628      	mov	r0, r5
 8005c90:	f7fe ff16 	bl	8004ac0 <uxListRemove>
 8005c94:	4b10      	ldr	r3, [pc, #64]	@ (8005cd8 <xTaskRemoveFromEventList+0x68>)
 8005c96:	681b      	ldr	r3, [r3, #0]
 8005c98:	b9db      	cbnz	r3, 8005cd2 <xTaskRemoveFromEventList+0x62>
 8005c9a:	1d25      	adds	r5, r4, #4
 8005c9c:	4628      	mov	r0, r5
 8005c9e:	f7fe ff0f 	bl	8004ac0 <uxListRemove>
 8005ca2:	4a0e      	ldr	r2, [pc, #56]	@ (8005cdc <xTaskRemoveFromEventList+0x6c>)
 8005ca4:	6ae3      	ldr	r3, [r4, #44]	@ 0x2c
 8005ca6:	6811      	ldr	r1, [r2, #0]
 8005ca8:	428b      	cmp	r3, r1
 8005caa:	bf88      	it	hi
 8005cac:	6013      	strhi	r3, [r2, #0]
 8005cae:	4a0c      	ldr	r2, [pc, #48]	@ (8005ce0 <xTaskRemoveFromEventList+0x70>)
 8005cb0:	2014      	movs	r0, #20
 8005cb2:	4629      	mov	r1, r5
 8005cb4:	fb00 2003 	mla	r0, r0, r3, r2
 8005cb8:	f7fe fee0 	bl	8004a7c <vListInsertEnd>
 8005cbc:	4b09      	ldr	r3, [pc, #36]	@ (8005ce4 <xTaskRemoveFromEventList+0x74>)
 8005cbe:	6ae2      	ldr	r2, [r4, #44]	@ 0x2c
 8005cc0:	681b      	ldr	r3, [r3, #0]
 8005cc2:	6adb      	ldr	r3, [r3, #44]	@ 0x2c
 8005cc4:	429a      	cmp	r2, r3
 8005cc6:	bf83      	ittte	hi
 8005cc8:	4b07      	ldrhi	r3, [pc, #28]	@ (8005ce8 <xTaskRemoveFromEventList+0x78>)
 8005cca:	2001      	movhi	r0, #1
 8005ccc:	6018      	strhi	r0, [r3, #0]
 8005cce:	2000      	movls	r0, #0
 8005cd0:	bd38      	pop	{r3, r4, r5, pc}
 8005cd2:	4806      	ldr	r0, [pc, #24]	@ (8005cec <xTaskRemoveFromEventList+0x7c>)
 8005cd4:	4629      	mov	r1, r5
 8005cd6:	e7ef      	b.n	8005cb8 <xTaskRemoveFromEventList+0x48>
 8005cd8:	20001af4 	.word	0x20001af4
 8005cdc:	20001b10 	.word	0x20001b10
 8005ce0:	20001b8c 	.word	0x20001b8c
 8005ce4:	20001fec 	.word	0x20001fec
 8005ce8:	20001b04 	.word	0x20001b04
 8005cec:	20001b48 	.word	0x20001b48

08005cf0 <vTaskRemoveFromUnorderedEventList>:
 8005cf0:	4a1b      	ldr	r2, [pc, #108]	@ (8005d60 <vTaskRemoveFromUnorderedEventList+0x70>)
 8005cf2:	6812      	ldr	r2, [r2, #0]
 8005cf4:	b538      	push	{r3, r4, r5, lr}
 8005cf6:	b942      	cbnz	r2, 8005d0a <vTaskRemoveFromUnorderedEventList+0x1a>
 8005cf8:	f04f 0350 	mov.w	r3, #80	@ 0x50
 8005cfc:	f383 8811 	msr	BASEPRI, r3
 8005d00:	f3bf 8f6f 	isb	sy
 8005d04:	f3bf 8f4f 	dsb	sy
 8005d08:	e7fe      	b.n	8005d08 <vTaskRemoveFromUnorderedEventList+0x18>
 8005d0a:	68c4      	ldr	r4, [r0, #12]
 8005d0c:	f041 4100 	orr.w	r1, r1, #2147483648	@ 0x80000000
 8005d10:	6001      	str	r1, [r0, #0]
 8005d12:	b944      	cbnz	r4, 8005d26 <vTaskRemoveFromUnorderedEventList+0x36>
 8005d14:	f04f 0350 	mov.w	r3, #80	@ 0x50
 8005d18:	f383 8811 	msr	BASEPRI, r3
 8005d1c:	f3bf 8f6f 	isb	sy
 8005d20:	f3bf 8f4f 	dsb	sy
 8005d24:	e7fe      	b.n	8005d24 <vTaskRemoveFromUnorderedEventList+0x34>
 8005d26:	1d25      	adds	r5, r4, #4
 8005d28:	f7fe feca 	bl	8004ac0 <uxListRemove>
 8005d2c:	4628      	mov	r0, r5
 8005d2e:	f7fe fec7 	bl	8004ac0 <uxListRemove>
 8005d32:	4a0c      	ldr	r2, [pc, #48]	@ (8005d64 <vTaskRemoveFromUnorderedEventList+0x74>)
 8005d34:	6ae3      	ldr	r3, [r4, #44]	@ 0x2c
 8005d36:	6811      	ldr	r1, [r2, #0]
 8005d38:	428b      	cmp	r3, r1
 8005d3a:	bf88      	it	hi
 8005d3c:	6013      	strhi	r3, [r2, #0]
 8005d3e:	4a0a      	ldr	r2, [pc, #40]	@ (8005d68 <vTaskRemoveFromUnorderedEventList+0x78>)
 8005d40:	2014      	movs	r0, #20
 8005d42:	fb00 2003 	mla	r0, r0, r3, r2
 8005d46:	4629      	mov	r1, r5
 8005d48:	f7fe fe98 	bl	8004a7c <vListInsertEnd>
 8005d4c:	4b07      	ldr	r3, [pc, #28]	@ (8005d6c <vTaskRemoveFromUnorderedEventList+0x7c>)
 8005d4e:	6ae2      	ldr	r2, [r4, #44]	@ 0x2c
 8005d50:	681b      	ldr	r3, [r3, #0]
 8005d52:	6adb      	ldr	r3, [r3, #44]	@ 0x2c
 8005d54:	429a      	cmp	r2, r3
 8005d56:	bf82      	ittt	hi
 8005d58:	4b05      	ldrhi	r3, [pc, #20]	@ (8005d70 <vTaskRemoveFromUnorderedEventList+0x80>)
 8005d5a:	2201      	movhi	r2, #1
 8005d5c:	601a      	strhi	r2, [r3, #0]
 8005d5e:	bd38      	pop	{r3, r4, r5, pc}
 8005d60:	20001af4 	.word	0x20001af4
 8005d64:	20001b10 	.word	0x20001b10
 8005d68:	20001b8c 	.word	0x20001b8c
 8005d6c:	20001fec 	.word	0x20001fec
 8005d70:	20001b04 	.word	0x20001b04

08005d74 <vTaskInternalSetTimeOutState>:
 8005d74:	4b03      	ldr	r3, [pc, #12]	@ (8005d84 <vTaskInternalSetTimeOutState+0x10>)
 8005d76:	681b      	ldr	r3, [r3, #0]
 8005d78:	6003      	str	r3, [r0, #0]
 8005d7a:	4b03      	ldr	r3, [pc, #12]	@ (8005d88 <vTaskInternalSetTimeOutState+0x14>)
 8005d7c:	681b      	ldr	r3, [r3, #0]
 8005d7e:	6043      	str	r3, [r0, #4]
 8005d80:	4770      	bx	lr
 8005d82:	bf00      	nop
 8005d84:	20001b00 	.word	0x20001b00
 8005d88:	20001b14 	.word	0x20001b14

08005d8c <xTaskCheckForTimeOut>:
 8005d8c:	b570      	push	{r4, r5, r6, lr}
 8005d8e:	460c      	mov	r4, r1
 8005d90:	4605      	mov	r5, r0
 8005d92:	b940      	cbnz	r0, 8005da6 <xTaskCheckForTimeOut+0x1a>
 8005d94:	f04f 0350 	mov.w	r3, #80	@ 0x50
 8005d98:	f383 8811 	msr	BASEPRI, r3
 8005d9c:	f3bf 8f6f 	isb	sy
 8005da0:	f3bf 8f4f 	dsb	sy
 8005da4:	e7fe      	b.n	8005da4 <xTaskCheckForTimeOut+0x18>
 8005da6:	b941      	cbnz	r1, 8005dba <xTaskCheckForTimeOut+0x2e>
 8005da8:	f04f 0350 	mov.w	r3, #80	@ 0x50
 8005dac:	f383 8811 	msr	BASEPRI, r3
 8005db0:	f3bf 8f6f 	isb	sy
 8005db4:	f3bf 8f4f 	dsb	sy
 8005db8:	e7fe      	b.n	8005db8 <xTaskCheckForTimeOut+0x2c>
 8005dba:	f000 fb8b 	bl	80064d4 <vPortEnterCritical>
 8005dbe:	4b0f      	ldr	r3, [pc, #60]	@ (8005dfc <xTaskCheckForTimeOut+0x70>)
 8005dc0:	6819      	ldr	r1, [r3, #0]
 8005dc2:	6823      	ldr	r3, [r4, #0]
 8005dc4:	1c5a      	adds	r2, r3, #1
 8005dc6:	d010      	beq.n	8005dea <xTaskCheckForTimeOut+0x5e>
 8005dc8:	480d      	ldr	r0, [pc, #52]	@ (8005e00 <xTaskCheckForTimeOut+0x74>)
 8005dca:	682e      	ldr	r6, [r5, #0]
 8005dcc:	6800      	ldr	r0, [r0, #0]
 8005dce:	686a      	ldr	r2, [r5, #4]
 8005dd0:	4286      	cmp	r6, r0
 8005dd2:	d001      	beq.n	8005dd8 <xTaskCheckForTimeOut+0x4c>
 8005dd4:	428a      	cmp	r2, r1
 8005dd6:	d90f      	bls.n	8005df8 <xTaskCheckForTimeOut+0x6c>
 8005dd8:	1a88      	subs	r0, r1, r2
 8005dda:	4283      	cmp	r3, r0
 8005ddc:	d90a      	bls.n	8005df4 <xTaskCheckForTimeOut+0x68>
 8005dde:	1a5b      	subs	r3, r3, r1
 8005de0:	4413      	add	r3, r2
 8005de2:	6023      	str	r3, [r4, #0]
 8005de4:	4628      	mov	r0, r5
 8005de6:	f7ff ffc5 	bl	8005d74 <vTaskInternalSetTimeOutState>
 8005dea:	2400      	movs	r4, #0
 8005dec:	f000 fb92 	bl	8006514 <vPortExitCritical>
 8005df0:	4620      	mov	r0, r4
 8005df2:	bd70      	pop	{r4, r5, r6, pc}
 8005df4:	2300      	movs	r3, #0
 8005df6:	6023      	str	r3, [r4, #0]
 8005df8:	2401      	movs	r4, #1
 8005dfa:	e7f7      	b.n	8005dec <xTaskCheckForTimeOut+0x60>
 8005dfc:	20001b14 	.word	0x20001b14
 8005e00:	20001b00 	.word	0x20001b00

08005e04 <vTaskMissedYield>:
 8005e04:	4b01      	ldr	r3, [pc, #4]	@ (8005e0c <vTaskMissedYield+0x8>)
 8005e06:	2201      	movs	r2, #1
 8005e08:	601a      	str	r2, [r3, #0]
 8005e0a:	4770      	bx	lr
 8005e0c:	20001b04 	.word	0x20001b04

08005e10 <xTaskGetCurrentTaskHandle>:
 8005e10:	4b01      	ldr	r3, [pc, #4]	@ (8005e18 <xTaskGetCurrentTaskHandle+0x8>)
 8005e12:	6818      	ldr	r0, [r3, #0]
 8005e14:	4770      	bx	lr
 8005e16:	bf00      	nop
 8005e18:	20001fec 	.word	0x20001fec

08005e1c <xTaskGetSchedulerState>:
 8005e1c:	4b05      	ldr	r3, [pc, #20]	@ (8005e34 <xTaskGetSchedulerState+0x18>)
 8005e1e:	681b      	ldr	r3, [r3, #0]
 8005e20:	b133      	cbz	r3, 8005e30 <xTaskGetSchedulerState+0x14>
 8005e22:	4b05      	ldr	r3, [pc, #20]	@ (8005e38 <xTaskGetSchedulerState+0x1c>)
 8005e24:	6818      	ldr	r0, [r3, #0]
 8005e26:	fab0 f080 	clz	r0, r0
 8005e2a:	0940      	lsrs	r0, r0, #5
 8005e2c:	0040      	lsls	r0, r0, #1
 8005e2e:	4770      	bx	lr
 8005e30:	2001      	movs	r0, #1
 8005e32:	4770      	bx	lr
 8005e34:	20001b0c 	.word	0x20001b0c
 8005e38:	20001af4 	.word	0x20001af4

08005e3c <xTaskPriorityInherit>:
 8005e3c:	b5f8      	push	{r3, r4, r5, r6, r7, lr}
 8005e3e:	4604      	mov	r4, r0
 8005e40:	b338      	cbz	r0, 8005e92 <xTaskPriorityInherit+0x56>
 8005e42:	4d1a      	ldr	r5, [pc, #104]	@ (8005eac <xTaskPriorityInherit+0x70>)
 8005e44:	6ac3      	ldr	r3, [r0, #44]	@ 0x2c
 8005e46:	682a      	ldr	r2, [r5, #0]
 8005e48:	6ad2      	ldr	r2, [r2, #44]	@ 0x2c
 8005e4a:	4293      	cmp	r3, r2
 8005e4c:	d226      	bcs.n	8005e9c <xTaskPriorityInherit+0x60>
 8005e4e:	6982      	ldr	r2, [r0, #24]
 8005e50:	4e17      	ldr	r6, [pc, #92]	@ (8005eb0 <xTaskPriorityInherit+0x74>)
 8005e52:	2a00      	cmp	r2, #0
 8005e54:	bfa1      	itttt	ge
 8005e56:	682a      	ldrge	r2, [r5, #0]
 8005e58:	6ad2      	ldrge	r2, [r2, #44]	@ 0x2c
 8005e5a:	f1c2 0238 	rsbge	r2, r2, #56	@ 0x38
 8005e5e:	6182      	strge	r2, [r0, #24]
 8005e60:	2214      	movs	r2, #20
 8005e62:	fb02 6303 	mla	r3, r2, r3, r6
 8005e66:	6942      	ldr	r2, [r0, #20]
 8005e68:	429a      	cmp	r2, r3
 8005e6a:	d113      	bne.n	8005e94 <xTaskPriorityInherit+0x58>
 8005e6c:	1d07      	adds	r7, r0, #4
 8005e6e:	4638      	mov	r0, r7
 8005e70:	f7fe fe26 	bl	8004ac0 <uxListRemove>
 8005e74:	682b      	ldr	r3, [r5, #0]
 8005e76:	4a0f      	ldr	r2, [pc, #60]	@ (8005eb4 <xTaskPriorityInherit+0x78>)
 8005e78:	6adb      	ldr	r3, [r3, #44]	@ 0x2c
 8005e7a:	6811      	ldr	r1, [r2, #0]
 8005e7c:	62e3      	str	r3, [r4, #44]	@ 0x2c
 8005e7e:	2014      	movs	r0, #20
 8005e80:	428b      	cmp	r3, r1
 8005e82:	fb00 6003 	mla	r0, r0, r3, r6
 8005e86:	4639      	mov	r1, r7
 8005e88:	bf88      	it	hi
 8005e8a:	6013      	strhi	r3, [r2, #0]
 8005e8c:	f7fe fdf6 	bl	8004a7c <vListInsertEnd>
 8005e90:	2001      	movs	r0, #1
 8005e92:	bdf8      	pop	{r3, r4, r5, r6, r7, pc}
 8005e94:	682b      	ldr	r3, [r5, #0]
 8005e96:	6adb      	ldr	r3, [r3, #44]	@ 0x2c
 8005e98:	62c3      	str	r3, [r0, #44]	@ 0x2c
 8005e9a:	e7f9      	b.n	8005e90 <xTaskPriorityInherit+0x54>
 8005e9c:	682b      	ldr	r3, [r5, #0]
 8005e9e:	6d00      	ldr	r0, [r0, #80]	@ 0x50
 8005ea0:	6adb      	ldr	r3, [r3, #44]	@ 0x2c
 8005ea2:	4298      	cmp	r0, r3
 8005ea4:	bf2c      	ite	cs
 8005ea6:	2000      	movcs	r0, #0
 8005ea8:	2001      	movcc	r0, #1
 8005eaa:	e7f2      	b.n	8005e92 <xTaskPriorityInherit+0x56>
 8005eac:	20001fec 	.word	0x20001fec
 8005eb0:	20001b8c 	.word	0x20001b8c
 8005eb4:	20001b10 	.word	0x20001b10

08005eb8 <xTaskPriorityDisinherit>:
 8005eb8:	b538      	push	{r3, r4, r5, lr}
 8005eba:	b908      	cbnz	r0, 8005ec0 <xTaskPriorityDisinherit+0x8>
 8005ebc:	2000      	movs	r0, #0
 8005ebe:	bd38      	pop	{r3, r4, r5, pc}
 8005ec0:	4b1b      	ldr	r3, [pc, #108]	@ (8005f30 <xTaskPriorityDisinherit+0x78>)
 8005ec2:	681c      	ldr	r4, [r3, #0]
 8005ec4:	4284      	cmp	r4, r0
 8005ec6:	d008      	beq.n	8005eda <xTaskPriorityDisinherit+0x22>
 8005ec8:	f04f 0350 	mov.w	r3, #80	@ 0x50
 8005ecc:	f383 8811 	msr	BASEPRI, r3
 8005ed0:	f3bf 8f6f 	isb	sy
 8005ed4:	f3bf 8f4f 	dsb	sy
 8005ed8:	e7fe      	b.n	8005ed8 <xTaskPriorityDisinherit+0x20>
 8005eda:	6d63      	ldr	r3, [r4, #84]	@ 0x54
 8005edc:	b943      	cbnz	r3, 8005ef0 <xTaskPriorityDisinherit+0x38>
 8005ede:	f04f 0350 	mov.w	r3, #80	@ 0x50
 8005ee2:	f383 8811 	msr	BASEPRI, r3
 8005ee6:	f3bf 8f6f 	isb	sy
 8005eea:	f3bf 8f4f 	dsb	sy
 8005eee:	e7fe      	b.n	8005eee <xTaskPriorityDisinherit+0x36>
 8005ef0:	6ae1      	ldr	r1, [r4, #44]	@ 0x2c
 8005ef2:	6d22      	ldr	r2, [r4, #80]	@ 0x50
 8005ef4:	3b01      	subs	r3, #1
 8005ef6:	4291      	cmp	r1, r2
 8005ef8:	6563      	str	r3, [r4, #84]	@ 0x54
 8005efa:	d0df      	beq.n	8005ebc <xTaskPriorityDisinherit+0x4>
 8005efc:	2b00      	cmp	r3, #0
 8005efe:	d1dd      	bne.n	8005ebc <xTaskPriorityDisinherit+0x4>
 8005f00:	1d25      	adds	r5, r4, #4
 8005f02:	4628      	mov	r0, r5
 8005f04:	f7fe fddc 	bl	8004ac0 <uxListRemove>
 8005f08:	6d23      	ldr	r3, [r4, #80]	@ 0x50
 8005f0a:	62e3      	str	r3, [r4, #44]	@ 0x2c
 8005f0c:	f1c3 0238 	rsb	r2, r3, #56	@ 0x38
 8005f10:	61a2      	str	r2, [r4, #24]
 8005f12:	4a08      	ldr	r2, [pc, #32]	@ (8005f34 <xTaskPriorityDisinherit+0x7c>)
 8005f14:	6811      	ldr	r1, [r2, #0]
 8005f16:	428b      	cmp	r3, r1
 8005f18:	bf88      	it	hi
 8005f1a:	6013      	strhi	r3, [r2, #0]
 8005f1c:	4a06      	ldr	r2, [pc, #24]	@ (8005f38 <xTaskPriorityDisinherit+0x80>)
 8005f1e:	2014      	movs	r0, #20
 8005f20:	fb00 2003 	mla	r0, r0, r3, r2
 8005f24:	4629      	mov	r1, r5
 8005f26:	f7fe fda9 	bl	8004a7c <vListInsertEnd>
 8005f2a:	2001      	movs	r0, #1
 8005f2c:	e7c7      	b.n	8005ebe <xTaskPriorityDisinherit+0x6>
 8005f2e:	bf00      	nop
 8005f30:	20001fec 	.word	0x20001fec
 8005f34:	20001b10 	.word	0x20001b10
 8005f38:	20001b8c 	.word	0x20001b8c

08005f3c <vTaskPriorityDisinheritAfterTimeout>:
 8005f3c:	b570      	push	{r4, r5, r6, lr}
 8005f3e:	4604      	mov	r4, r0
 8005f40:	2800      	cmp	r0, #0
 8005f42:	d041      	beq.n	8005fc8 <vTaskPriorityDisinheritAfterTimeout+0x8c>
 8005f44:	6d42      	ldr	r2, [r0, #84]	@ 0x54
 8005f46:	b942      	cbnz	r2, 8005f5a <vTaskPriorityDisinheritAfterTimeout+0x1e>
 8005f48:	f04f 0350 	mov.w	r3, #80	@ 0x50
 8005f4c:	f383 8811 	msr	BASEPRI, r3
 8005f50:	f3bf 8f6f 	isb	sy
 8005f54:	f3bf 8f4f 	dsb	sy
 8005f58:	e7fe      	b.n	8005f58 <vTaskPriorityDisinheritAfterTimeout+0x1c>
 8005f5a:	6d03      	ldr	r3, [r0, #80]	@ 0x50
 8005f5c:	4299      	cmp	r1, r3
 8005f5e:	bf38      	it	cc
 8005f60:	4619      	movcc	r1, r3
 8005f62:	6ac3      	ldr	r3, [r0, #44]	@ 0x2c
 8005f64:	428b      	cmp	r3, r1
 8005f66:	d02f      	beq.n	8005fc8 <vTaskPriorityDisinheritAfterTimeout+0x8c>
 8005f68:	2a01      	cmp	r2, #1
 8005f6a:	d12d      	bne.n	8005fc8 <vTaskPriorityDisinheritAfterTimeout+0x8c>
 8005f6c:	4a17      	ldr	r2, [pc, #92]	@ (8005fcc <vTaskPriorityDisinheritAfterTimeout+0x90>)
 8005f6e:	6812      	ldr	r2, [r2, #0]
 8005f70:	4282      	cmp	r2, r0
 8005f72:	d108      	bne.n	8005f86 <vTaskPriorityDisinheritAfterTimeout+0x4a>
 8005f74:	f04f 0350 	mov.w	r3, #80	@ 0x50
 8005f78:	f383 8811 	msr	BASEPRI, r3
 8005f7c:	f3bf 8f6f 	isb	sy
 8005f80:	f3bf 8f4f 	dsb	sy
 8005f84:	e7fe      	b.n	8005f84 <vTaskPriorityDisinheritAfterTimeout+0x48>
 8005f86:	6982      	ldr	r2, [r0, #24]
 8005f88:	4d11      	ldr	r5, [pc, #68]	@ (8005fd0 <vTaskPriorityDisinheritAfterTimeout+0x94>)
 8005f8a:	62c1      	str	r1, [r0, #44]	@ 0x2c
 8005f8c:	2a00      	cmp	r2, #0
 8005f8e:	f04f 0214 	mov.w	r2, #20
 8005f92:	fb02 5303 	mla	r3, r2, r3, r5
 8005f96:	6942      	ldr	r2, [r0, #20]
 8005f98:	bfa4      	itt	ge
 8005f9a:	f1c1 0138 	rsbge	r1, r1, #56	@ 0x38
 8005f9e:	6181      	strge	r1, [r0, #24]
 8005fa0:	429a      	cmp	r2, r3
 8005fa2:	d111      	bne.n	8005fc8 <vTaskPriorityDisinheritAfterTimeout+0x8c>
 8005fa4:	1d06      	adds	r6, r0, #4
 8005fa6:	4630      	mov	r0, r6
 8005fa8:	f7fe fd8a 	bl	8004ac0 <uxListRemove>
 8005fac:	4a09      	ldr	r2, [pc, #36]	@ (8005fd4 <vTaskPriorityDisinheritAfterTimeout+0x98>)
 8005fae:	6ae3      	ldr	r3, [r4, #44]	@ 0x2c
 8005fb0:	6811      	ldr	r1, [r2, #0]
 8005fb2:	2014      	movs	r0, #20
 8005fb4:	428b      	cmp	r3, r1
 8005fb6:	fb00 5003 	mla	r0, r0, r3, r5
 8005fba:	4631      	mov	r1, r6
 8005fbc:	e8bd 4070 	ldmia.w	sp!, {r4, r5, r6, lr}
 8005fc0:	bf88      	it	hi
 8005fc2:	6013      	strhi	r3, [r2, #0]
 8005fc4:	f7fe bd5a 	b.w	8004a7c <vListInsertEnd>
 8005fc8:	bd70      	pop	{r4, r5, r6, pc}
 8005fca:	bf00      	nop
 8005fcc:	20001fec 	.word	0x20001fec
 8005fd0:	20001b8c 	.word	0x20001b8c
 8005fd4:	20001b10 	.word	0x20001b10

08005fd8 <uxTaskResetEventItemValue>:
 8005fd8:	4b04      	ldr	r3, [pc, #16]	@ (8005fec <uxTaskResetEventItemValue+0x14>)
 8005fda:	681a      	ldr	r2, [r3, #0]
 8005fdc:	6819      	ldr	r1, [r3, #0]
 8005fde:	6990      	ldr	r0, [r2, #24]
 8005fe0:	681a      	ldr	r2, [r3, #0]
 8005fe2:	6acb      	ldr	r3, [r1, #44]	@ 0x2c
 8005fe4:	f1c3 0338 	rsb	r3, r3, #56	@ 0x38
 8005fe8:	6193      	str	r3, [r2, #24]
 8005fea:	4770      	bx	lr
 8005fec:	20001fec 	.word	0x20001fec

08005ff0 <pvTaskIncrementMutexHeldCount>:
 8005ff0:	4b04      	ldr	r3, [pc, #16]	@ (8006004 <pvTaskIncrementMutexHeldCount+0x14>)
 8005ff2:	681a      	ldr	r2, [r3, #0]
 8005ff4:	b11a      	cbz	r2, 8005ffe <pvTaskIncrementMutexHeldCount+0xe>
 8005ff6:	6819      	ldr	r1, [r3, #0]
 8005ff8:	6d4a      	ldr	r2, [r1, #84]	@ 0x54
 8005ffa:	3201      	adds	r2, #1
 8005ffc:	654a      	str	r2, [r1, #84]	@ 0x54
 8005ffe:	6818      	ldr	r0, [r3, #0]
 8006000:	4770      	bx	lr
 8006002:	bf00      	nop
 8006004:	20001fec 	.word	0x20001fec

08006008 <prvInsertTimerInActiveList>:
 8006008:	4291      	cmp	r1, r2
 800600a:	b508      	push	{r3, lr}
 800600c:	6041      	str	r1, [r0, #4]
 800600e:	6100      	str	r0, [r0, #16]
 8006010:	d80a      	bhi.n	8006028 <prvInsertTimerInActiveList+0x20>
 8006012:	1ad2      	subs	r2, r2, r3
 8006014:	6983      	ldr	r3, [r0, #24]
 8006016:	429a      	cmp	r2, r3
 8006018:	d20d      	bcs.n	8006036 <prvInsertTimerInActiveList+0x2e>
 800601a:	4b08      	ldr	r3, [pc, #32]	@ (800603c <prvInsertTimerInActiveList+0x34>)
 800601c:	1d01      	adds	r1, r0, #4
 800601e:	6818      	ldr	r0, [r3, #0]
 8006020:	f7fe fd37 	bl	8004a92 <vListInsert>
 8006024:	2000      	movs	r0, #0
 8006026:	bd08      	pop	{r3, pc}
 8006028:	429a      	cmp	r2, r3
 800602a:	d201      	bcs.n	8006030 <prvInsertTimerInActiveList+0x28>
 800602c:	4299      	cmp	r1, r3
 800602e:	d202      	bcs.n	8006036 <prvInsertTimerInActiveList+0x2e>
 8006030:	4b03      	ldr	r3, [pc, #12]	@ (8006040 <prvInsertTimerInActiveList+0x38>)
 8006032:	1d01      	adds	r1, r0, #4
 8006034:	e7f3      	b.n	800601e <prvInsertTimerInActiveList+0x16>
 8006036:	2001      	movs	r0, #1
 8006038:	e7f5      	b.n	8006026 <prvInsertTimerInActiveList+0x1e>
 800603a:	bf00      	nop
 800603c:	200020ec 	.word	0x200020ec
 8006040:	200020f0 	.word	0x200020f0

08006044 <prvCheckForValidListAndQueue>:
 8006044:	b5f7      	push	{r0, r1, r2, r4, r5, r6, r7, lr}
 8006046:	4c11      	ldr	r4, [pc, #68]	@ (800608c <prvCheckForValidListAndQueue+0x48>)
 8006048:	f000 fa44 	bl	80064d4 <vPortEnterCritical>
 800604c:	6825      	ldr	r5, [r4, #0]
 800604e:	b9bd      	cbnz	r5, 8006080 <prvCheckForValidListAndQueue+0x3c>
 8006050:	4f0f      	ldr	r7, [pc, #60]	@ (8006090 <prvCheckForValidListAndQueue+0x4c>)
 8006052:	4e10      	ldr	r6, [pc, #64]	@ (8006094 <prvCheckForValidListAndQueue+0x50>)
 8006054:	4638      	mov	r0, r7
 8006056:	f7fe fd03 	bl	8004a60 <vListInitialise>
 800605a:	4630      	mov	r0, r6
 800605c:	f7fe fd00 	bl	8004a60 <vListInitialise>
 8006060:	4b0d      	ldr	r3, [pc, #52]	@ (8006098 <prvCheckForValidListAndQueue+0x54>)
 8006062:	4a0e      	ldr	r2, [pc, #56]	@ (800609c <prvCheckForValidListAndQueue+0x58>)
 8006064:	601f      	str	r7, [r3, #0]
 8006066:	4b0e      	ldr	r3, [pc, #56]	@ (80060a0 <prvCheckForValidListAndQueue+0x5c>)
 8006068:	2110      	movs	r1, #16
 800606a:	601e      	str	r6, [r3, #0]
 800606c:	200a      	movs	r0, #10
 800606e:	4b0d      	ldr	r3, [pc, #52]	@ (80060a4 <prvCheckForValidListAndQueue+0x60>)
 8006070:	9500      	str	r5, [sp, #0]
 8006072:	f7fe fe00 	bl	8004c76 <xQueueGenericCreateStatic>
 8006076:	6020      	str	r0, [r4, #0]
 8006078:	b110      	cbz	r0, 8006080 <prvCheckForValidListAndQueue+0x3c>
 800607a:	490b      	ldr	r1, [pc, #44]	@ (80060a8 <prvCheckForValidListAndQueue+0x64>)
 800607c:	f7ff f926 	bl	80052cc <vQueueAddToRegistry>
 8006080:	b003      	add	sp, #12
 8006082:	e8bd 40f0 	ldmia.w	sp!, {r4, r5, r6, r7, lr}
 8006086:	f000 ba45 	b.w	8006514 <vPortExitCritical>
 800608a:	bf00      	nop
 800608c:	200020e8 	.word	0x200020e8
 8006090:	20002108 	.word	0x20002108
 8006094:	200020f4 	.word	0x200020f4
 8006098:	200020f0 	.word	0x200020f0
 800609c:	20002040 	.word	0x20002040
 80060a0:	200020ec 	.word	0x200020ec
 80060a4:	20001ff0 	.word	0x20001ff0
 80060a8:	080074ee 	.word	0x080074ee

080060ac <xTimerCreateTimerTask>:
 80060ac:	b510      	push	{r4, lr}
 80060ae:	b088      	sub	sp, #32
 80060b0:	f7ff ffc8 	bl	8006044 <prvCheckForValidListAndQueue>
 80060b4:	4b12      	ldr	r3, [pc, #72]	@ (8006100 <xTimerCreateTimerTask+0x54>)
 80060b6:	681b      	ldr	r3, [r3, #0]
 80060b8:	b1b3      	cbz	r3, 80060e8 <xTimerCreateTimerTask+0x3c>
 80060ba:	2400      	movs	r4, #0
 80060bc:	aa07      	add	r2, sp, #28
 80060be:	a906      	add	r1, sp, #24
 80060c0:	a805      	add	r0, sp, #20
 80060c2:	e9cd 4405 	strd	r4, r4, [sp, #20]
 80060c6:	f7fe fbb7 	bl	8004838 <vApplicationGetTimerTaskMemory>
 80060ca:	9b05      	ldr	r3, [sp, #20]
 80060cc:	9302      	str	r3, [sp, #8]
 80060ce:	9b06      	ldr	r3, [sp, #24]
 80060d0:	9301      	str	r3, [sp, #4]
 80060d2:	2302      	movs	r3, #2
 80060d4:	9300      	str	r3, [sp, #0]
 80060d6:	9a07      	ldr	r2, [sp, #28]
 80060d8:	490a      	ldr	r1, [pc, #40]	@ (8006104 <xTimerCreateTimerTask+0x58>)
 80060da:	480b      	ldr	r0, [pc, #44]	@ (8006108 <xTimerCreateTimerTask+0x5c>)
 80060dc:	4623      	mov	r3, r4
 80060de:	f7ff fa94 	bl	800560a <xTaskCreateStatic>
 80060e2:	4b0a      	ldr	r3, [pc, #40]	@ (800610c <xTimerCreateTimerTask+0x60>)
 80060e4:	6018      	str	r0, [r3, #0]
 80060e6:	b940      	cbnz	r0, 80060fa <xTimerCreateTimerTask+0x4e>
 80060e8:	f04f 0350 	mov.w	r3, #80	@ 0x50
 80060ec:	f383 8811 	msr	BASEPRI, r3
 80060f0:	f3bf 8f6f 	isb	sy
 80060f4:	f3bf 8f4f 	dsb	sy
 80060f8:	e7fe      	b.n	80060f8 <xTimerCreateTimerTask+0x4c>
 80060fa:	2001      	movs	r0, #1
 80060fc:	b008      	add	sp, #32
 80060fe:	bd10      	pop	{r4, pc}
 8006100:	200020e8 	.word	0x200020e8
 8006104:	080074f3 	.word	0x080074f3
 8006108:	0800620d 	.word	0x0800620d
 800610c:	200020e4 	.word	0x200020e4

08006110 <xTimerGenericCommand>:
 8006110:	b57f      	push	{r0, r1, r2, r3, r4, r5, r6, lr}
 8006112:	4616      	mov	r6, r2
 8006114:	4604      	mov	r4, r0
 8006116:	461a      	mov	r2, r3
 8006118:	b940      	cbnz	r0, 800612c <xTimerGenericCommand+0x1c>
 800611a:	f04f 0350 	mov.w	r3, #80	@ 0x50
 800611e:	f383 8811 	msr	BASEPRI, r3
 8006122:	f3bf 8f6f 	isb	sy
 8006126:	f3bf 8f4f 	dsb	sy
 800612a:	e7fe      	b.n	800612a <xTimerGenericCommand+0x1a>
 800612c:	4d0d      	ldr	r5, [pc, #52]	@ (8006164 <xTimerGenericCommand+0x54>)
 800612e:	6828      	ldr	r0, [r5, #0]
 8006130:	b180      	cbz	r0, 8006154 <xTimerGenericCommand+0x44>
 8006132:	2905      	cmp	r1, #5
 8006134:	e9cd 1600 	strd	r1, r6, [sp]
 8006138:	9402      	str	r4, [sp, #8]
 800613a:	dc0d      	bgt.n	8006158 <xTimerGenericCommand+0x48>
 800613c:	f7ff fe6e 	bl	8005e1c <xTaskGetSchedulerState>
 8006140:	2300      	movs	r3, #0
 8006142:	2802      	cmp	r0, #2
 8006144:	bf08      	it	eq
 8006146:	9a08      	ldreq	r2, [sp, #32]
 8006148:	6828      	ldr	r0, [r5, #0]
 800614a:	bf18      	it	ne
 800614c:	461a      	movne	r2, r3
 800614e:	4669      	mov	r1, sp
 8006150:	f7fe fddf 	bl	8004d12 <xQueueGenericSend>
 8006154:	b004      	add	sp, #16
 8006156:	bd70      	pop	{r4, r5, r6, pc}
 8006158:	2300      	movs	r3, #0
 800615a:	4669      	mov	r1, sp
 800615c:	f7fe fedc 	bl	8004f18 <xQueueGenericSendFromISR>
 8006160:	e7f8      	b.n	8006154 <xTimerGenericCommand+0x44>
 8006162:	bf00      	nop
 8006164:	200020e8 	.word	0x200020e8

08006168 <prvSampleTimeNow>:
 8006168:	e92d 47f3 	stmdb	sp!, {r0, r1, r4, r5, r6, r7, r8, r9, sl, lr}
 800616c:	f8df 8098 	ldr.w	r8, [pc, #152]	@ 8006208 <prvSampleTimeNow+0xa0>
 8006170:	4606      	mov	r6, r0
 8006172:	f7ff fb9b 	bl	80058ac <xTaskGetTickCount>
 8006176:	f8d8 3000 	ldr.w	r3, [r8]
 800617a:	4283      	cmp	r3, r0
 800617c:	4605      	mov	r5, r0
 800617e:	d909      	bls.n	8006194 <prvSampleTimeNow+0x2c>
 8006180:	4f1f      	ldr	r7, [pc, #124]	@ (8006200 <prvSampleTimeNow+0x98>)
 8006182:	683b      	ldr	r3, [r7, #0]
 8006184:	681a      	ldr	r2, [r3, #0]
 8006186:	b96a      	cbnz	r2, 80061a4 <prvSampleTimeNow+0x3c>
 8006188:	4a1e      	ldr	r2, [pc, #120]	@ (8006204 <prvSampleTimeNow+0x9c>)
 800618a:	6811      	ldr	r1, [r2, #0]
 800618c:	6039      	str	r1, [r7, #0]
 800618e:	6013      	str	r3, [r2, #0]
 8006190:	2301      	movs	r3, #1
 8006192:	e000      	b.n	8006196 <prvSampleTimeNow+0x2e>
 8006194:	2300      	movs	r3, #0
 8006196:	4628      	mov	r0, r5
 8006198:	6033      	str	r3, [r6, #0]
 800619a:	f8c8 5000 	str.w	r5, [r8]
 800619e:	b002      	add	sp, #8
 80061a0:	e8bd 87f0 	ldmia.w	sp!, {r4, r5, r6, r7, r8, r9, sl, pc}
 80061a4:	68db      	ldr	r3, [r3, #12]
 80061a6:	68dc      	ldr	r4, [r3, #12]
 80061a8:	f8d3 9000 	ldr.w	r9, [r3]
 80061ac:	f104 0a04 	add.w	sl, r4, #4
 80061b0:	4650      	mov	r0, sl
 80061b2:	f7fe fc85 	bl	8004ac0 <uxListRemove>
 80061b6:	6a23      	ldr	r3, [r4, #32]
 80061b8:	4620      	mov	r0, r4
 80061ba:	4798      	blx	r3
 80061bc:	f894 3028 	ldrb.w	r3, [r4, #40]	@ 0x28
 80061c0:	075b      	lsls	r3, r3, #29
 80061c2:	d5de      	bpl.n	8006182 <prvSampleTimeNow+0x1a>
 80061c4:	69a3      	ldr	r3, [r4, #24]
 80061c6:	444b      	add	r3, r9
 80061c8:	4599      	cmp	r9, r3
 80061ca:	d206      	bcs.n	80061da <prvSampleTimeNow+0x72>
 80061cc:	6838      	ldr	r0, [r7, #0]
 80061ce:	6063      	str	r3, [r4, #4]
 80061d0:	6124      	str	r4, [r4, #16]
 80061d2:	4651      	mov	r1, sl
 80061d4:	f7fe fc5d 	bl	8004a92 <vListInsert>
 80061d8:	e7d3      	b.n	8006182 <prvSampleTimeNow+0x1a>
 80061da:	2300      	movs	r3, #0
 80061dc:	9300      	str	r3, [sp, #0]
 80061de:	464a      	mov	r2, r9
 80061e0:	4619      	mov	r1, r3
 80061e2:	4620      	mov	r0, r4
 80061e4:	f7ff ff94 	bl	8006110 <xTimerGenericCommand>
 80061e8:	2800      	cmp	r0, #0
 80061ea:	d1ca      	bne.n	8006182 <prvSampleTimeNow+0x1a>
 80061ec:	f04f 0350 	mov.w	r3, #80	@ 0x50
 80061f0:	f383 8811 	msr	BASEPRI, r3
 80061f4:	f3bf 8f6f 	isb	sy
 80061f8:	f3bf 8f4f 	dsb	sy
 80061fc:	e7fe      	b.n	80061fc <prvSampleTimeNow+0x94>
 80061fe:	bf00      	nop
 8006200:	200020f0 	.word	0x200020f0
 8006204:	200020ec 	.word	0x200020ec
 8006208:	200020e0 	.word	0x200020e0

0800620c <prvTimerTask>:
 800620c:	e92d 43f0 	stmdb	sp!, {r4, r5, r6, r7, r8, r9, lr}
 8006210:	4d6e      	ldr	r5, [pc, #440]	@ (80063cc <prvTimerTask+0x1c0>)
 8006212:	4e6f      	ldr	r6, [pc, #444]	@ (80063d0 <prvTimerTask+0x1c4>)
 8006214:	b089      	sub	sp, #36	@ 0x24
 8006216:	682b      	ldr	r3, [r5, #0]
 8006218:	f8d3 8000 	ldr.w	r8, [r3]
 800621c:	f1b8 0f00 	cmp.w	r8, #0
 8006220:	d035      	beq.n	800628e <prvTimerTask+0x82>
 8006222:	68db      	ldr	r3, [r3, #12]
 8006224:	f8d3 8000 	ldr.w	r8, [r3]
 8006228:	2400      	movs	r4, #0
 800622a:	f7ff fb37 	bl	800589c <vTaskSuspendAll>
 800622e:	a804      	add	r0, sp, #16
 8006230:	f7ff ff9a 	bl	8006168 <prvSampleTimeNow>
 8006234:	9b04      	ldr	r3, [sp, #16]
 8006236:	4681      	mov	r9, r0
 8006238:	2b00      	cmp	r3, #0
 800623a:	d169      	bne.n	8006310 <prvTimerTask+0x104>
 800623c:	2c00      	cmp	r4, #0
 800623e:	d14c      	bne.n	80062da <prvTimerTask+0xce>
 8006240:	4540      	cmp	r0, r8
 8006242:	d350      	bcc.n	80062e6 <prvTimerTask+0xda>
 8006244:	f7ff fbce 	bl	80059e4 <xTaskResumeAll>
 8006248:	682b      	ldr	r3, [r5, #0]
 800624a:	68db      	ldr	r3, [r3, #12]
 800624c:	68df      	ldr	r7, [r3, #12]
 800624e:	1d38      	adds	r0, r7, #4
 8006250:	f7fe fc36 	bl	8004ac0 <uxListRemove>
 8006254:	f897 3028 	ldrb.w	r3, [r7, #40]	@ 0x28
 8006258:	0758      	lsls	r0, r3, #29
 800625a:	d51a      	bpl.n	8006292 <prvTimerTask+0x86>
 800625c:	69b9      	ldr	r1, [r7, #24]
 800625e:	4643      	mov	r3, r8
 8006260:	464a      	mov	r2, r9
 8006262:	4441      	add	r1, r8
 8006264:	4638      	mov	r0, r7
 8006266:	f7ff fecf 	bl	8006008 <prvInsertTimerInActiveList>
 800626a:	b1b0      	cbz	r0, 800629a <prvTimerTask+0x8e>
 800626c:	9400      	str	r4, [sp, #0]
 800626e:	4623      	mov	r3, r4
 8006270:	4642      	mov	r2, r8
 8006272:	4621      	mov	r1, r4
 8006274:	4638      	mov	r0, r7
 8006276:	f7ff ff4b 	bl	8006110 <xTimerGenericCommand>
 800627a:	b970      	cbnz	r0, 800629a <prvTimerTask+0x8e>
 800627c:	f04f 0350 	mov.w	r3, #80	@ 0x50
 8006280:	f383 8811 	msr	BASEPRI, r3
 8006284:	f3bf 8f6f 	isb	sy
 8006288:	f3bf 8f4f 	dsb	sy
 800628c:	e7fe      	b.n	800628c <prvTimerTask+0x80>
 800628e:	2401      	movs	r4, #1
 8006290:	e7cb      	b.n	800622a <prvTimerTask+0x1e>
 8006292:	f023 0301 	bic.w	r3, r3, #1
 8006296:	f887 3028 	strb.w	r3, [r7, #40]	@ 0x28
 800629a:	6a3b      	ldr	r3, [r7, #32]
 800629c:	4638      	mov	r0, r7
 800629e:	4798      	blx	r3
 80062a0:	6830      	ldr	r0, [r6, #0]
 80062a2:	2200      	movs	r2, #0
 80062a4:	a904      	add	r1, sp, #16
 80062a6:	f7fe fe94 	bl	8004fd2 <xQueueReceive>
 80062aa:	2800      	cmp	r0, #0
 80062ac:	d0b3      	beq.n	8006216 <prvTimerTask+0xa>
 80062ae:	9b04      	ldr	r3, [sp, #16]
 80062b0:	9806      	ldr	r0, [sp, #24]
 80062b2:	2b00      	cmp	r3, #0
 80062b4:	db2f      	blt.n	8006316 <prvTimerTask+0x10a>
 80062b6:	9c06      	ldr	r4, [sp, #24]
 80062b8:	6963      	ldr	r3, [r4, #20]
 80062ba:	2b00      	cmp	r3, #0
 80062bc:	d132      	bne.n	8006324 <prvTimerTask+0x118>
 80062be:	a803      	add	r0, sp, #12
 80062c0:	f7ff ff52 	bl	8006168 <prvSampleTimeNow>
 80062c4:	9b04      	ldr	r3, [sp, #16]
 80062c6:	4602      	mov	r2, r0
 80062c8:	2b09      	cmp	r3, #9
 80062ca:	d8e9      	bhi.n	80062a0 <prvTimerTask+0x94>
 80062cc:	e8df f003 	tbb	[pc, r3]
 80062d0:	572e2e2e 	.word	0x572e2e2e
 80062d4:	2e2e765e 	.word	0x2e2e765e
 80062d8:	5e57      	.short	0x5e57
 80062da:	4b3e      	ldr	r3, [pc, #248]	@ (80063d4 <prvTimerTask+0x1c8>)
 80062dc:	681b      	ldr	r3, [r3, #0]
 80062de:	681c      	ldr	r4, [r3, #0]
 80062e0:	fab4 f484 	clz	r4, r4
 80062e4:	0964      	lsrs	r4, r4, #5
 80062e6:	6830      	ldr	r0, [r6, #0]
 80062e8:	4622      	mov	r2, r4
 80062ea:	eba8 0109 	sub.w	r1, r8, r9
 80062ee:	f7fe ffff 	bl	80052f0 <vQueueWaitForMessageRestricted>
 80062f2:	f7ff fb77 	bl	80059e4 <xTaskResumeAll>
 80062f6:	2800      	cmp	r0, #0
 80062f8:	d1d2      	bne.n	80062a0 <prvTimerTask+0x94>
 80062fa:	f04f 23e0 	mov.w	r3, #3758153728	@ 0xe000e000
 80062fe:	f04f 5280 	mov.w	r2, #268435456	@ 0x10000000
 8006302:	f8c3 2d04 	str.w	r2, [r3, #3332]	@ 0xd04
 8006306:	f3bf 8f4f 	dsb	sy
 800630a:	f3bf 8f6f 	isb	sy
 800630e:	e7c7      	b.n	80062a0 <prvTimerTask+0x94>
 8006310:	f7ff fb68 	bl	80059e4 <xTaskResumeAll>
 8006314:	e7c4      	b.n	80062a0 <prvTimerTask+0x94>
 8006316:	9b05      	ldr	r3, [sp, #20]
 8006318:	9907      	ldr	r1, [sp, #28]
 800631a:	4798      	blx	r3
 800631c:	9b04      	ldr	r3, [sp, #16]
 800631e:	2b00      	cmp	r3, #0
 8006320:	dbbe      	blt.n	80062a0 <prvTimerTask+0x94>
 8006322:	e7c8      	b.n	80062b6 <prvTimerTask+0xaa>
 8006324:	1d20      	adds	r0, r4, #4
 8006326:	f7fe fbcb 	bl	8004ac0 <uxListRemove>
 800632a:	e7c8      	b.n	80062be <prvTimerTask+0xb2>
 800632c:	f894 3028 	ldrb.w	r3, [r4, #40]	@ 0x28
 8006330:	69a1      	ldr	r1, [r4, #24]
 8006332:	f043 0301 	orr.w	r3, r3, #1
 8006336:	f884 3028 	strb.w	r3, [r4, #40]	@ 0x28
 800633a:	9b05      	ldr	r3, [sp, #20]
 800633c:	4620      	mov	r0, r4
 800633e:	4419      	add	r1, r3
 8006340:	f7ff fe62 	bl	8006008 <prvInsertTimerInActiveList>
 8006344:	2800      	cmp	r0, #0
 8006346:	d0ab      	beq.n	80062a0 <prvTimerTask+0x94>
 8006348:	6a23      	ldr	r3, [r4, #32]
 800634a:	4620      	mov	r0, r4
 800634c:	4798      	blx	r3
 800634e:	f894 3028 	ldrb.w	r3, [r4, #40]	@ 0x28
 8006352:	0759      	lsls	r1, r3, #29
 8006354:	d5a4      	bpl.n	80062a0 <prvTimerTask+0x94>
 8006356:	69a2      	ldr	r2, [r4, #24]
 8006358:	9905      	ldr	r1, [sp, #20]
 800635a:	2300      	movs	r3, #0
 800635c:	440a      	add	r2, r1
 800635e:	9300      	str	r3, [sp, #0]
 8006360:	4619      	mov	r1, r3
 8006362:	4620      	mov	r0, r4
 8006364:	f7ff fed4 	bl	8006110 <xTimerGenericCommand>
 8006368:	2800      	cmp	r0, #0
 800636a:	d199      	bne.n	80062a0 <prvTimerTask+0x94>
 800636c:	f04f 0350 	mov.w	r3, #80	@ 0x50
 8006370:	f383 8811 	msr	BASEPRI, r3
 8006374:	f3bf 8f6f 	isb	sy
 8006378:	f3bf 8f4f 	dsb	sy
 800637c:	e7fe      	b.n	800637c <prvTimerTask+0x170>
 800637e:	f894 3028 	ldrb.w	r3, [r4, #40]	@ 0x28
 8006382:	f023 0301 	bic.w	r3, r3, #1
 8006386:	f884 3028 	strb.w	r3, [r4, #40]	@ 0x28
 800638a:	e789      	b.n	80062a0 <prvTimerTask+0x94>
 800638c:	f894 3028 	ldrb.w	r3, [r4, #40]	@ 0x28
 8006390:	f043 0301 	orr.w	r3, r3, #1
 8006394:	f884 3028 	strb.w	r3, [r4, #40]	@ 0x28
 8006398:	9905      	ldr	r1, [sp, #20]
 800639a:	61a1      	str	r1, [r4, #24]
 800639c:	b941      	cbnz	r1, 80063b0 <prvTimerTask+0x1a4>
 800639e:	f04f 0350 	mov.w	r3, #80	@ 0x50
 80063a2:	f383 8811 	msr	BASEPRI, r3
 80063a6:	f3bf 8f6f 	isb	sy
 80063aa:	f3bf 8f4f 	dsb	sy
 80063ae:	e7fe      	b.n	80063ae <prvTimerTask+0x1a2>
 80063b0:	4603      	mov	r3, r0
 80063b2:	4401      	add	r1, r0
 80063b4:	4620      	mov	r0, r4
 80063b6:	f7ff fe27 	bl	8006008 <prvInsertTimerInActiveList>
 80063ba:	e771      	b.n	80062a0 <prvTimerTask+0x94>
 80063bc:	f894 3028 	ldrb.w	r3, [r4, #40]	@ 0x28
 80063c0:	079a      	lsls	r2, r3, #30
 80063c2:	d4de      	bmi.n	8006382 <prvTimerTask+0x176>
 80063c4:	4620      	mov	r0, r4
 80063c6:	f000 fa83 	bl	80068d0 <vPortFree>
 80063ca:	e769      	b.n	80062a0 <prvTimerTask+0x94>
 80063cc:	200020f0 	.word	0x200020f0
 80063d0:	200020e8 	.word	0x200020e8
 80063d4:	200020ec 	.word	0x200020ec

080063d8 <xTimerPendFunctionCallFromISR>:
 80063d8:	b51f      	push	{r0, r1, r2, r3, r4, lr}
 80063da:	4614      	mov	r4, r2
 80063dc:	461a      	mov	r2, r3
 80063de:	f06f 0301 	mvn.w	r3, #1
 80063e2:	e9cd 3000 	strd	r3, r0, [sp]
 80063e6:	4805      	ldr	r0, [pc, #20]	@ (80063fc <xTimerPendFunctionCallFromISR+0x24>)
 80063e8:	e9cd 1402 	strd	r1, r4, [sp, #8]
 80063ec:	2300      	movs	r3, #0
 80063ee:	4669      	mov	r1, sp
 80063f0:	6800      	ldr	r0, [r0, #0]
 80063f2:	f7fe fd91 	bl	8004f18 <xQueueGenericSendFromISR>
 80063f6:	b004      	add	sp, #16
 80063f8:	bd10      	pop	{r4, pc}
 80063fa:	bf00      	nop
 80063fc:	200020e8 	.word	0x200020e8

08006400 <prvPortStartFirstTask>:
 8006400:	4808      	ldr	r0, [pc, #32]	@ (8006424 <prvPortStartFirstTask+0x24>)
 8006402:	6800      	ldr	r0, [r0, #0]
 8006404:	6800      	ldr	r0, [r0, #0]
 8006406:	f380 8808 	msr	MSP, r0
 800640a:	f04f 0000 	mov.w	r0, #0
 800640e:	f380 8814 	msr	CONTROL, r0
 8006412:	b662      	cpsie	i
 8006414:	b661      	cpsie	f
 8006416:	f3bf 8f4f 	dsb	sy
 800641a:	f3bf 8f6f 	isb	sy
 800641e:	df00      	svc	0
 8006420:	bf00      	nop
 8006422:	0000      	.short	0x0000
 8006424:	e000ed08 	.word	0xe000ed08

08006428 <vPortEnableVFP>:
 8006428:	f8df 000c 	ldr.w	r0, [pc, #12]	@ 8006438 <vPortEnableVFP+0x10>
 800642c:	6801      	ldr	r1, [r0, #0]
 800642e:	f441 0170 	orr.w	r1, r1, #15728640	@ 0xf00000
 8006432:	6001      	str	r1, [r0, #0]
 8006434:	4770      	bx	lr
 8006436:	0000      	.short	0x0000
 8006438:	e000ed88 	.word	0xe000ed88

0800643c <prvTaskExitError>:
 800643c:	b082      	sub	sp, #8
 800643e:	2300      	movs	r3, #0
 8006440:	9301      	str	r3, [sp, #4]
 8006442:	4b0d      	ldr	r3, [pc, #52]	@ (8006478 <prvTaskExitError+0x3c>)
 8006444:	681b      	ldr	r3, [r3, #0]
 8006446:	3301      	adds	r3, #1
 8006448:	d008      	beq.n	800645c <prvTaskExitError+0x20>
 800644a:	f04f 0350 	mov.w	r3, #80	@ 0x50
 800644e:	f383 8811 	msr	BASEPRI, r3
 8006452:	f3bf 8f6f 	isb	sy
 8006456:	f3bf 8f4f 	dsb	sy
 800645a:	e7fe      	b.n	800645a <prvTaskExitError+0x1e>
 800645c:	f04f 0350 	mov.w	r3, #80	@ 0x50
 8006460:	f383 8811 	msr	BASEPRI, r3
 8006464:	f3bf 8f6f 	isb	sy
 8006468:	f3bf 8f4f 	dsb	sy
 800646c:	9b01      	ldr	r3, [sp, #4]
 800646e:	2b00      	cmp	r3, #0
 8006470:	d0fc      	beq.n	800646c <prvTaskExitError+0x30>
 8006472:	b002      	add	sp, #8
 8006474:	4770      	bx	lr
 8006476:	bf00      	nop
 8006478:	200002b4 	.word	0x200002b4

0800647c <pxPortInitialiseStack>:
 800647c:	f04f 7380 	mov.w	r3, #16777216	@ 0x1000000
 8006480:	f840 3c04 	str.w	r3, [r0, #-4]
 8006484:	4b07      	ldr	r3, [pc, #28]	@ (80064a4 <pxPortInitialiseStack+0x28>)
 8006486:	f840 3c0c 	str.w	r3, [r0, #-12]
 800648a:	f021 0101 	bic.w	r1, r1, #1
 800648e:	f06f 0302 	mvn.w	r3, #2
 8006492:	f840 1c08 	str.w	r1, [r0, #-8]
 8006496:	f840 2c20 	str.w	r2, [r0, #-32]
 800649a:	f840 3c24 	str.w	r3, [r0, #-36]
 800649e:	3844      	subs	r0, #68	@ 0x44
 80064a0:	4770      	bx	lr
 80064a2:	bf00      	nop
 80064a4:	0800643d 	.word	0x0800643d
	...

080064b0 <SVC_Handler>:
 80064b0:	4b07      	ldr	r3, [pc, #28]	@ (80064d0 <pxCurrentTCBConst2>)
 80064b2:	6819      	ldr	r1, [r3, #0]
 80064b4:	6808      	ldr	r0, [r1, #0]
 80064b6:	e8b0 4ff0 	ldmia.w	r0!, {r4, r5, r6, r7, r8, r9, sl, fp, lr}
 80064ba:	f380 8809 	msr	PSP, r0
 80064be:	f3bf 8f6f 	isb	sy
 80064c2:	f04f 0000 	mov.w	r0, #0
 80064c6:	f380 8811 	msr	BASEPRI, r0
 80064ca:	4770      	bx	lr
 80064cc:	f3af 8000 	nop.w

080064d0 <pxCurrentTCBConst2>:
 80064d0:	20001fec 	.word	0x20001fec

080064d4 <vPortEnterCritical>:
 80064d4:	f04f 0350 	mov.w	r3, #80	@ 0x50
 80064d8:	f383 8811 	msr	BASEPRI, r3
 80064dc:	f3bf 8f6f 	isb	sy
 80064e0:	f3bf 8f4f 	dsb	sy
 80064e4:	4a0a      	ldr	r2, [pc, #40]	@ (8006510 <vPortEnterCritical+0x3c>)
 80064e6:	6813      	ldr	r3, [r2, #0]
 80064e8:	3301      	adds	r3, #1
 80064ea:	2b01      	cmp	r3, #1
 80064ec:	6013      	str	r3, [r2, #0]
 80064ee:	d10e      	bne.n	800650e <vPortEnterCritical+0x3a>
 80064f0:	f04f 23e0 	mov.w	r3, #3758153728	@ 0xe000e000
 80064f4:	f8d3 3d04 	ldr.w	r3, [r3, #3332]	@ 0xd04
 80064f8:	b2db      	uxtb	r3, r3
 80064fa:	b143      	cbz	r3, 800650e <vPortEnterCritical+0x3a>
 80064fc:	f04f 0350 	mov.w	r3, #80	@ 0x50
 8006500:	f383 8811 	msr	BASEPRI, r3
 8006504:	f3bf 8f6f 	isb	sy
 8006508:	f3bf 8f4f 	dsb	sy
 800650c:	e7fe      	b.n	800650c <vPortEnterCritical+0x38>
 800650e:	4770      	bx	lr
 8006510:	200002b4 	.word	0x200002b4

08006514 <vPortExitCritical>:
 8006514:	4a08      	ldr	r2, [pc, #32]	@ (8006538 <vPortExitCritical+0x24>)
 8006516:	6813      	ldr	r3, [r2, #0]
 8006518:	b943      	cbnz	r3, 800652c <vPortExitCritical+0x18>
 800651a:	f04f 0350 	mov.w	r3, #80	@ 0x50
 800651e:	f383 8811 	msr	BASEPRI, r3
 8006522:	f3bf 8f6f 	isb	sy
 8006526:	f3bf 8f4f 	dsb	sy
 800652a:	e7fe      	b.n	800652a <vPortExitCritical+0x16>
 800652c:	3b01      	subs	r3, #1
 800652e:	6013      	str	r3, [r2, #0]
 8006530:	b90b      	cbnz	r3, 8006536 <vPortExitCritical+0x22>
 8006532:	f383 8811 	msr	BASEPRI, r3
 8006536:	4770      	bx	lr
 8006538:	200002b4 	.word	0x200002b4
 800653c:	00000000 	.word	0x00000000

08006540 <PendSV_Handler>:
 8006540:	f3ef 8009 	mrs	r0, PSP
 8006544:	f3bf 8f6f 	isb	sy
 8006548:	4b15      	ldr	r3, [pc, #84]	@ (80065a0 <pxCurrentTCBConst>)
 800654a:	681a      	ldr	r2, [r3, #0]
 800654c:	f01e 0f10 	tst.w	lr, #16
 8006550:	bf08      	it	eq
 8006552:	ed20 8a10 	vstmdbeq	r0!, {s16-s31}
 8006556:	e920 4ff0 	stmdb	r0!, {r4, r5, r6, r7, r8, r9, sl, fp, lr}
 800655a:	6010      	str	r0, [r2, #0]
 800655c:	e92d 0009 	stmdb	sp!, {r0, r3}
 8006560:	f04f 0050 	mov.w	r0, #80	@ 0x50
 8006564:	f380 8811 	msr	BASEPRI, r0
 8006568:	f3bf 8f4f 	dsb	sy
 800656c:	f3bf 8f6f 	isb	sy
 8006570:	f7ff fad0 	bl	8005b14 <vTaskSwitchContext>
 8006574:	f04f 0000 	mov.w	r0, #0
 8006578:	f380 8811 	msr	BASEPRI, r0
 800657c:	bc09      	pop	{r0, r3}
 800657e:	6819      	ldr	r1, [r3, #0]
 8006580:	6808      	ldr	r0, [r1, #0]
 8006582:	e8b0 4ff0 	ldmia.w	r0!, {r4, r5, r6, r7, r8, r9, sl, fp, lr}
 8006586:	f01e 0f10 	tst.w	lr, #16
 800658a:	bf08      	it	eq
 800658c:	ecb0 8a10 	vldmiaeq	r0!, {s16-s31}
 8006590:	f380 8809 	msr	PSP, r0
 8006594:	f3bf 8f6f 	isb	sy
 8006598:	4770      	bx	lr
 800659a:	bf00      	nop
 800659c:	f3af 8000 	nop.w

080065a0 <pxCurrentTCBConst>:
 80065a0:	20001fec 	.word	0x20001fec

080065a4 <xPortSysTickHandler>:
 80065a4:	b508      	push	{r3, lr}
 80065a6:	f04f 0350 	mov.w	r3, #80	@ 0x50
 80065aa:	f383 8811 	msr	BASEPRI, r3
 80065ae:	f3bf 8f6f 	isb	sy
 80065b2:	f3bf 8f4f 	dsb	sy
 80065b6:	f7ff f97f 	bl	80058b8 <xTaskIncrementTick>
 80065ba:	b128      	cbz	r0, 80065c8 <xPortSysTickHandler+0x24>
 80065bc:	f04f 23e0 	mov.w	r3, #3758153728	@ 0xe000e000
 80065c0:	f04f 5280 	mov.w	r2, #268435456	@ 0x10000000
 80065c4:	f8c3 2d04 	str.w	r2, [r3, #3332]	@ 0xd04
 80065c8:	2300      	movs	r3, #0
 80065ca:	f383 8811 	msr	BASEPRI, r3
 80065ce:	bd08      	pop	{r3, pc}

080065d0 <vPortSetupTimerInterrupt>:
 80065d0:	f04f 22e0 	mov.w	r2, #3758153728	@ 0xe000e000
 80065d4:	2300      	movs	r3, #0
 80065d6:	6113      	str	r3, [r2, #16]
 80065d8:	6193      	str	r3, [r2, #24]
 80065da:	4b05      	ldr	r3, [pc, #20]	@ (80065f0 <vPortSetupTimerInterrupt+0x20>)
 80065dc:	f44f 717a 	mov.w	r1, #1000	@ 0x3e8
 80065e0:	681b      	ldr	r3, [r3, #0]
 80065e2:	fbb3 f3f1 	udiv	r3, r3, r1
 80065e6:	3b01      	subs	r3, #1
 80065e8:	6153      	str	r3, [r2, #20]
 80065ea:	2307      	movs	r3, #7
 80065ec:	6113      	str	r3, [r2, #16]
 80065ee:	4770      	bx	lr
 80065f0:	200002a8 	.word	0x200002a8

080065f4 <xPortStartScheduler>:
 80065f4:	f04f 23e0 	mov.w	r3, #3758153728	@ 0xe000e000
 80065f8:	b537      	push	{r0, r1, r2, r4, r5, lr}
 80065fa:	f8d3 1d00 	ldr.w	r1, [r3, #3328]	@ 0xd00
 80065fe:	4a38      	ldr	r2, [pc, #224]	@ (80066e0 <xPortStartScheduler+0xec>)
 8006600:	4291      	cmp	r1, r2
 8006602:	d108      	bne.n	8006616 <xPortStartScheduler+0x22>
 8006604:	f04f 0350 	mov.w	r3, #80	@ 0x50
 8006608:	f383 8811 	msr	BASEPRI, r3
 800660c:	f3bf 8f6f 	isb	sy
 8006610:	f3bf 8f4f 	dsb	sy
 8006614:	e7fe      	b.n	8006614 <xPortStartScheduler+0x20>
 8006616:	f8d3 2d00 	ldr.w	r2, [r3, #3328]	@ 0xd00
 800661a:	4b32      	ldr	r3, [pc, #200]	@ (80066e4 <xPortStartScheduler+0xf0>)
 800661c:	429a      	cmp	r2, r3
 800661e:	d108      	bne.n	8006632 <xPortStartScheduler+0x3e>
 8006620:	f04f 0350 	mov.w	r3, #80	@ 0x50
 8006624:	f383 8811 	msr	BASEPRI, r3
 8006628:	f3bf 8f6f 	isb	sy
 800662c:	f3bf 8f4f 	dsb	sy
 8006630:	e7fe      	b.n	8006630 <xPortStartScheduler+0x3c>
 8006632:	4b2d      	ldr	r3, [pc, #180]	@ (80066e8 <xPortStartScheduler+0xf4>)
 8006634:	781a      	ldrb	r2, [r3, #0]
 8006636:	b2d2      	uxtb	r2, r2
 8006638:	9201      	str	r2, [sp, #4]
 800663a:	22ff      	movs	r2, #255	@ 0xff
 800663c:	701a      	strb	r2, [r3, #0]
 800663e:	781b      	ldrb	r3, [r3, #0]
 8006640:	4a2a      	ldr	r2, [pc, #168]	@ (80066ec <xPortStartScheduler+0xf8>)
 8006642:	b2db      	uxtb	r3, r3
 8006644:	f88d 3003 	strb.w	r3, [sp, #3]
 8006648:	f89d 3003 	ldrb.w	r3, [sp, #3]
 800664c:	f003 0350 	and.w	r3, r3, #80	@ 0x50
 8006650:	7013      	strb	r3, [r2, #0]
 8006652:	4a27      	ldr	r2, [pc, #156]	@ (80066f0 <xPortStartScheduler+0xfc>)
 8006654:	2307      	movs	r3, #7
 8006656:	6013      	str	r3, [r2, #0]
 8006658:	f89d 1003 	ldrb.w	r1, [sp, #3]
 800665c:	6813      	ldr	r3, [r2, #0]
 800665e:	0609      	lsls	r1, r1, #24
 8006660:	d40a      	bmi.n	8006678 <xPortStartScheduler+0x84>
 8006662:	2b03      	cmp	r3, #3
 8006664:	d011      	beq.n	800668a <xPortStartScheduler+0x96>
 8006666:	f04f 0350 	mov.w	r3, #80	@ 0x50
 800666a:	f383 8811 	msr	BASEPRI, r3
 800666e:	f3bf 8f6f 	isb	sy
 8006672:	f3bf 8f4f 	dsb	sy
 8006676:	e7fe      	b.n	8006676 <xPortStartScheduler+0x82>
 8006678:	3b01      	subs	r3, #1
 800667a:	6013      	str	r3, [r2, #0]
 800667c:	f89d 3003 	ldrb.w	r3, [sp, #3]
 8006680:	005b      	lsls	r3, r3, #1
 8006682:	b2db      	uxtb	r3, r3
 8006684:	f88d 3003 	strb.w	r3, [sp, #3]
 8006688:	e7e6      	b.n	8006658 <xPortStartScheduler+0x64>
 800668a:	f44f 7340 	mov.w	r3, #768	@ 0x300
 800668e:	6013      	str	r3, [r2, #0]
 8006690:	9b01      	ldr	r3, [sp, #4]
 8006692:	4a15      	ldr	r2, [pc, #84]	@ (80066e8 <xPortStartScheduler+0xf4>)
 8006694:	f04f 24e0 	mov.w	r4, #3758153728	@ 0xe000e000
 8006698:	b2db      	uxtb	r3, r3
 800669a:	7013      	strb	r3, [r2, #0]
 800669c:	f8d4 3d20 	ldr.w	r3, [r4, #3360]	@ 0xd20
 80066a0:	f443 0370 	orr.w	r3, r3, #15728640	@ 0xf00000
 80066a4:	f8c4 3d20 	str.w	r3, [r4, #3360]	@ 0xd20
 80066a8:	f8d4 3d20 	ldr.w	r3, [r4, #3360]	@ 0xd20
 80066ac:	f043 4370 	orr.w	r3, r3, #4026531840	@ 0xf0000000
 80066b0:	f8c4 3d20 	str.w	r3, [r4, #3360]	@ 0xd20
 80066b4:	f7ff ff8c 	bl	80065d0 <vPortSetupTimerInterrupt>
 80066b8:	4b0e      	ldr	r3, [pc, #56]	@ (80066f4 <xPortStartScheduler+0x100>)
 80066ba:	2500      	movs	r5, #0
 80066bc:	601d      	str	r5, [r3, #0]
 80066be:	f7ff feb3 	bl	8006428 <vPortEnableVFP>
 80066c2:	f8d4 3f34 	ldr.w	r3, [r4, #3892]	@ 0xf34
 80066c6:	f043 4340 	orr.w	r3, r3, #3221225472	@ 0xc0000000
 80066ca:	f8c4 3f34 	str.w	r3, [r4, #3892]	@ 0xf34
 80066ce:	f7ff fe97 	bl	8006400 <prvPortStartFirstTask>
 80066d2:	f7ff fa1f 	bl	8005b14 <vTaskSwitchContext>
 80066d6:	f7ff feb1 	bl	800643c <prvTaskExitError>
 80066da:	4628      	mov	r0, r5
 80066dc:	b003      	add	sp, #12
 80066de:	bd30      	pop	{r4, r5, pc}
 80066e0:	410fc271 	.word	0x410fc271
 80066e4:	410fc270 	.word	0x410fc270
 80066e8:	e000e400 	.word	0xe000e400
 80066ec:	20002120 	.word	0x20002120
 80066f0:	2000211c 	.word	0x2000211c
 80066f4:	200002b4 	.word	0x200002b4

080066f8 <vPortValidateInterruptPriority>:
 80066f8:	f3ef 8305 	mrs	r3, IPSR
 80066fc:	2b0f      	cmp	r3, #15
 80066fe:	d90e      	bls.n	800671e <vPortValidateInterruptPriority+0x26>
 8006700:	4a11      	ldr	r2, [pc, #68]	@ (8006748 <vPortValidateInterruptPriority+0x50>)
 8006702:	5c9b      	ldrb	r3, [r3, r2]
 8006704:	4a11      	ldr	r2, [pc, #68]	@ (800674c <vPortValidateInterruptPriority+0x54>)
 8006706:	7812      	ldrb	r2, [r2, #0]
 8006708:	429a      	cmp	r2, r3
 800670a:	d908      	bls.n	800671e <vPortValidateInterruptPriority+0x26>
 800670c:	f04f 0350 	mov.w	r3, #80	@ 0x50
 8006710:	f383 8811 	msr	BASEPRI, r3
 8006714:	f3bf 8f6f 	isb	sy
 8006718:	f3bf 8f4f 	dsb	sy
 800671c:	e7fe      	b.n	800671c <vPortValidateInterruptPriority+0x24>
 800671e:	f04f 23e0 	mov.w	r3, #3758153728	@ 0xe000e000
 8006722:	4a0b      	ldr	r2, [pc, #44]	@ (8006750 <vPortValidateInterruptPriority+0x58>)
 8006724:	f8d3 3d0c 	ldr.w	r3, [r3, #3340]	@ 0xd0c
 8006728:	6812      	ldr	r2, [r2, #0]
 800672a:	f403 63e0 	and.w	r3, r3, #1792	@ 0x700
 800672e:	4293      	cmp	r3, r2
 8006730:	d908      	bls.n	8006744 <vPortValidateInterruptPriority+0x4c>
 8006732:	f04f 0350 	mov.w	r3, #80	@ 0x50
 8006736:	f383 8811 	msr	BASEPRI, r3
 800673a:	f3bf 8f6f 	isb	sy
 800673e:	f3bf 8f4f 	dsb	sy
 8006742:	e7fe      	b.n	8006742 <vPortValidateInterruptPriority+0x4a>
 8006744:	4770      	bx	lr
 8006746:	bf00      	nop
 8006748:	e000e3f0 	.word	0xe000e3f0
 800674c:	20002120 	.word	0x20002120
 8006750:	2000211c 	.word	0x2000211c

08006754 <prvInsertBlockIntoFreeList>:
 8006754:	b510      	push	{r4, lr}
 8006756:	4b10      	ldr	r3, [pc, #64]	@ (8006798 <prvInsertBlockIntoFreeList+0x44>)
 8006758:	461a      	mov	r2, r3
 800675a:	681b      	ldr	r3, [r3, #0]
 800675c:	4283      	cmp	r3, r0
 800675e:	d3fb      	bcc.n	8006758 <prvInsertBlockIntoFreeList+0x4>
 8006760:	6854      	ldr	r4, [r2, #4]
 8006762:	1911      	adds	r1, r2, r4
 8006764:	4288      	cmp	r0, r1
 8006766:	bf01      	itttt	eq
 8006768:	6841      	ldreq	r1, [r0, #4]
 800676a:	4610      	moveq	r0, r2
 800676c:	1909      	addeq	r1, r1, r4
 800676e:	6051      	streq	r1, [r2, #4]
 8006770:	6844      	ldr	r4, [r0, #4]
 8006772:	1901      	adds	r1, r0, r4
 8006774:	428b      	cmp	r3, r1
 8006776:	d10c      	bne.n	8006792 <prvInsertBlockIntoFreeList+0x3e>
 8006778:	4908      	ldr	r1, [pc, #32]	@ (800679c <prvInsertBlockIntoFreeList+0x48>)
 800677a:	6809      	ldr	r1, [r1, #0]
 800677c:	428b      	cmp	r3, r1
 800677e:	d003      	beq.n	8006788 <prvInsertBlockIntoFreeList+0x34>
 8006780:	6859      	ldr	r1, [r3, #4]
 8006782:	4421      	add	r1, r4
 8006784:	6041      	str	r1, [r0, #4]
 8006786:	6819      	ldr	r1, [r3, #0]
 8006788:	6001      	str	r1, [r0, #0]
 800678a:	4290      	cmp	r0, r2
 800678c:	bf18      	it	ne
 800678e:	6010      	strne	r0, [r2, #0]
 8006790:	bd10      	pop	{r4, pc}
 8006792:	4619      	mov	r1, r3
 8006794:	e7f8      	b.n	8006788 <prvInsertBlockIntoFreeList+0x34>
 8006796:	bf00      	nop
 8006798:	2000213c 	.word	0x2000213c
 800679c:	20002138 	.word	0x20002138

080067a0 <pvPortMalloc>:
 80067a0:	e92d 41f0 	stmdb	sp!, {r4, r5, r6, r7, r8, lr}
 80067a4:	4604      	mov	r4, r0
 80067a6:	f7ff f879 	bl	800589c <vTaskSuspendAll>
 80067aa:	4942      	ldr	r1, [pc, #264]	@ (80068b4 <pvPortMalloc+0x114>)
 80067ac:	4d42      	ldr	r5, [pc, #264]	@ (80068b8 <pvPortMalloc+0x118>)
 80067ae:	680b      	ldr	r3, [r1, #0]
 80067b0:	bb0b      	cbnz	r3, 80067f6 <pvPortMalloc+0x56>
 80067b2:	4a42      	ldr	r2, [pc, #264]	@ (80068bc <pvPortMalloc+0x11c>)
 80067b4:	0756      	lsls	r6, r2, #29
 80067b6:	bf1f      	itttt	ne
 80067b8:	1dd0      	addne	r0, r2, #7
 80067ba:	f020 0007 	bicne.w	r0, r0, #7
 80067be:	f502 5270 	addne.w	r2, r2, #15360	@ 0x3c00
 80067c2:	1a13      	subne	r3, r2, r0
 80067c4:	bf0c      	ite	eq
 80067c6:	f44f 5370 	moveq.w	r3, #15360	@ 0x3c00
 80067ca:	4602      	movne	r2, r0
 80067cc:	4413      	add	r3, r2
 80067ce:	4e3c      	ldr	r6, [pc, #240]	@ (80068c0 <pvPortMalloc+0x120>)
 80067d0:	3b08      	subs	r3, #8
 80067d2:	f023 0307 	bic.w	r3, r3, #7
 80067d6:	2000      	movs	r0, #0
 80067d8:	6070      	str	r0, [r6, #4]
 80067da:	6032      	str	r2, [r6, #0]
 80067dc:	e9c3 0000 	strd	r0, r0, [r3]
 80067e0:	1a98      	subs	r0, r3, r2
 80067e2:	e9c2 3000 	strd	r3, r0, [r2]
 80067e6:	600b      	str	r3, [r1, #0]
 80067e8:	4b36      	ldr	r3, [pc, #216]	@ (80068c4 <pvPortMalloc+0x124>)
 80067ea:	6018      	str	r0, [r3, #0]
 80067ec:	4b36      	ldr	r3, [pc, #216]	@ (80068c8 <pvPortMalloc+0x128>)
 80067ee:	6018      	str	r0, [r3, #0]
 80067f0:	f04f 4300 	mov.w	r3, #2147483648	@ 0x80000000
 80067f4:	602b      	str	r3, [r5, #0]
 80067f6:	682e      	ldr	r6, [r5, #0]
 80067f8:	4226      	tst	r6, r4
 80067fa:	d155      	bne.n	80068a8 <pvPortMalloc+0x108>
 80067fc:	2c00      	cmp	r4, #0
 80067fe:	d046      	beq.n	800688e <pvPortMalloc+0xee>
 8006800:	f104 0308 	add.w	r3, r4, #8
 8006804:	0760      	lsls	r0, r4, #29
 8006806:	bf1c      	itt	ne
 8006808:	f023 0307 	bicne.w	r3, r3, #7
 800680c:	3308      	addne	r3, #8
 800680e:	2b00      	cmp	r3, #0
 8006810:	d04a      	beq.n	80068a8 <pvPortMalloc+0x108>
 8006812:	4f2d      	ldr	r7, [pc, #180]	@ (80068c8 <pvPortMalloc+0x128>)
 8006814:	683c      	ldr	r4, [r7, #0]
 8006816:	429c      	cmp	r4, r3
 8006818:	d346      	bcc.n	80068a8 <pvPortMalloc+0x108>
 800681a:	4a29      	ldr	r2, [pc, #164]	@ (80068c0 <pvPortMalloc+0x120>)
 800681c:	6815      	ldr	r5, [r2, #0]
 800681e:	6868      	ldr	r0, [r5, #4]
 8006820:	4298      	cmp	r0, r3
 8006822:	d204      	bcs.n	800682e <pvPortMalloc+0x8e>
 8006824:	f8d5 c000 	ldr.w	ip, [r5]
 8006828:	f1bc 0f00 	cmp.w	ip, #0
 800682c:	d115      	bne.n	800685a <pvPortMalloc+0xba>
 800682e:	6809      	ldr	r1, [r1, #0]
 8006830:	42a9      	cmp	r1, r5
 8006832:	d039      	beq.n	80068a8 <pvPortMalloc+0x108>
 8006834:	6829      	ldr	r1, [r5, #0]
 8006836:	f8d2 8000 	ldr.w	r8, [r2]
 800683a:	6011      	str	r1, [r2, #0]
 800683c:	1ac2      	subs	r2, r0, r3
 800683e:	2a10      	cmp	r2, #16
 8006840:	d912      	bls.n	8006868 <pvPortMalloc+0xc8>
 8006842:	18e8      	adds	r0, r5, r3
 8006844:	0741      	lsls	r1, r0, #29
 8006846:	d00b      	beq.n	8006860 <pvPortMalloc+0xc0>
 8006848:	f04f 0350 	mov.w	r3, #80	@ 0x50
 800684c:	f383 8811 	msr	BASEPRI, r3
 8006850:	f3bf 8f6f 	isb	sy
 8006854:	f3bf 8f4f 	dsb	sy
 8006858:	e7fe      	b.n	8006858 <pvPortMalloc+0xb8>
 800685a:	462a      	mov	r2, r5
 800685c:	4665      	mov	r5, ip
 800685e:	e7de      	b.n	800681e <pvPortMalloc+0x7e>
 8006860:	6042      	str	r2, [r0, #4]
 8006862:	606b      	str	r3, [r5, #4]
 8006864:	f7ff ff76 	bl	8006754 <prvInsertBlockIntoFreeList>
 8006868:	686a      	ldr	r2, [r5, #4]
 800686a:	4916      	ldr	r1, [pc, #88]	@ (80068c4 <pvPortMalloc+0x124>)
 800686c:	1aa4      	subs	r4, r4, r2
 800686e:	4316      	orrs	r6, r2
 8006870:	4a16      	ldr	r2, [pc, #88]	@ (80068cc <pvPortMalloc+0x12c>)
 8006872:	6808      	ldr	r0, [r1, #0]
 8006874:	603c      	str	r4, [r7, #0]
 8006876:	2300      	movs	r3, #0
 8006878:	602b      	str	r3, [r5, #0]
 800687a:	6813      	ldr	r3, [r2, #0]
 800687c:	606e      	str	r6, [r5, #4]
 800687e:	4284      	cmp	r4, r0
 8006880:	f103 0301 	add.w	r3, r3, #1
 8006884:	bf38      	it	cc
 8006886:	600c      	strcc	r4, [r1, #0]
 8006888:	6013      	str	r3, [r2, #0]
 800688a:	f108 0408 	add.w	r4, r8, #8
 800688e:	f7ff f8a9 	bl	80059e4 <xTaskResumeAll>
 8006892:	0763      	lsls	r3, r4, #29
 8006894:	d00a      	beq.n	80068ac <pvPortMalloc+0x10c>
 8006896:	f04f 0350 	mov.w	r3, #80	@ 0x50
 800689a:	f383 8811 	msr	BASEPRI, r3
 800689e:	f3bf 8f6f 	isb	sy
 80068a2:	f3bf 8f4f 	dsb	sy
 80068a6:	e7fe      	b.n	80068a6 <pvPortMalloc+0x106>
 80068a8:	2400      	movs	r4, #0
 80068aa:	e7f0      	b.n	800688e <pvPortMalloc+0xee>
 80068ac:	4620      	mov	r0, r4
 80068ae:	e8bd 81f0 	ldmia.w	sp!, {r4, r5, r6, r7, r8, pc}
 80068b2:	bf00      	nop
 80068b4:	20002138 	.word	0x20002138
 80068b8:	20002124 	.word	0x20002124
 80068bc:	20002144 	.word	0x20002144
 80068c0:	2000213c 	.word	0x2000213c
 80068c4:	20002130 	.word	0x20002130
 80068c8:	20002134 	.word	0x20002134
 80068cc:	2000212c 	.word	0x2000212c

080068d0 <vPortFree>:
 80068d0:	b510      	push	{r4, lr}
 80068d2:	4604      	mov	r4, r0
 80068d4:	b390      	cbz	r0, 800693c <vPortFree+0x6c>
 80068d6:	4a1a      	ldr	r2, [pc, #104]	@ (8006940 <vPortFree+0x70>)
 80068d8:	f850 3c04 	ldr.w	r3, [r0, #-4]
 80068dc:	6812      	ldr	r2, [r2, #0]
 80068de:	4213      	tst	r3, r2
 80068e0:	d108      	bne.n	80068f4 <vPortFree+0x24>
 80068e2:	f04f 0350 	mov.w	r3, #80	@ 0x50
 80068e6:	f383 8811 	msr	BASEPRI, r3
 80068ea:	f3bf 8f6f 	isb	sy
 80068ee:	f3bf 8f4f 	dsb	sy
 80068f2:	e7fe      	b.n	80068f2 <vPortFree+0x22>
 80068f4:	f850 1c08 	ldr.w	r1, [r0, #-8]
 80068f8:	b141      	cbz	r1, 800690c <vPortFree+0x3c>
 80068fa:	f04f 0350 	mov.w	r3, #80	@ 0x50
 80068fe:	f383 8811 	msr	BASEPRI, r3
 8006902:	f3bf 8f6f 	isb	sy
 8006906:	f3bf 8f4f 	dsb	sy
 800690a:	e7fe      	b.n	800690a <vPortFree+0x3a>
 800690c:	ea23 0302 	bic.w	r3, r3, r2
 8006910:	f840 3c04 	str.w	r3, [r0, #-4]
 8006914:	f7fe ffc2 	bl	800589c <vTaskSuspendAll>
 8006918:	4a0a      	ldr	r2, [pc, #40]	@ (8006944 <vPortFree+0x74>)
 800691a:	f854 3c04 	ldr.w	r3, [r4, #-4]
 800691e:	6811      	ldr	r1, [r2, #0]
 8006920:	f1a4 0008 	sub.w	r0, r4, #8
 8006924:	440b      	add	r3, r1
 8006926:	6013      	str	r3, [r2, #0]
 8006928:	f7ff ff14 	bl	8006754 <prvInsertBlockIntoFreeList>
 800692c:	4a06      	ldr	r2, [pc, #24]	@ (8006948 <vPortFree+0x78>)
 800692e:	6813      	ldr	r3, [r2, #0]
 8006930:	e8bd 4010 	ldmia.w	sp!, {r4, lr}
 8006934:	3301      	adds	r3, #1
 8006936:	6013      	str	r3, [r2, #0]
 8006938:	f7ff b854 	b.w	80059e4 <xTaskResumeAll>
 800693c:	bd10      	pop	{r4, pc}
 800693e:	bf00      	nop
 8006940:	20002124 	.word	0x20002124
 8006944:	20002134 	.word	0x20002134
 8006948:	20002128 	.word	0x20002128

0800694c <atoi>:
 800694c:	220a      	movs	r2, #10
 800694e:	2100      	movs	r1, #0
 8006950:	f000 b87a 	b.w	8006a48 <strtol>

08006954 <_strtol_l.constprop.0>:
 8006954:	2b24      	cmp	r3, #36	@ 0x24
 8006956:	e92d 47f0 	stmdb	sp!, {r4, r5, r6, r7, r8, r9, sl, lr}
 800695a:	4686      	mov	lr, r0
 800695c:	4690      	mov	r8, r2
 800695e:	d801      	bhi.n	8006964 <_strtol_l.constprop.0+0x10>
 8006960:	2b01      	cmp	r3, #1
 8006962:	d106      	bne.n	8006972 <_strtol_l.constprop.0+0x1e>
 8006964:	f000 f882 	bl	8006a6c <__errno>
 8006968:	2316      	movs	r3, #22
 800696a:	6003      	str	r3, [r0, #0]
 800696c:	2000      	movs	r0, #0
 800696e:	e8bd 87f0 	ldmia.w	sp!, {r4, r5, r6, r7, r8, r9, sl, pc}
 8006972:	4834      	ldr	r0, [pc, #208]	@ (8006a44 <_strtol_l.constprop.0+0xf0>)
 8006974:	460d      	mov	r5, r1
 8006976:	462a      	mov	r2, r5
 8006978:	f815 4b01 	ldrb.w	r4, [r5], #1
 800697c:	5d06      	ldrb	r6, [r0, r4]
 800697e:	f016 0608 	ands.w	r6, r6, #8
 8006982:	d1f8      	bne.n	8006976 <_strtol_l.constprop.0+0x22>
 8006984:	2c2d      	cmp	r4, #45	@ 0x2d
 8006986:	d12d      	bne.n	80069e4 <_strtol_l.constprop.0+0x90>
 8006988:	782c      	ldrb	r4, [r5, #0]
 800698a:	2601      	movs	r6, #1
 800698c:	1c95      	adds	r5, r2, #2
 800698e:	f033 0210 	bics.w	r2, r3, #16
 8006992:	d109      	bne.n	80069a8 <_strtol_l.constprop.0+0x54>
 8006994:	2c30      	cmp	r4, #48	@ 0x30
 8006996:	d12a      	bne.n	80069ee <_strtol_l.constprop.0+0x9a>
 8006998:	782a      	ldrb	r2, [r5, #0]
 800699a:	f002 02df 	and.w	r2, r2, #223	@ 0xdf
 800699e:	2a58      	cmp	r2, #88	@ 0x58
 80069a0:	d125      	bne.n	80069ee <_strtol_l.constprop.0+0x9a>
 80069a2:	786c      	ldrb	r4, [r5, #1]
 80069a4:	2310      	movs	r3, #16
 80069a6:	3502      	adds	r5, #2
 80069a8:	f106 4c00 	add.w	ip, r6, #2147483648	@ 0x80000000
 80069ac:	f10c 3cff 	add.w	ip, ip, #4294967295
 80069b0:	2200      	movs	r2, #0
 80069b2:	fbbc f9f3 	udiv	r9, ip, r3
 80069b6:	4610      	mov	r0, r2
 80069b8:	fb03 ca19 	mls	sl, r3, r9, ip
 80069bc:	f1a4 0730 	sub.w	r7, r4, #48	@ 0x30
 80069c0:	2f09      	cmp	r7, #9
 80069c2:	d81b      	bhi.n	80069fc <_strtol_l.constprop.0+0xa8>
 80069c4:	463c      	mov	r4, r7
 80069c6:	42a3      	cmp	r3, r4
 80069c8:	dd27      	ble.n	8006a1a <_strtol_l.constprop.0+0xc6>
 80069ca:	1c57      	adds	r7, r2, #1
 80069cc:	d007      	beq.n	80069de <_strtol_l.constprop.0+0x8a>
 80069ce:	4581      	cmp	r9, r0
 80069d0:	d320      	bcc.n	8006a14 <_strtol_l.constprop.0+0xc0>
 80069d2:	d101      	bne.n	80069d8 <_strtol_l.constprop.0+0x84>
 80069d4:	45a2      	cmp	sl, r4
 80069d6:	db1d      	blt.n	8006a14 <_strtol_l.constprop.0+0xc0>
 80069d8:	fb00 4003 	mla	r0, r0, r3, r4
 80069dc:	2201      	movs	r2, #1
 80069de:	f815 4b01 	ldrb.w	r4, [r5], #1
 80069e2:	e7eb      	b.n	80069bc <_strtol_l.constprop.0+0x68>
 80069e4:	2c2b      	cmp	r4, #43	@ 0x2b
 80069e6:	bf04      	itt	eq
 80069e8:	782c      	ldrbeq	r4, [r5, #0]
 80069ea:	1c95      	addeq	r5, r2, #2
 80069ec:	e7cf      	b.n	800698e <_strtol_l.constprop.0+0x3a>
 80069ee:	2b00      	cmp	r3, #0
 80069f0:	d1da      	bne.n	80069a8 <_strtol_l.constprop.0+0x54>
 80069f2:	2c30      	cmp	r4, #48	@ 0x30
 80069f4:	bf0c      	ite	eq
 80069f6:	2308      	moveq	r3, #8
 80069f8:	230a      	movne	r3, #10
 80069fa:	e7d5      	b.n	80069a8 <_strtol_l.constprop.0+0x54>
 80069fc:	f1a4 0741 	sub.w	r7, r4, #65	@ 0x41
 8006a00:	2f19      	cmp	r7, #25
 8006a02:	d801      	bhi.n	8006a08 <_strtol_l.constprop.0+0xb4>
 8006a04:	3c37      	subs	r4, #55	@ 0x37
 8006a06:	e7de      	b.n	80069c6 <_strtol_l.constprop.0+0x72>
 8006a08:	f1a4 0761 	sub.w	r7, r4, #97	@ 0x61
 8006a0c:	2f19      	cmp	r7, #25
 8006a0e:	d804      	bhi.n	8006a1a <_strtol_l.constprop.0+0xc6>
 8006a10:	3c57      	subs	r4, #87	@ 0x57
 8006a12:	e7d8      	b.n	80069c6 <_strtol_l.constprop.0+0x72>
 8006a14:	f04f 32ff 	mov.w	r2, #4294967295
 8006a18:	e7e1      	b.n	80069de <_strtol_l.constprop.0+0x8a>
 8006a1a:	1c53      	adds	r3, r2, #1
 8006a1c:	d108      	bne.n	8006a30 <_strtol_l.constprop.0+0xdc>
 8006a1e:	2322      	movs	r3, #34	@ 0x22
 8006a20:	f8ce 3000 	str.w	r3, [lr]
 8006a24:	4660      	mov	r0, ip
 8006a26:	f1b8 0f00 	cmp.w	r8, #0
 8006a2a:	d0a0      	beq.n	800696e <_strtol_l.constprop.0+0x1a>
 8006a2c:	1e69      	subs	r1, r5, #1
 8006a2e:	e006      	b.n	8006a3e <_strtol_l.constprop.0+0xea>
 8006a30:	b106      	cbz	r6, 8006a34 <_strtol_l.constprop.0+0xe0>
 8006a32:	4240      	negs	r0, r0
 8006a34:	f1b8 0f00 	cmp.w	r8, #0
 8006a38:	d099      	beq.n	800696e <_strtol_l.constprop.0+0x1a>
 8006a3a:	2a00      	cmp	r2, #0
 8006a3c:	d1f6      	bne.n	8006a2c <_strtol_l.constprop.0+0xd8>
 8006a3e:	f8c8 1000 	str.w	r1, [r8]
 8006a42:	e794      	b.n	800696e <_strtol_l.constprop.0+0x1a>
 8006a44:	080074fc 	.word	0x080074fc

08006a48 <strtol>:
 8006a48:	4613      	mov	r3, r2
 8006a4a:	460a      	mov	r2, r1
 8006a4c:	4601      	mov	r1, r0
 8006a4e:	4802      	ldr	r0, [pc, #8]	@ (8006a58 <strtol+0x10>)
 8006a50:	6800      	ldr	r0, [r0, #0]
 8006a52:	f7ff bf7f 	b.w	8006954 <_strtol_l.constprop.0>
 8006a56:	bf00      	nop
 8006a58:	200002b8 	.word	0x200002b8

08006a5c <memset>:
 8006a5c:	4402      	add	r2, r0
 8006a5e:	4603      	mov	r3, r0
 8006a60:	4293      	cmp	r3, r2
 8006a62:	d100      	bne.n	8006a66 <memset+0xa>
 8006a64:	4770      	bx	lr
 8006a66:	f803 1b01 	strb.w	r1, [r3], #1
 8006a6a:	e7f9      	b.n	8006a60 <memset+0x4>

08006a6c <__errno>:
 8006a6c:	4b01      	ldr	r3, [pc, #4]	@ (8006a74 <__errno+0x8>)
 8006a6e:	6818      	ldr	r0, [r3, #0]
 8006a70:	4770      	bx	lr
 8006a72:	bf00      	nop
 8006a74:	200002b8 	.word	0x200002b8

08006a78 <__libc_init_array>:
 8006a78:	b570      	push	{r4, r5, r6, lr}
 8006a7a:	4d0d      	ldr	r5, [pc, #52]	@ (8006ab0 <__libc_init_array+0x38>)
 8006a7c:	4c0d      	ldr	r4, [pc, #52]	@ (8006ab4 <__libc_init_array+0x3c>)
 8006a7e:	1b64      	subs	r4, r4, r5
 8006a80:	10a4      	asrs	r4, r4, #2
 8006a82:	2600      	movs	r6, #0
 8006a84:	42a6      	cmp	r6, r4
 8006a86:	d109      	bne.n	8006a9c <__libc_init_array+0x24>
 8006a88:	4d0b      	ldr	r5, [pc, #44]	@ (8006ab8 <__libc_init_array+0x40>)
 8006a8a:	4c0c      	ldr	r4, [pc, #48]	@ (8006abc <__libc_init_array+0x44>)
 8006a8c:	f000 f826 	bl	8006adc <_init>
 8006a90:	1b64      	subs	r4, r4, r5
 8006a92:	10a4      	asrs	r4, r4, #2
 8006a94:	2600      	movs	r6, #0
 8006a96:	42a6      	cmp	r6, r4
 8006a98:	d105      	bne.n	8006aa6 <__libc_init_array+0x2e>
 8006a9a:	bd70      	pop	{r4, r5, r6, pc}
 8006a9c:	f855 3b04 	ldr.w	r3, [r5], #4
 8006aa0:	4798      	blx	r3
 8006aa2:	3601      	adds	r6, #1
 8006aa4:	e7ee      	b.n	8006a84 <__libc_init_array+0xc>
 8006aa6:	f855 3b04 	ldr.w	r3, [r5], #4
 8006aaa:	4798      	blx	r3
 8006aac:	3601      	adds	r6, #1
 8006aae:	e7f2      	b.n	8006a96 <__libc_init_array+0x1e>
 8006ab0:	08007604 	.word	0x08007604
 8006ab4:	08007604 	.word	0x08007604
 8006ab8:	08007604 	.word	0x08007604
 8006abc:	08007608 	.word	0x08007608

08006ac0 <memcpy>:
 8006ac0:	440a      	add	r2, r1
 8006ac2:	4291      	cmp	r1, r2
 8006ac4:	f100 33ff 	add.w	r3, r0, #4294967295
 8006ac8:	d100      	bne.n	8006acc <memcpy+0xc>
 8006aca:	4770      	bx	lr
 8006acc:	b510      	push	{r4, lr}
 8006ace:	f811 4b01 	ldrb.w	r4, [r1], #1
 8006ad2:	f803 4f01 	strb.w	r4, [r3, #1]!
 8006ad6:	4291      	cmp	r1, r2
 8006ad8:	d1f9      	bne.n	8006ace <memcpy+0xe>
 8006ada:	bd10      	pop	{r4, pc}

08006adc <_init>:
 8006adc:	b5f8      	push	{r3, r4, r5, r6, r7, lr}
 8006ade:	bf00      	nop
 8006ae0:	bcf8      	pop	{r3, r4, r5, r6, r7}
 8006ae2:	bc08      	pop	{r3}
 8006ae4:	469e      	mov	lr, r3
 8006ae6:	4770      	bx	lr

08006ae8 <_fini>:
 8006ae8:	b5f8      	push	{r3, r4, r5, r6, r7, lr}
 8006aea:	bf00      	nop
 8006aec:	bcf8      	pop	{r3, r4, r5, r6, r7}
 8006aee:	bc08      	pop	{r3}
 8006af0:	469e      	mov	lr, r3
 8006af2:	4770      	bx	lr
